GAS LISTING C:\Users\Shehan\AppData\Local\Temp\cc2rwzLQ.s 			page 1


   1              		.file	"clock.c"
   2              		.section	".text","axv"
   3              	.Ltext0:
   4              		.cfi_sections	.debug_frame
   5              		.section	.text.clockInit,"axv",@progbits
   6              		.align 1
   7              		.p2align 4,,15
   8              		.globl clockInit
   9              		.type	clockInit, @function
  10              	clockInit:
  11              	.LFB4:
  12              		.file 1 "./components/spc582bxx_clock_component_rla/lib/src/clock.c"
  13              		.loc 1 113 0
  14              		.cfi_startproc
  15              	.LVL0:
  16              	.LBB10:
  17              	.LBB11:
  18              		.loc 1 286 0
  19 0000 4BF6     		se_li %r6,63
  20 0002 70FEE7FB 		e_lis %r7,0xf7fb
  21              		.loc 1 290 0
  22 0006 6215     		se_bgeni %r5,1
  23              		.loc 1 286 0
  24 0008 6507     		se_bseti %r7,16
  25              		.loc 1 290 0
  26 000a 70B4C50F 		e_or2i %r5,42255
  27              		.loc 1 286 0
  28 000e D367     		se_stw %r6,12(%r7)
  29              		.loc 1 289 0
  30 0010 6216     		se_bgeni %r6,1
  31 0012 70CBC2F0 		e_or2i %r6,23280
  32 0016 D167     		se_stw %r6,4(%r7)
  33              		.loc 1 293 0
  34 0018 0176     		se_mr %r6,%r7
  35              		.loc 1 290 0
  36 001a D157     		se_stw %r5,4(%r7)
  37              	.L2:
  38              		.loc 1 293 0
  39 001c C376     		se_lwz %r7,12(%r6)
  40 001e 2A07     		se_cmpi %r7,0
  41 0020 7A12FFFC 		e_beq %cr0,.L2
  42              		.loc 1 297 0
  43 0024 C376     		se_lwz %r7,12(%r6)
  44 0026 67F7     		se_btsti %r7,31
  45 0028 7A020008 		e_bne %cr0,.L5
  46              	.LBE11:
  47              	.LBE10:
  48              		.loc 1 119 0
  49              		.loc 1 117 0
  50 002c 78000000 		e_b irqSysHalt
  51              	.LVL1:
  52              	.L5:
  53 0030 0004     		se_blr
  54              		.cfi_endproc
  55              	.LFE4:
  56              		.size	clockInit, .-clockInit
  57              		.section	.text.spc_clock_init,"axv",@progbits
GAS LISTING C:\Users\Shehan\AppData\Local\Temp\cc2rwzLQ.s 			page 2


  58              		.align 1
  59              		.p2align 4,,15
  60              		.globl spc_clock_init
  61              		.type	spc_clock_init, @function
  62              	spc_clock_init:
  63              	.LFB5:
  64              		.loc 1 128 0
  65              		.cfi_startproc
  66 0000 182106F8 		e_stwu %r1,-8(%r1)
  67              	.LCFI0:
  68              		.cfi_def_cfa_offset 8
  69 0004 0080     		se_mflr %r0
  70              		.loc 1 131 0
  71 0006 70DEE7FB 		e_lis %r6,0xf7fb
  72              		.loc 1 128 0
  73 000a D301     		se_stw %r0,12(%r1)
  74              		.cfi_offset 65, 4
  75              		.loc 1 131 0
  76 000c 6506     		se_bseti %r6,16
  77              	.L8:
  78              		.loc 1 131 0 is_stmt 0 discriminator 1
  79 000e C076     		se_lwz %r7,0(%r6)
  80 0010 67B7     		se_btsti %r7,27
  81 0012 7A12FFFC 		e_beq %cr0,.L8
  82              		.loc 1 137 0 is_stmt 1
  83 0016 4836     		se_li %r6,3
  84 0018 70FEE7FF 		e_lis %r7,0xf7ff
  85              	.LBB20:
  86              	.LBB21:
  87              		.loc 1 44 0
  88 001c 70B5E334 		e_lis %r5,0xab34
  89              	.LBE21:
  90              	.LBE20:
  91              		.loc 1 137 0
  92 0020 6507     		se_bseti %r7,16
  93              	.LBB24:
  94              	.LBB22:
  95              		.loc 1 44 0
  96 0022 70B3C0FE 		e_or2i %r5,39166
  97              	.LBE22:
  98              	.LBE24:
  99              		.loc 1 137 0
 100 0026 B367     		se_sth %r6,6(%r7)
 101              	.LBB25:
 102              	.LBB23:
 103              		.loc 1 44 0
 104 0028 700793F6 		e_add2is %r7,0x3f6
 105 002c 54A70090 		e_stw %r5,144(%r7)
 106              		.loc 1 46 0
 107 0030 0176     		se_mr %r6,%r7
 108              		.loc 1 45 0
 109 0032 2C05     		se_bmaski %r5,0
 110 0034 54A70080 		e_stw %r5,128(%r7)
 111              	.L9:
 112              		.loc 1 46 0
 113 0038 C076     		se_lwz %r7,0(%r6)
 114 003a 74E7D7BF 		e_rlwinm %r7,%r7,26,30,31
GAS LISTING C:\Users\Shehan\AppData\Local\Temp\cc2rwzLQ.s 			page 3


 115 003e 2227     		se_cmpli %r7,3
 116 0040 7A02FFF8 		e_bne %cr0,.L9
 117              		.loc 1 50 0
 118 0044 70F5E334 		e_lis %r7,0xab34
 119              		.loc 1 52 0
 120 0048 70BFE3F5 		e_lis %r5,0xfbf5
 121              		.loc 1 50 0
 122 004c 70F3C0FE 		e_or2i %r7,39166
 123              		.loc 1 52 0
 124 0050 6505     		se_bseti %r5,16
 125              		.loc 1 50 0
 126 0052 54E60090 		e_stw %r7,144(%r6)
 127              		.loc 1 51 0
 128 0056 2C07     		se_bmaski %r7,0
 129 0058 54E60084 		e_stw %r7,132(%r6)
 130              	.L10:
 131              		.loc 1 52 0
 132 005c C075     		se_lwz %r7,0(%r5)
 133 005e 74E7D7BF 		e_rlwinm %r7,%r7,26,30,31
 134 0062 2227     		se_cmpli %r7,3
 135 0064 7A02FFF8 		e_bne %cr0,.L10
 136              		.loc 1 56 0
 137 0068 70F5E334 		e_lis %r7,0xab34
 138              		.loc 1 58 0
 139 006c 70DFE3F5 		e_lis %r6,0xfbf5
 140              		.loc 1 56 0
 141 0070 70F3C0FE 		e_or2i %r7,39166
 142              		.loc 1 58 0
 143 0074 6506     		se_bseti %r6,16
 144              		.loc 1 56 0
 145 0076 54E50090 		e_stw %r7,144(%r5)
 146              		.loc 1 57 0
 147 007a 2C07     		se_bmaski %r7,0
 148 007c 54E50088 		e_stw %r7,136(%r5)
 149              	.L11:
 150              		.loc 1 58 0
 151 0080 C076     		se_lwz %r7,0(%r6)
 152 0082 74E7D7BF 		e_rlwinm %r7,%r7,26,30,31
 153 0086 2227     		se_cmpli %r7,3
 154 0088 7A02FFF8 		e_bne %cr0,.L11
 155              		.loc 1 62 0
 156 008c 70F5E334 		e_lis %r7,0xab34
 157              		.loc 1 64 0
 158 0090 70BFE3F5 		e_lis %r5,0xfbf5
 159              		.loc 1 62 0
 160 0094 70F3C0FE 		e_or2i %r7,39166
 161              		.loc 1 64 0
 162 0098 6505     		se_bseti %r5,16
 163              		.loc 1 62 0
 164 009a 54E60090 		e_stw %r7,144(%r6)
 165              		.loc 1 63 0
 166 009e 2C07     		se_bmaski %r7,0
 167 00a0 54E6008C 		e_stw %r7,140(%r6)
 168              	.L12:
 169              		.loc 1 64 0
 170 00a4 C075     		se_lwz %r7,0(%r5)
 171 00a6 74E7D7BF 		e_rlwinm %r7,%r7,26,30,31
GAS LISTING C:\Users\Shehan\AppData\Local\Temp\cc2rwzLQ.s 			page 4


 172 00aa 2227     		se_cmpli %r7,3
 173 00ac 7A02FFF8 		e_bne %cr0,.L12
 174              		.loc 1 68 0
 175 00b0 2D06     		se_bmaski %r6,16
 176 00b2 70FEE7FA 		e_lis %r7,0xf7fa
 177 00b6 6507     		se_bseti %r7,16
 178 00b8 54C70300 		e_stw %r6,768(%r7)
 179              		.loc 1 69 0
 180 00bc D067     		se_stw %r6,0(%r7)
 181              	.LBE23:
 182              	.LBE25:
 183              		.loc 1 147 0
 184 00be 18E78201 		e_addi %r7,%r7,65536
 185 00c2 C077     		se_lwz %r7,0(%r7)
 186 00c4 69C7     		se_srwi %r7,28
 187 00c6 2227     		se_cmpli %r7,3
 188 00c8 7A120008 		e_beq %cr0,.L13
 189              		.loc 1 148 0
 190 00cc 78000001 		e_bl irqSysHalt
 191              	.LVL2:
 192              	.L13:
 193              		.loc 1 164 0
 194 00d0 6206     		se_bgeni %r6,0
 195              		.loc 1 183 0
 196 00d2 6274     		se_bgeni %r4,7
 197              		.loc 1 177 0
 198 00d4 7070E003 		e_lis %r3,0x8003
 199              		.loc 1 165 0
 200 00d8 70B0E001 		e_lis %r5,0x8001
 201              		.loc 1 174 0
 202 00dc 7130E004 		e_lis %r9,0x8004
 203              		.loc 1 182 0
 204 00e0 6260     		se_bgeni %r0,6
 205              		.loc 1 161 0
 206 00e2 717EE7FB 		e_lis %r11,0xf7fb
 207              		.loc 1 164 0
 208 00e6 70FEE7FB 		e_lis %r7,0xf7fb
 209              		.loc 1 161 0
 210 00ea 196BD102 		e_ori %r11,%r11,512
 211              		.loc 1 164 0
 212 00ee 18E7D106 		e_ori %r7,%r7,1536
 213              		.loc 1 161 0
 214 00f2 514B0000 		e_lwz %r10,0(%r11)
 215 00f6 71000003 		e_li %r8,3
 216 00fa 750A0F7C 		e_rlwimi %r10,%r8,1,29,30
 217 00fe 554B0000 		e_stw %r10,0(%r11)
 218              		.loc 1 164 0
 219 0102 54C701E8 		e_stw %r6,488(%r7)
 220              		.loc 1 185 0
 221 0106 717EE7F9 		e_lis %r11,0xf7f9
 222              		.loc 1 165 0
 223 010a 54A701EC 		e_stw %r5,492(%r7)
 224              		.loc 1 185 0
 225 010e 196BD140 		e_ori %r11,%r11,16384
 226              		.loc 1 166 0
 227 0112 54A701F0 		e_stw %r5,496(%r7)
 228              		.loc 1 167 0
GAS LISTING C:\Users\Shehan\AppData\Local\Temp\cc2rwzLQ.s 			page 5


 229 0116 54C701F4 		e_stw %r6,500(%r7)
 230              		.loc 1 171 0
 231 011a 70B0E013 		e_lis %r5,0x8013
 232              		.loc 1 168 0
 233 011e 54C701F8 		e_stw %r6,504(%r7)
 234              		.loc 1 171 0
 235 0122 54A70208 		e_stw %r5,520(%r7)
 236              		.loc 1 172 0
 237 0126 70B0E007 		e_lis %r5,0x8007
 238 012a 54A7020C 		e_stw %r5,524(%r7)
 239              		.loc 1 173 0
 240 012e 4805     		se_li %r5,0
 241 0130 54A702C8 		e_stw %r5,712(%r7)
 242              		.loc 1 174 0
 243 0134 55270308 		e_stw %r9,776(%r7)
 244              		.loc 1 195 0
 245 0138 70BEE7FB 		e_lis %r5,0xf7fb
 246              		.loc 1 175 0
 247 013c 54C70328 		e_stw %r6,808(%r7)
 248              		.loc 1 195 0
 249 0140 6505     		se_bseti %r5,16
 250              		.loc 1 176 0
 251 0142 55270368 		e_stw %r9,872(%r7)
 252              	.LBB26:
 253              	.LBB27:
 254              		.loc 1 293 0
 255 0146 0156     		se_mr %r6,%r5
 256              	.LBE27:
 257              	.LBE26:
 258              		.loc 1 177 0
 259 0148 54670388 		e_stw %r3,904(%r7)
 260              		.loc 1 185 0
 261 014c 71200001 		e_li %r9,1
 262              		.loc 1 178 0
 263 0150 5467038C 		e_stw %r3,908(%r7)
 264              		.loc 1 179 0
 265 0154 54670390 		e_stw %r3,912(%r7)
 266              		.loc 1 182 0
 267 0158 54070200 		e_stw %r0,512(%r7)
 268              		.loc 1 184 0
 269 015c 7060E300 		e_lis %r3,0x300
 270              		.loc 1 183 0
 271 0160 54870260 		e_stw %r4,608(%r7)
 272              		.loc 1 184 0
 273 0164 54670280 		e_stw %r3,640(%r7)
 274              		.loc 1 185 0
 275 0168 506B0004 		e_lwz %r3,4(%r11)
 276 016c 752364A6 		e_rlwimi %r3,%r9,12,18,19
 277 0170 546B0004 		e_stw %r3,4(%r11)
 278              		.loc 1 186 0
 279 0174 6253     		se_bgeni %r3,5
 280 0176 546702C0 		e_stw %r3,704(%r7)
 281              		.loc 1 187 0
 282 017a 54870300 		e_stw %r4,768(%r7)
 283              		.loc 1 188 0
 284 017e 54870320 		e_stw %r4,800(%r7)
 285              		.loc 1 189 0
GAS LISTING C:\Users\Shehan\AppData\Local\Temp\cc2rwzLQ.s 			page 6


 286 0182 54870360 		e_stw %r4,864(%r7)
 287              		.loc 1 190 0
 288 0186 54070380 		e_stw %r0,896(%r7)
 289              		.loc 1 195 0
 290 018a 70E0E013 		e_lis %r7,0x13
 291 018e 18E7D030 		e_ori %r7,%r7,48
 292 0192 DB75     		se_stw %r7,44(%r5)
 293              	.LVL3:
 294              	.LBB29:
 295              	.LBB28:
 296              		.loc 1 286 0
 297 0194 4BF7     		se_li %r7,63
 298 0196 D375     		se_stw %r7,12(%r5)
 299              		.loc 1 289 0
 300 0198 70E6E000 		e_lis %r7,0x3000
 301 019c 70EBC2F0 		e_or2i %r7,23280
 302 01a0 D175     		se_stw %r7,4(%r5)
 303              		.loc 1 290 0
 304 01a2 70E6E000 		e_lis %r7,0x3000
 305 01a6 70F4C50F 		e_or2i %r7,42255
 306 01aa D175     		se_stw %r7,4(%r5)
 307              	.L14:
 308              		.loc 1 293 0
 309 01ac C376     		se_lwz %r7,12(%r6)
 310 01ae 2A07     		se_cmpi %r7,0
 311 01b0 7A12FFFC 		e_beq %cr0,.L14
 312              		.loc 1 297 0
 313 01b4 C376     		se_lwz %r7,12(%r6)
 314 01b6 67F7     		se_btsti %r7,31
 315 01b8 7A020008 		e_bne %cr0,.L19
 316              	.LBE28:
 317              	.LBE29:
 318              		.loc 1 199 0
 319 01bc 78000001 		e_bl irqSysHalt
 320              	.LVL4:
 321              	.L19:
 322              		.loc 1 204 0
 323 01c0 4806     		se_li %r6,0
 324 01c2 70FEE7FB 		e_lis %r7,0xf7fb
 325              		.loc 1 205 0
 326 01c6 70A8E002 		e_lis %r5,0x4002
 327              		.loc 1 204 0
 328 01ca 6577     		se_bseti %r7,23
 329              		.loc 1 205 0
 330 01cc 70A4C020 		e_or2i %r5,8224
 331              		.loc 1 204 0
 332 01d0 D067     		se_stw %r6,0(%r7)
 333              		.loc 1 205 0
 334 01d2 D257     		se_stw %r5,8(%r7)
 335              		.loc 1 209 0
 336 01d4 D867     		se_stw %r6,32(%r7)
 337              		.loc 1 219 0
 338 01d6 70A0E013 		e_lis %r5,0x13
 339              		.loc 1 210 0
 340 01da 62C6     		se_bgeni %r6,12
 341              		.loc 1 219 0
 342 01dc 18A5D0F4 		e_ori %r5,%r5,244
GAS LISTING C:\Users\Shehan\AppData\Local\Temp\cc2rwzLQ.s 			page 7


 343              		.loc 1 210 0
 344 01e0 65B6     		se_bseti %r6,27
 345              		.loc 1 216 0
 346 01e2 18E7817F 		e_addi %r7,%r7,32512
 347              		.loc 1 210 0
 348 01e6 54C78128 		e_stw %r6,-32472(%r7)
 349              		.loc 1 216 0
 350 01ea 4886     		se_li %r6,8
 351 01ec D367     		se_stw %r6,12(%r7)
 352              		.loc 1 217 0
 353 01ee 70C405FD 		e_li %r6,9725
 354 01f2 D267     		se_stw %r6,8(%r7)
 355              		.loc 1 218 0
 356 01f4 70C0E093 		e_lis %r6,0x93
 357 01f8 65B6     		se_bseti %r6,27
 358 01fa DA67     		se_stw %r6,40(%r7)
 359              		.loc 1 219 0
 360 01fc DB57     		se_stw %r5,44(%r7)
 361              		.loc 1 221 0
 362 01fe 70C0E013 		e_lis %r6,0x13
 363              		.loc 1 220 0
 364 0202 DC57     		se_stw %r5,48(%r7)
 365              		.loc 1 221 0
 366 0204 65B6     		se_bseti %r6,27
 367 0206 DD67     		se_stw %r6,52(%r7)
 368              		.loc 1 222 0
 369 0208 DE67     		se_stw %r6,56(%r7)
 370              		.loc 1 223 0
 371 020a DF67     		se_stw %r6,60(%r7)
 372              		.loc 1 224 0
 373 020c 70C0E012 		e_lis %r6,0x12
 374 0210 65B6     		se_bseti %r6,27
 375 0212 54C70040 		e_stw %r6,64(%r7)
 376              		.loc 1 225 0
 377 0216 70C0E011 		e_lis %r6,0x11
 378 021a 65B6     		se_bseti %r6,27
 379 021c 54C70048 		e_stw %r6,72(%r7)
 380              		.loc 1 226 0
 381 0220 70C0E081 		e_lis %r6,0x81
 382 0224 18C6D01F 		e_ori %r6,%r6,31
 383 0228 54C70054 		e_stw %r6,84(%r7)
 384              		.loc 1 227 0
 385 022c C377     		se_lwz %r7,12(%r7)
 386 022e 67C7     		se_btsti %r7,28
 387 0230 7A0200CC 		e_bne %cr0,.L29
 388              	.L16:
 389              		.loc 1 233 0
 390 0234 4805     		se_li %r5,0
 391              	.LBB30:
 392              	.LBB31:
 393              		.loc 1 84 0
 394 0236 4813     		se_li %r3,1
 395              	.LBE31:
 396              	.LBE30:
 397              		.loc 1 234 0
 398 0238 70C000FC 		e_li %r6,252
 399              		.loc 1 233 0
GAS LISTING C:\Users\Shehan\AppData\Local\Temp\cc2rwzLQ.s 			page 8


 400 023c 70FEE7FB 		e_lis %r7,0xf7fb
 401              	.LBB35:
 402              	.LBB32:
 403              		.loc 1 83 0
 404 0240 709EE403 		e_lis %r4,0xf403
 405              	.LBE32:
 406              	.LBE35:
 407              		.loc 1 233 0
 408 0244 6507     		se_bseti %r7,16
 409              	.LBB36:
 410              	.LBB33:
 411              		.loc 1 83 0
 412 0246 6514     		se_bseti %r4,17
 413              	.LBE33:
 414              	.LBE36:
 415              		.loc 1 233 0
 416 0248 54A70080 		e_stw %r5,128(%r7)
 417              		.loc 1 234 0
 418 024c 54C70084 		e_stw %r6,132(%r7)
 419              		.loc 1 235 0
 420 0250 70C000F8 		e_li %r6,248
 421 0254 54C70088 		e_stw %r6,136(%r7)
 422              		.loc 1 236 0
 423 0258 54A7008C 		e_stw %r5,140(%r7)
 424              		.loc 1 242 0
 425 025c 70C40500 		e_li %r6,9472
 426              		.loc 1 237 0
 427 0260 54A70090 		e_stw %r5,144(%r7)
 428              		.loc 1 238 0
 429 0264 54A70094 		e_stw %r5,148(%r7)
 430              		.loc 1 239 0
 431 0268 54A70098 		e_stw %r5,152(%r7)
 432              		.loc 1 240 0
 433 026c 54A7009C 		e_stw %r5,156(%r7)
 434              		.loc 1 241 0
 435 0270 54A700A0 		e_stw %r5,160(%r7)
 436              		.loc 1 242 0
 437 0274 54C700A4 		e_stw %r6,164(%r7)
 438              		.loc 1 243 0
 439 0278 6376     		se_bgeni %r6,23
 440 027a 54C700A8 		e_stw %r6,168(%r7)
 441              		.loc 1 244 0
 442 027e 6356     		se_bgeni %r6,21
 443 0280 54C700AC 		e_stw %r6,172(%r7)
 444              		.loc 1 245 0
 445 0284 54A700B0 		e_stw %r5,176(%r7)
 446              	.LBB37:
 447              	.LBB38:
 448              		.loc 1 293 0
 449 0288 0176     		se_mr %r6,%r7
 450              	.LBE38:
 451              	.LBE37:
 452              		.loc 1 246 0
 453 028a 54A700B4 		e_stw %r5,180(%r7)
 454              		.loc 1 247 0
 455 028e 54A700B8 		e_stw %r5,184(%r7)
 456              		.loc 1 248 0
GAS LISTING C:\Users\Shehan\AppData\Local\Temp\cc2rwzLQ.s 			page 9


 457 0292 54A700BC 		e_stw %r5,188(%r7)
 458              	.LVL5:
 459              	.LBB40:
 460              	.LBB34:
 461              		.loc 1 83 0
 462 0296 C004     		se_lwz %r0,0(%r4)
 463 0298 74A06C24 		e_rlwimi %r0,%r5,13,16,18
 464 029c D004     		se_stw %r0,0(%r4)
 465              		.loc 1 84 0
 466 029e C054     		se_lwz %r5,0(%r4)
 467 02a0 746507FE 		e_rlwimi %r5,%r3,0,31,31
 468 02a4 D054     		se_stw %r5,0(%r4)
 469              		.loc 1 85 0
 470 02a6 C154     		se_lwz %r5,4(%r4)
 471 02a8 746507FE 		e_rlwimi %r5,%r3,0,31,31
 472              		.loc 1 94 0
 473 02ac 4823     		se_li %r3,2
 474              		.loc 1 85 0
 475 02ae D154     		se_stw %r5,4(%r4)
 476              		.loc 1 94 0
 477 02b0 C054     		se_lwz %r5,0(%r4)
 478 02b2 746544EE 		e_rlwimi %r5,%r3,8,19,23
 479              		.loc 1 96 0
 480 02b6 4843     		se_li %r3,4
 481              		.loc 1 94 0
 482 02b8 D054     		se_stw %r5,0(%r4)
 483              		.loc 1 96 0
 484 02ba C054     		se_lwz %r5,0(%r4)
 485 02bc 74656C24 		e_rlwimi %r5,%r3,13,16,18
 486 02c0 D054     		se_stw %r5,0(%r4)
 487              	.LVL6:
 488              	.LBE34:
 489              	.LBE40:
 490              	.LBB41:
 491              	.LBB39:
 492              		.loc 1 286 0
 493 02c2 4BF5     		se_li %r5,63
 494 02c4 D357     		se_stw %r5,12(%r7)
 495              		.loc 1 289 0
 496 02c6 70A6E000 		e_lis %r5,0x3000
 497 02ca 70ABC2F0 		e_or2i %r5,23280
 498 02ce D157     		se_stw %r5,4(%r7)
 499              		.loc 1 290 0
 500 02d0 70A6E000 		e_lis %r5,0x3000
 501 02d4 70B4C50F 		e_or2i %r5,42255
 502 02d8 D157     		se_stw %r5,4(%r7)
 503              	.L17:
 504              		.loc 1 293 0
 505 02da C376     		se_lwz %r7,12(%r6)
 506 02dc 2A07     		se_cmpi %r7,0
 507 02de 7A12FFFC 		e_beq %cr0,.L17
 508              		.loc 1 297 0
 509 02e2 C376     		se_lwz %r7,12(%r6)
 510 02e4 67F7     		se_btsti %r7,31
 511 02e6 7A02000E 		e_bne %cr0,.L30
 512              	.LBE39:
 513              	.LBE41:
GAS LISTING C:\Users\Shehan\AppData\Local\Temp\cc2rwzLQ.s 			page 10


 514              		.loc 1 260 0
 515 02ea C301     		se_lwz %r0,12(%r1)
 516 02ec 0090     		se_mtlr %r0
 517              		.cfi_remember_state
 518              		.cfi_restore 65
 519 02ee 2071     		se_addi %r1,8
 520              	.LCFI1:
 521              		.cfi_def_cfa_offset 0
 522              		.loc 1 256 0
 523 02f0 78000000 		e_b irqSysHalt
 524              	.LVL7:
 525              	.L30:
 526              	.LCFI2:
 527              		.cfi_restore_state
 528              		.loc 1 260 0
 529 02f4 C301     		se_lwz %r0,12(%r1)
 530 02f6 0090     		se_mtlr %r0
 531              		.cfi_remember_state
 532              		.cfi_restore 65
 533 02f8 2071     		se_addi %r1,8
 534              	.LCFI3:
 535              		.cfi_def_cfa_offset 0
 536 02fa 0004     		se_blr
 537              	.LVL8:
 538              	.L29:
 539              	.LCFI4:
 540              		.cfi_restore_state
 541              		.loc 1 229 0
 542 02fc 78000001 		e_bl irqSysHalt
 543              	.LVL9:
 544 0300 79FFFF34 		e_b .L16
 545              		.cfi_endproc
 546              	.LFE5:
 547              		.size	spc_clock_init, .-spc_clock_init
 548              		.section	.text.__early_init,"axv",@progbits
 549              		.align 1
 550              		.p2align 4,,15
 551              		.globl __early_init
 552              		.type	__early_init, @function
 553              	__early_init:
 554              	.LFB6:
 555              		.loc 1 269 0
 556              		.cfi_startproc
 557              		.loc 1 272 0
 558              		.loc 1 271 0
 559 0000 78000000 		e_b spc_clock_init
 560              	.LVL10:
 561              		.cfi_endproc
 562              	.LFE6:
 563              		.size	__early_init, .-__early_init
 564              		.section	.text.SPCSetRunMode,"axv",@progbits
 565              		.align 1
 566              		.p2align 4,,15
 567              		.globl SPCSetRunMode
 568              		.type	SPCSetRunMode, @function
 569              	SPCSetRunMode:
 570              	.LFB7:
GAS LISTING C:\Users\Shehan\AppData\Local\Temp\cc2rwzLQ.s 			page 11


 571              		.loc 1 283 0
 572              		.cfi_startproc
 573              	.LVL11:
 574              		.loc 1 289 0
 575 0000 6DC3     		se_slwi %r3, 28
 576              	.LVL12:
 577              		.loc 1 286 0
 578 0002 70FEE7FB 		e_lis %r7,0xf7fb
 579              		.loc 1 289 0
 580 0006 0136     		se_mr %r6,%r3
 581              		.loc 1 286 0
 582 0008 6507     		se_bseti %r7,16
 583              		.loc 1 289 0
 584 000a 70CBC2F0 		e_or2i %r6,23280
 585              		.loc 1 286 0
 586 000e 4BF5     		se_li %r5,63
 587              		.loc 1 290 0
 588 0010 7074C50F 		e_or2i %r3,42255
 589              		.loc 1 286 0
 590 0014 D357     		se_stw %r5,12(%r7)
 591              		.loc 1 289 0
 592 0016 D167     		se_stw %r6,4(%r7)
 593              		.loc 1 293 0
 594 0018 0176     		se_mr %r6,%r7
 595              		.loc 1 290 0
 596 001a D137     		se_stw %r3,4(%r7)
 597              	.L33:
 598              		.loc 1 293 0 discriminator 1
 599 001c C376     		se_lwz %r7,12(%r6)
 600 001e 2A07     		se_cmpi %r7,0
 601 0020 7A12FFFC 		e_beq %cr0,.L33
 602              		.loc 1 297 0
 603 0024 C336     		se_lwz %r3,12(%r6)
 604 0026 2E13     		se_andi %r3,1
 605              		.loc 1 302 0
 606 0028 1863E001 		e_xori %r3,%r3,1
 607 002c 0004     		se_blr
 608              		.cfi_endproc
 609              	.LFE7:
 610              		.size	SPCSetRunMode, .-SPCSetRunMode
 611              		.section	.text.SPCSetPeripheralClockMode,"axv",@progbits
 612              		.align 1
 613              		.p2align 4,,15
 614              		.globl SPCSetPeripheralClockMode
 615              		.type	SPCSetPeripheralClockMode, @function
 616              	SPCSetPeripheralClockMode:
 617              	.LFB8:
 618              		.loc 1 312 0
 619              		.cfi_startproc
 620              	.LVL13:
 621              		.loc 1 315 0
 622 0000 00C4     		se_extzb %r4
 623              	.LVL14:
 624 0002 70FEE7FB 		e_lis %r7,0xf7fb
 625 0006 6507     		se_bseti %r7,16
 626 0008 7C671A14 		add %r3,%r7,%r3
 627              	.LVL15:
GAS LISTING C:\Users\Shehan\AppData\Local\Temp\cc2rwzLQ.s 			page 12


 628              	.LBB42:
 629              	.LBB43:
 630              		.loc 1 293 0
 631 000c 0176     		se_mr %r6,%r7
 632              	.LBE43:
 633              	.LBE42:
 634              		.loc 1 315 0
 635 000e 348300C0 		e_stb %r4,192(%r3)
 636              	.LBB46:
 637              	.LBB44:
 638              		.loc 1 286 0
 639 0012 4BF4     		se_li %r4,63
 640              	.LBE44:
 641              	.LBE46:
 642              		.loc 1 316 0
 643 0014 C157     		se_lwz %r5,4(%r7)
 644              	.LVL16:
 645              	.LBB47:
 646              	.LBB45:
 647              		.loc 1 286 0
 648 0016 D347     		se_stw %r4,12(%r7)
 649              		.loc 1 289 0
 650 0018 18A5C3F0 		e_andi %r5,%r5,-268435456
 651              	.LVL17:
 652 001c 0154     		se_mr %r4,%r5
 653              		.loc 1 290 0
 654 001e 70B4C50F 		e_or2i %r5,42255
 655              		.loc 1 289 0
 656 0022 708BC2F0 		e_or2i %r4,23280
 657 0026 D147     		se_stw %r4,4(%r7)
 658              		.loc 1 290 0
 659 0028 D157     		se_stw %r5,4(%r7)
 660              	.L36:
 661              		.loc 1 293 0
 662 002a C376     		se_lwz %r7,12(%r6)
 663 002c 2A07     		se_cmpi %r7,0
 664 002e 7A12FFFC 		e_beq %cr0,.L36
 665              		.loc 1 297 0
 666 0032 C376     		se_lwz %r7,12(%r6)
 667 0034 67F7     		se_btsti %r7,31
 668 0036 7A020008 		e_bne %cr0,.L39
 669              	.LBE45:
 670              	.LBE47:
 671              		.loc 1 320 0
 672              		.loc 1 318 0
 673 003a 78000000 		e_b irqSysHalt
 674              	.LVL18:
 675              	.L39:
 676 003e 0004     		se_blr
 677              		.cfi_endproc
 678              	.LFE8:
 679              		.size	SPCSetPeripheralClockMode, .-SPCSetPeripheralClockMode
 680              		.section	.text.SPCGetSystemClock,"axv",@progbits
 681              		.align 1
 682              		.p2align 4,,15
 683              		.globl SPCGetSystemClock
 684              		.type	SPCGetSystemClock, @function
GAS LISTING C:\Users\Shehan\AppData\Local\Temp\cc2rwzLQ.s 			page 13


 685              	SPCGetSystemClock:
 686              	.LFB9:
 687              		.loc 1 328 0
 688              		.cfi_startproc
 689              		.loc 1 332 0
 690 0000 70DEE7FB 		e_lis %r6,0xf7fb
 691              		.loc 1 333 0
 692 0004 4813     		se_li %r3,1
 693              		.loc 1 332 0
 694 0006 18C6D106 		e_ori %r6,%r6,1536
 695 000a 50E601E8 		e_lwz %r7,488(%r6)
 696 000e 2A07     		se_cmpi %r7,0
 697 0010 7A00000E 		e_bge %cr0,.L41
 698              		.loc 1 335 0
 699 0014 506601E8 		e_lwz %r3,488(%r6)
 700 0018 746386BF 		e_rlwinm %r3,%r3,16,26,31
 701 001c 2003     		se_addi %r3,1
 702              	.LVL19:
 703              	.L41:
 704              		.loc 1 338 0
 705 001e 70FEE7FB 		e_lis %r7,0xf7fb
 706 0022 6507     		se_bseti %r7,16
 707 0024 C077     		se_lwz %r7,0(%r7)
 708 0026 2EF7     		se_andi %r7,15
 709              	.LVL20:
 710              		.loc 1 339 0
 711 0028 2237     		se_cmpli %r7,4
 712 002a 7A110052 		e_bgt %cr0,.L49
 713 002e 6C27     		se_slwi %r7, 2
 714              	.LVL21:
 715 0030 70C0E000 		e_lis %r6,.L44@ha
 716 0034 1CC60000 		e_la %r6,.L44@l(%r6)
 717 0038 7CE6382E 		lwzx %r7,%r6,%r7
 718 003c 7CC73214 		add %r6,%r7,%r6
 719 0040 00B6     		se_mtctr %r6
 720 0042 0006     		se_bctr
 721              		.section	.rodata.SPCGetSystemClock,"a",@progbits
 722              		.align 2
 723              		.align 2
 724              	.L44:
 725 0000 00000000 		.long .L43-.L44
 726 0004 00000000 		.long .L45-.L44
 727 0008 00000000 		.long .L46-.L44
 728 000c 00000000 		.long .L49-.L44
 729 0010 00000000 		.long .L47-.L44
 730              		.section	.text.SPCGetSystemClock
 731              	.L47:
 732              		.loc 1 347 0
 733 0044 70E0E4C4 		e_lis %r7,0x4c4
 734 0048 18E7D1B4 		e_ori %r7,%r7,46080
 735 004c 7C671B96 		divwu %r3,%r7,%r3
 736              	.LVL22:
 737 0050 0004     		se_blr
 738              	.LVL23:
 739              	.L46:
 740              		.loc 1 345 0
 741 0052 70E2E312 		e_lis %r7,0x1312
GAS LISTING C:\Users\Shehan\AppData\Local\Temp\cc2rwzLQ.s 			page 14


 742 0056 18E7D1D0 		e_ori %r7,%r7,53248
 743 005a 7C671B96 		divwu %r3,%r7,%r3
 744              	.LVL24:
 745 005e 0004     		se_blr
 746              	.LVL25:
 747              	.L45:
 748              		.loc 1 343 0
 749 0060 70E0E262 		e_lis %r7,0x262
 750 0064 18E7D15A 		e_ori %r7,%r7,23040
 751 0068 7C671B96 		divwu %r3,%r7,%r3
 752              	.LVL26:
 753 006c 0004     		se_blr
 754              	.LVL27:
 755              	.L43:
 756              		.loc 1 341 0
 757 006e 70E0E0F4 		e_lis %r7,0xf4
 758 0072 18E7D124 		e_ori %r7,%r7,9216
 759 0076 7C671B96 		divwu %r3,%r7,%r3
 760              	.LVL28:
 761 007a 0004     		se_blr
 762              	.LVL29:
 763              	.L49:
 764              		.loc 1 349 0
 765 007c 4803     		se_li %r3,0
 766              	.LVL30:
 767              		.loc 1 351 0
 768 007e 0004     		se_blr
 769              		.cfi_endproc
 770              	.LFE9:
 771              		.size	SPCGetSystemClock, .-SPCGetSystemClock
 772              		.section	".text","axv"
 773              	.Letext0:
 774              		.file 2 "c:\\users\\shehan\\documents\\environments\\spc5_env\\toolchain\\powerpc-eabivle\\include
 775              		.file 3 "c:\\users\\shehan\\documents\\environments\\spc5_env\\toolchain\\powerpc-eabivle\\include
 776              		.file 4 "./components/spc582bxx_platform_component_rla/lib/include/typedefs.h"
 777              		.file 5 "./components/spc582bxx_platform_component_rla/lib/include/spc582b.h"
 778              		.file 6 "./components/spc582bxx_irq_component_rla/lib/include/irq.h"