GAS LISTING C:\Users\Shehan\AppData\Local\Temp\ccm7OZO0.s 			page 1


   1              		.file	"eirq.c"
   2              		.section	".text","axv"
   3              	.Ltext0:
   4              		.cfi_sections	.debug_frame
   5              		.section	.text.manage_eirq_interrupt,"axv",@progbits
   6              		.align 1
   7              		.p2align 4,,15
   8              		.globl manage_eirq_interrupt
   9              		.type	manage_eirq_interrupt, @function
  10              	manage_eirq_interrupt:
  11              	.LFB2:
  12              		.file 1 "./components/spc582bxx_irq_component_rla/lib/src/eirq.c"
  13              		.loc 1 41 0
  14              		.cfi_startproc
  15              	.LVL0:
  16 0000 182106E8 		e_stwu %r1,-24(%r1)
  17              	.LCFI0:
  18              		.cfi_def_cfa_offset 24
  19 0004 0080     		se_mflr %r0
  20 0006 1B810908 		e_stmw %r28,8(%r1)
  21 000a D701     		se_stw %r0,28(%r1)
  22              		.cfi_offset 65, 4
  23              		.cfi_offset 28, -16
  24              		.cfi_offset 29, -12
  25              		.cfi_offset 30, -8
  26              		.cfi_offset 31, -4
  27              		.loc 1 44 0
  28 000c 73C0E000 		e_lis %r30,eirqconf@ha
  29 0010 4806     		se_li %r6,0
  30 0012 30FE0000 		e_lbz %r7,eirqconf@l(%r30)
  31 0016 480F     		se_li %r31,0
  32 0018 00D7     		se_extsb %r7
  33 001a 73E79FFF 		e_cmp16i %r7,-1
  34 001e 7A120056 		e_beq %cr0,.L1
  35 0022 013D     		se_mr %r29,%r3
  36              		.loc 1 47 0
  37 0024 1FDE0000 		e_la %r30,eirqconf@l(%r30)
  38              		.loc 1 44 0
  39 0028 2C0C     		se_bmaski %r28,0
  40 002a 7800001A 		e_b .L6
  41              	.LVL1:
  42              	.L3:
  43              		.loc 1 51 0
  44 002e 200F     		se_addi %r31,1
  45              	.LVL2:
  46 0030 00CF     		se_extzb %r31
  47              	.LVL3:
  48              		.loc 1 44 0
  49 0032 7FE71870 		e_slwi %r7,%r31,3
  50 0036 01F6     		se_mr %r6,%r31
  51 0038 7CFE38AE 		lbzx %r7,%r30,%r7
  52 003c 00D7     		se_extsb %r7
  53 003e 0CC7     		se_cmp %r7,%r28
  54 0040 7A120034 		e_beq %cr0,.L1
  55              	.LVL4:
  56              	.L6:
  57              		.loc 1 45 0
GAS LISTING C:\Users\Shehan\AppData\Local\Temp\ccm7OZO0.s 			page 2


  58 0044 00C7     		se_extzb %r7
  59 0046 0CD7     		se_cmp %r7,%r29
  60 0048 7A02FFE6 		e_bne %cr0,.L3
  61              		.loc 1 47 0
  62 004c 6C36     		se_slwi %r6, 3
  63 004e 7CDE3214 		add %r6,%r30,%r6
  64 0052 C176     		se_lwz %r7,4(%r6)
  65 0054 2A07     		se_cmpi %r7,0
  66 0056 7A12FFD8 		e_beq %cr0,.L3
  67              		.loc 1 48 0
  68 005a 00B7     		se_mtctr %r7
  69              		.loc 1 51 0
  70 005c 200F     		se_addi %r31,1
  71              	.LVL5:
  72 005e 00CF     		se_extzb %r31
  73              	.LVL6:
  74              		.loc 1 48 0
  75 0060 0007     		se_bctrl
  76              	.LVL7:
  77              		.loc 1 44 0
  78 0062 7FE71870 		e_slwi %r7,%r31,3
  79 0066 01F6     		se_mr %r6,%r31
  80 0068 7CFE38AE 		lbzx %r7,%r30,%r7
  81 006c 00D7     		se_extsb %r7
  82 006e 0CC7     		se_cmp %r7,%r28
  83 0070 7A02FFD4 		e_bne %cr0,.L6
  84              	.LVL8:
  85              	.L1:
  86              		.loc 1 53 0
  87 0074 C701     		se_lwz %r0,28(%r1)
  88 0076 0090     		se_mtlr %r0
  89              		.cfi_restore 65
  90 0078 1B810808 		e_lmw %r28,8(%r1)
  91 007c 2171     		se_addi %r1,24
  92              	.LCFI1:
  93              		.cfi_restore 31
  94              		.cfi_restore 30
  95              		.cfi_restore 29
  96              		.cfi_restore 28
  97              		.cfi_def_cfa_offset 0
  98 007e 0004     		se_blr
  99              		.cfi_endproc
 100              	.LFE2:
 101              		.size	manage_eirq_interrupt, .-manage_eirq_interrupt
 102              		.section	.text.vector243,"axv",@progbits
 103              		.align 1
 104              		.p2align 4,,15
 105              		.globl vector243
 106              		.type	vector243, @function
 107              	vector243:
 108              	.LFB3:
 109              		.loc 1 65 0
 110              		.cfi_startproc
 111              	.LVL9:
 112 0000 182106D0 		e_stwu %r1,-48(%r1)
 113              	.LCFI2:
 114              		.cfi_def_cfa_offset 48
GAS LISTING C:\Users\Shehan\AppData\Local\Temp\ccm7OZO0.s 			page 3


 115 0004 0080     		se_mflr %r0
 116 0006 1AE1090C 		e_stmw %r23,12(%r1)
 117 000a DD01     		se_stw %r0,52(%r1)
 118              		.cfi_offset 65, 4
 119              		.cfi_offset 23, -36
 120              		.cfi_offset 24, -32
 121              		.cfi_offset 25, -28
 122              		.cfi_offset 26, -24
 123              		.cfi_offset 27, -20
 124              		.cfi_offset 28, -16
 125              		.cfi_offset 29, -12
 126              		.cfi_offset 30, -8
 127              		.cfi_offset 31, -4
 128              	.LBB10:
 129              	.LBB11:
 130              		.loc 1 44 0
 131 000c 73C0E000 		e_lis %r30,eirqconf@ha
 132              	.LBE11:
 133              	.LBE10:
 134              		.loc 1 65 0
 135 0010 480D     		se_li %r29,0
 136              		.loc 1 72 0
 137 0012 739EE7FC 		e_lis %r28,0xf7fc
 138              	.LBB14:
 139              	.LBB12:
 140              		.loc 1 44 0
 141 0016 1FDE0000 		e_la %r30,eirqconf@l(%r30)
 142 001a 2C09     		se_bmaski %r25,0
 143 001c 480A     		se_li %r26,0
 144              	.LBE12:
 145              	.LBE14:
 146              		.loc 1 76 0
 147 001e 72E00001 		e_li %r23,1
 148              	.LVL10:
 149              	.L15:
 150              		.loc 1 72 0
 151 0022 C47C     		se_lwz %r7,16(%r28)
 152 0024 77B8063F 		e_rlwinm %r24,%r29,0,0xff
 153              	.LVL11:
 154 0028 40D7     		se_srw %r7,%r29
 155 002a 01DB     		se_mr %r27,%r29
 156 002c 67F7     		se_btsti %r7,31
 157 002e 7A120062 		e_beq %cr0,.L10
 158              	.LVL12:
 159              	.LBB15:
 160              	.LBB13:
 161              		.loc 1 44 0
 162 0032 807E     		se_lbz %r7,0(%r30)
 163 0034 01AF     		se_mr %r31,%r26
 164 0036 00D7     		se_extsb %r7
 165 0038 01A6     		se_mr %r6,%r26
 166 003a 0C97     		se_cmp %r7,%r25
 167 003c 7A02001E 		e_bne %cr0,.L16
 168 0040 7800004A 		e_b .L14
 169              	.LVL13:
 170              	.L12:
 171              		.loc 1 51 0
GAS LISTING C:\Users\Shehan\AppData\Local\Temp\ccm7OZO0.s 			page 4


 172 0044 200F     		se_addi %r31,1
 173              	.LVL14:
 174 0046 00CF     		se_extzb %r31
 175              	.LVL15:
 176              		.loc 1 44 0
 177 0048 7FE71870 		e_slwi %r7,%r31,3
 178 004c 01F6     		se_mr %r6,%r31
 179 004e 7CFE38AE 		lbzx %r7,%r30,%r7
 180 0052 00D7     		se_extsb %r7
 181 0054 0C97     		se_cmp %r7,%r25
 182 0056 7A120034 		e_beq %cr0,.L14
 183              	.LVL16:
 184              	.L16:
 185              		.loc 1 45 0
 186 005a 00C7     		se_extzb %r7
 187 005c 0C78     		se_cmp %r24,%r7
 188 005e 7A02FFE6 		e_bne %cr0,.L12
 189              		.loc 1 47 0
 190 0062 6C36     		se_slwi %r6, 3
 191 0064 7CDE3214 		add %r6,%r30,%r6
 192 0068 C176     		se_lwz %r7,4(%r6)
 193 006a 2A07     		se_cmpi %r7,0
 194 006c 7A12FFD8 		e_beq %cr0,.L12
 195              		.loc 1 48 0
 196 0070 00B7     		se_mtctr %r7
 197              		.loc 1 51 0
 198 0072 200F     		se_addi %r31,1
 199              	.LVL17:
 200 0074 00CF     		se_extzb %r31
 201              	.LVL18:
 202              		.loc 1 48 0
 203 0076 0007     		se_bctrl
 204              	.LVL19:
 205              		.loc 1 44 0
 206 0078 7FE71870 		e_slwi %r7,%r31,3
 207 007c 01F6     		se_mr %r6,%r31
 208 007e 7CFE38AE 		lbzx %r7,%r30,%r7
 209 0082 00D7     		se_extsb %r7
 210 0084 0C97     		se_cmp %r7,%r25
 211 0086 7A02FFD4 		e_bne %cr0,.L16
 212              	.LVL20:
 213              	.L14:
 214              	.LBE13:
 215              	.LBE15:
 216              		.loc 1 76 0
 217 008a 7EE7D830 		slw %r7,%r23,%r27
 218 008e D47C     		se_stw %r7,16(%r28)
 219              	.L10:
 220              	.LVL21:
 221 0090 200D     		se_addi %r29,1
 222              		.loc 1 70 0 discriminator 2
 223 0092 223D     		se_cmpli %r29,4
 224 0094 7A02FF8E 		e_bne %cr0,.L15
 225              		.loc 1 81 0
 226 0098 CD01     		se_lwz %r0,52(%r1)
 227 009a 0090     		se_mtlr %r0
 228              		.cfi_restore 65
GAS LISTING C:\Users\Shehan\AppData\Local\Temp\ccm7OZO0.s 			page 5


 229 009c 1AE1080C 		e_lmw %r23,12(%r1)
 230              	.LVL22:
 231 00a0 18218030 		e_addi %r1,%r1,48
 232              	.LCFI3:
 233              		.cfi_restore 31
 234              		.cfi_restore 30
 235              		.cfi_restore 29
 236              		.cfi_restore 28
 237              		.cfi_restore 27
 238              		.cfi_restore 26
 239              		.cfi_restore 25
 240              		.cfi_restore 24
 241              		.cfi_restore 23
 242              		.cfi_def_cfa_offset 0
 243 00a4 0004     		se_blr
 244              		.cfi_endproc
 245              	.LFE3:
 246              		.size	vector243, .-vector243
 247              		.section	.text.vector244,"axv",@progbits
 248              		.align 1
 249              		.p2align 4,,15
 250              		.globl vector244
 251              		.type	vector244, @function
 252              	vector244:
 253              	.LFB4:
 254              		.loc 1 90 0
 255              		.cfi_startproc
 256              	.LVL23:
 257 0000 182106D0 		e_stwu %r1,-48(%r1)
 258              	.LCFI4:
 259              		.cfi_def_cfa_offset 48
 260 0004 0080     		se_mflr %r0
 261 0006 1AE1090C 		e_stmw %r23,12(%r1)
 262 000a DD01     		se_stw %r0,52(%r1)
 263              		.cfi_offset 65, 4
 264              		.cfi_offset 23, -36
 265              		.cfi_offset 24, -32
 266              		.cfi_offset 25, -28
 267              		.cfi_offset 26, -24
 268              		.cfi_offset 27, -20
 269              		.cfi_offset 28, -16
 270              		.cfi_offset 29, -12
 271              		.cfi_offset 30, -8
 272              		.cfi_offset 31, -4
 273              	.LBB16:
 274              	.LBB17:
 275              		.loc 1 44 0
 276 000c 73C0E000 		e_lis %r30,eirqconf@ha
 277              	.LBE17:
 278              	.LBE16:
 279              		.loc 1 90 0
 280 0010 484D     		se_li %r29,4
 281              		.loc 1 97 0
 282 0012 739EE7FC 		e_lis %r28,0xf7fc
 283              	.LBB20:
 284              	.LBB18:
 285              		.loc 1 44 0
GAS LISTING C:\Users\Shehan\AppData\Local\Temp\ccm7OZO0.s 			page 6


 286 0016 1FDE0000 		e_la %r30,eirqconf@l(%r30)
 287 001a 2C09     		se_bmaski %r25,0
 288 001c 480A     		se_li %r26,0
 289              	.LBE18:
 290              	.LBE20:
 291              		.loc 1 101 0
 292 001e 72E00001 		e_li %r23,1
 293              	.LVL24:
 294              	.L25:
 295              		.loc 1 97 0
 296 0022 C47C     		se_lwz %r7,16(%r28)
 297 0024 77B8063F 		e_rlwinm %r24,%r29,0,0xff
 298              	.LVL25:
 299 0028 40D7     		se_srw %r7,%r29
 300 002a 01DB     		se_mr %r27,%r29
 301 002c 67F7     		se_btsti %r7,31
 302 002e 7A120062 		e_beq %cr0,.L20
 303              	.LVL26:
 304              	.LBB21:
 305              	.LBB19:
 306              		.loc 1 44 0
 307 0032 807E     		se_lbz %r7,0(%r30)
 308 0034 01AF     		se_mr %r31,%r26
 309 0036 00D7     		se_extsb %r7
 310 0038 01A6     		se_mr %r6,%r26
 311 003a 0C97     		se_cmp %r7,%r25
 312 003c 7A02001E 		e_bne %cr0,.L26
 313 0040 7800004A 		e_b .L24
 314              	.LVL27:
 315              	.L22:
 316              		.loc 1 51 0
 317 0044 200F     		se_addi %r31,1
 318              	.LVL28:
 319 0046 00CF     		se_extzb %r31
 320              	.LVL29:
 321              		.loc 1 44 0
 322 0048 7FE71870 		e_slwi %r7,%r31,3
 323 004c 01F6     		se_mr %r6,%r31
 324 004e 7CFE38AE 		lbzx %r7,%r30,%r7
 325 0052 00D7     		se_extsb %r7
 326 0054 0C97     		se_cmp %r7,%r25
 327 0056 7A120034 		e_beq %cr0,.L24
 328              	.LVL30:
 329              	.L26:
 330              		.loc 1 45 0
 331 005a 00C7     		se_extzb %r7
 332 005c 0C78     		se_cmp %r24,%r7
 333 005e 7A02FFE6 		e_bne %cr0,.L22
 334              		.loc 1 47 0
 335 0062 6C36     		se_slwi %r6, 3
 336 0064 7CDE3214 		add %r6,%r30,%r6
 337 0068 C176     		se_lwz %r7,4(%r6)
 338 006a 2A07     		se_cmpi %r7,0
 339 006c 7A12FFD8 		e_beq %cr0,.L22
 340              		.loc 1 48 0
 341 0070 00B7     		se_mtctr %r7
 342              		.loc 1 51 0
GAS LISTING C:\Users\Shehan\AppData\Local\Temp\ccm7OZO0.s 			page 7


 343 0072 200F     		se_addi %r31,1
 344              	.LVL31:
 345 0074 00CF     		se_extzb %r31
 346              	.LVL32:
 347              		.loc 1 48 0
 348 0076 0007     		se_bctrl
 349              	.LVL33:
 350              		.loc 1 44 0
 351 0078 7FE71870 		e_slwi %r7,%r31,3
 352 007c 01F6     		se_mr %r6,%r31
 353 007e 7CFE38AE 		lbzx %r7,%r30,%r7
 354 0082 00D7     		se_extsb %r7
 355 0084 0C97     		se_cmp %r7,%r25
 356 0086 7A02FFD4 		e_bne %cr0,.L26
 357              	.LVL34:
 358              	.L24:
 359              	.LBE19:
 360              	.LBE21:
 361              		.loc 1 101 0
 362 008a 7EE7D830 		slw %r7,%r23,%r27
 363 008e D47C     		se_stw %r7,16(%r28)
 364              	.L20:
 365              	.LVL35:
 366 0090 200D     		se_addi %r29,1
 367              		.loc 1 95 0 discriminator 2
 368 0092 227D     		se_cmpli %r29,8
 369 0094 7A02FF8E 		e_bne %cr0,.L25
 370              		.loc 1 106 0
 371 0098 CD01     		se_lwz %r0,52(%r1)
 372 009a 0090     		se_mtlr %r0
 373              		.cfi_restore 65
 374 009c 1AE1080C 		e_lmw %r23,12(%r1)
 375              	.LVL36:
 376 00a0 18218030 		e_addi %r1,%r1,48
 377              	.LCFI5:
 378              		.cfi_restore 31
 379              		.cfi_restore 30
 380              		.cfi_restore 29
 381              		.cfi_restore 28
 382              		.cfi_restore 27
 383              		.cfi_restore 26
 384              		.cfi_restore 25
 385              		.cfi_restore 24
 386              		.cfi_restore 23
 387              		.cfi_def_cfa_offset 0
 388 00a4 0004     		se_blr
 389              		.cfi_endproc
 390              	.LFE4:
 391              		.size	vector244, .-vector244
 392              		.section	.text.vector245,"axv",@progbits
 393              		.align 1
 394              		.p2align 4,,15
 395              		.globl vector245
 396              		.type	vector245, @function
 397              	vector245:
 398              	.LFB5:
 399              		.loc 1 115 0
GAS LISTING C:\Users\Shehan\AppData\Local\Temp\ccm7OZO0.s 			page 8


 400              		.cfi_startproc
 401              	.LVL37:
 402 0000 182106D0 		e_stwu %r1,-48(%r1)
 403              	.LCFI6:
 404              		.cfi_def_cfa_offset 48
 405 0004 0080     		se_mflr %r0
 406 0006 1AE1090C 		e_stmw %r23,12(%r1)
 407 000a DD01     		se_stw %r0,52(%r1)
 408              		.cfi_offset 65, 4
 409              		.cfi_offset 23, -36
 410              		.cfi_offset 24, -32
 411              		.cfi_offset 25, -28
 412              		.cfi_offset 26, -24
 413              		.cfi_offset 27, -20
 414              		.cfi_offset 28, -16
 415              		.cfi_offset 29, -12
 416              		.cfi_offset 30, -8
 417              		.cfi_offset 31, -4
 418              	.LBB22:
 419              	.LBB23:
 420              		.loc 1 44 0
 421 000c 73C0E000 		e_lis %r30,eirqconf@ha
 422              	.LBE23:
 423              	.LBE22:
 424              		.loc 1 115 0
 425 0010 488D     		se_li %r29,8
 426              		.loc 1 122 0
 427 0012 739EE7FC 		e_lis %r28,0xf7fc
 428              	.LBB26:
 429              	.LBB24:
 430              		.loc 1 44 0
 431 0016 1FDE0000 		e_la %r30,eirqconf@l(%r30)
 432 001a 2C09     		se_bmaski %r25,0
 433 001c 480A     		se_li %r26,0
 434              	.LBE24:
 435              	.LBE26:
 436              		.loc 1 126 0
 437 001e 72E00001 		e_li %r23,1
 438              	.LVL38:
 439              	.L35:
 440              		.loc 1 122 0
 441 0022 C47C     		se_lwz %r7,16(%r28)
 442 0024 77B8063F 		e_rlwinm %r24,%r29,0,0xff
 443              	.LVL39:
 444 0028 40D7     		se_srw %r7,%r29
 445 002a 01DB     		se_mr %r27,%r29
 446 002c 67F7     		se_btsti %r7,31
 447 002e 7A120062 		e_beq %cr0,.L30
 448              	.LVL40:
 449              	.LBB27:
 450              	.LBB25:
 451              		.loc 1 44 0
 452 0032 807E     		se_lbz %r7,0(%r30)
 453 0034 01AF     		se_mr %r31,%r26
 454 0036 00D7     		se_extsb %r7
 455 0038 01A6     		se_mr %r6,%r26
 456 003a 0C97     		se_cmp %r7,%r25
GAS LISTING C:\Users\Shehan\AppData\Local\Temp\ccm7OZO0.s 			page 9


 457 003c 7A02001E 		e_bne %cr0,.L36
 458 0040 7800004A 		e_b .L34
 459              	.LVL41:
 460              	.L32:
 461              		.loc 1 51 0
 462 0044 200F     		se_addi %r31,1
 463              	.LVL42:
 464 0046 00CF     		se_extzb %r31
 465              	.LVL43:
 466              		.loc 1 44 0
 467 0048 7FE71870 		e_slwi %r7,%r31,3
 468 004c 01F6     		se_mr %r6,%r31
 469 004e 7CFE38AE 		lbzx %r7,%r30,%r7
 470 0052 00D7     		se_extsb %r7
 471 0054 0C97     		se_cmp %r7,%r25
 472 0056 7A120034 		e_beq %cr0,.L34
 473              	.LVL44:
 474              	.L36:
 475              		.loc 1 45 0
 476 005a 00C7     		se_extzb %r7
 477 005c 0C78     		se_cmp %r24,%r7
 478 005e 7A02FFE6 		e_bne %cr0,.L32
 479              		.loc 1 47 0
 480 0062 6C36     		se_slwi %r6, 3
 481 0064 7CDE3214 		add %r6,%r30,%r6
 482 0068 C176     		se_lwz %r7,4(%r6)
 483 006a 2A07     		se_cmpi %r7,0
 484 006c 7A12FFD8 		e_beq %cr0,.L32
 485              		.loc 1 48 0
 486 0070 00B7     		se_mtctr %r7
 487              		.loc 1 51 0
 488 0072 200F     		se_addi %r31,1
 489              	.LVL45:
 490 0074 00CF     		se_extzb %r31
 491              	.LVL46:
 492              		.loc 1 48 0
 493 0076 0007     		se_bctrl
 494              	.LVL47:
 495              		.loc 1 44 0
 496 0078 7FE71870 		e_slwi %r7,%r31,3
 497 007c 01F6     		se_mr %r6,%r31
 498 007e 7CFE38AE 		lbzx %r7,%r30,%r7
 499 0082 00D7     		se_extsb %r7
 500 0084 0C97     		se_cmp %r7,%r25
 501 0086 7A02FFD4 		e_bne %cr0,.L36
 502              	.LVL48:
 503              	.L34:
 504              	.LBE25:
 505              	.LBE27:
 506              		.loc 1 126 0
 507 008a 7EE7D830 		slw %r7,%r23,%r27
 508 008e D47C     		se_stw %r7,16(%r28)
 509              	.L30:
 510              	.LVL49:
 511 0090 200D     		se_addi %r29,1
 512              		.loc 1 120 0 discriminator 2
 513 0092 22BD     		se_cmpli %r29,12
GAS LISTING C:\Users\Shehan\AppData\Local\Temp\ccm7OZO0.s 			page 10


 514 0094 7A02FF8E 		e_bne %cr0,.L35
 515              		.loc 1 131 0
 516 0098 CD01     		se_lwz %r0,52(%r1)
 517 009a 0090     		se_mtlr %r0
 518              		.cfi_restore 65
 519 009c 1AE1080C 		e_lmw %r23,12(%r1)
 520              	.LVL50:
 521 00a0 18218030 		e_addi %r1,%r1,48
 522              	.LCFI7:
 523              		.cfi_restore 31
 524              		.cfi_restore 30
 525              		.cfi_restore 29
 526              		.cfi_restore 28
 527              		.cfi_restore 27
 528              		.cfi_restore 26
 529              		.cfi_restore 25
 530              		.cfi_restore 24
 531              		.cfi_restore 23
 532              		.cfi_def_cfa_offset 0
 533 00a4 0004     		se_blr
 534              		.cfi_endproc
 535              	.LFE5:
 536              		.size	vector245, .-vector245
 537              		.section	.text.vector246,"axv",@progbits
 538              		.align 1
 539              		.p2align 4,,15
 540              		.globl vector246
 541              		.type	vector246, @function
 542              	vector246:
 543              	.LFB6:
 544              		.loc 1 140 0
 545              		.cfi_startproc
 546              	.LVL51:
 547 0000 182106D0 		e_stwu %r1,-48(%r1)
 548              	.LCFI8:
 549              		.cfi_def_cfa_offset 48
 550 0004 0080     		se_mflr %r0
 551 0006 1AE1090C 		e_stmw %r23,12(%r1)
 552 000a DD01     		se_stw %r0,52(%r1)
 553              		.cfi_offset 65, 4
 554              		.cfi_offset 23, -36
 555              		.cfi_offset 24, -32
 556              		.cfi_offset 25, -28
 557              		.cfi_offset 26, -24
 558              		.cfi_offset 27, -20
 559              		.cfi_offset 28, -16
 560              		.cfi_offset 29, -12
 561              		.cfi_offset 30, -8
 562              		.cfi_offset 31, -4
 563              	.LBB28:
 564              	.LBB29:
 565              		.loc 1 44 0
 566 000c 73C0E000 		e_lis %r30,eirqconf@ha
 567              	.LBE29:
 568              	.LBE28:
 569              		.loc 1 140 0
 570 0010 48CD     		se_li %r29,12
GAS LISTING C:\Users\Shehan\AppData\Local\Temp\ccm7OZO0.s 			page 11


 571              		.loc 1 147 0
 572 0012 739EE7FC 		e_lis %r28,0xf7fc
 573              	.LBB32:
 574              	.LBB30:
 575              		.loc 1 44 0
 576 0016 1FDE0000 		e_la %r30,eirqconf@l(%r30)
 577 001a 2C09     		se_bmaski %r25,0
 578 001c 480A     		se_li %r26,0
 579              	.LBE30:
 580              	.LBE32:
 581              		.loc 1 151 0
 582 001e 72E00001 		e_li %r23,1
 583              	.LVL52:
 584              	.L45:
 585              		.loc 1 147 0
 586 0022 C47C     		se_lwz %r7,16(%r28)
 587 0024 77B8063F 		e_rlwinm %r24,%r29,0,0xff
 588              	.LVL53:
 589 0028 40D7     		se_srw %r7,%r29
 590 002a 01DB     		se_mr %r27,%r29
 591 002c 67F7     		se_btsti %r7,31
 592 002e 7A120062 		e_beq %cr0,.L40
 593              	.LVL54:
 594              	.LBB33:
 595              	.LBB31:
 596              		.loc 1 44 0
 597 0032 807E     		se_lbz %r7,0(%r30)
 598 0034 01AF     		se_mr %r31,%r26
 599 0036 00D7     		se_extsb %r7
 600 0038 01A6     		se_mr %r6,%r26
 601 003a 0C97     		se_cmp %r7,%r25
 602 003c 7A02001E 		e_bne %cr0,.L46
 603 0040 7800004A 		e_b .L44
 604              	.LVL55:
 605              	.L42:
 606              		.loc 1 51 0
 607 0044 200F     		se_addi %r31,1
 608              	.LVL56:
 609 0046 00CF     		se_extzb %r31
 610              	.LVL57:
 611              		.loc 1 44 0
 612 0048 7FE71870 		e_slwi %r7,%r31,3
 613 004c 01F6     		se_mr %r6,%r31
 614 004e 7CFE38AE 		lbzx %r7,%r30,%r7
 615 0052 00D7     		se_extsb %r7
 616 0054 0C97     		se_cmp %r7,%r25
 617 0056 7A120034 		e_beq %cr0,.L44
 618              	.LVL58:
 619              	.L46:
 620              		.loc 1 45 0
 621 005a 00C7     		se_extzb %r7
 622 005c 0C78     		se_cmp %r24,%r7
 623 005e 7A02FFE6 		e_bne %cr0,.L42
 624              		.loc 1 47 0
 625 0062 6C36     		se_slwi %r6, 3
 626 0064 7CDE3214 		add %r6,%r30,%r6
 627 0068 C176     		se_lwz %r7,4(%r6)
GAS LISTING C:\Users\Shehan\AppData\Local\Temp\ccm7OZO0.s 			page 12


 628 006a 2A07     		se_cmpi %r7,0
 629 006c 7A12FFD8 		e_beq %cr0,.L42
 630              		.loc 1 48 0
 631 0070 00B7     		se_mtctr %r7
 632              		.loc 1 51 0
 633 0072 200F     		se_addi %r31,1
 634              	.LVL59:
 635 0074 00CF     		se_extzb %r31
 636              	.LVL60:
 637              		.loc 1 48 0
 638 0076 0007     		se_bctrl
 639              	.LVL61:
 640              		.loc 1 44 0
 641 0078 7FE71870 		e_slwi %r7,%r31,3
 642 007c 01F6     		se_mr %r6,%r31
 643 007e 7CFE38AE 		lbzx %r7,%r30,%r7
 644 0082 00D7     		se_extsb %r7
 645 0084 0C97     		se_cmp %r7,%r25
 646 0086 7A02FFD4 		e_bne %cr0,.L46
 647              	.LVL62:
 648              	.L44:
 649              	.LBE31:
 650              	.LBE33:
 651              		.loc 1 151 0
 652 008a 7EE7D830 		slw %r7,%r23,%r27
 653 008e D47C     		se_stw %r7,16(%r28)
 654              	.L40:
 655              	.LVL63:
 656 0090 200D     		se_addi %r29,1
 657              		.loc 1 145 0 discriminator 2
 658 0092 22FD     		se_cmpli %r29,16
 659 0094 7A02FF8E 		e_bne %cr0,.L45
 660              		.loc 1 156 0
 661 0098 CD01     		se_lwz %r0,52(%r1)
 662 009a 0090     		se_mtlr %r0
 663              		.cfi_restore 65
 664 009c 1AE1080C 		e_lmw %r23,12(%r1)
 665              	.LVL64:
 666 00a0 18218030 		e_addi %r1,%r1,48
 667              	.LCFI9:
 668              		.cfi_restore 31
 669              		.cfi_restore 30
 670              		.cfi_restore 29
 671              		.cfi_restore 28
 672              		.cfi_restore 27
 673              		.cfi_restore 26
 674              		.cfi_restore 25
 675              		.cfi_restore 24
 676              		.cfi_restore 23
 677              		.cfi_def_cfa_offset 0
 678 00a4 0004     		se_blr
 679              		.cfi_endproc
 680              	.LFE6:
 681              		.size	vector246, .-vector246
 682              		.section	.text.eirqInit,"axv",@progbits
 683              		.align 1
 684              		.p2align 4,,15
GAS LISTING C:\Users\Shehan\AppData\Local\Temp\ccm7OZO0.s 			page 13


 685              		.globl eirqInit
 686              		.type	eirqInit, @function
 687              	eirqInit:
 688              	.LFB7:
 689              		.loc 1 168 0
 690              		.cfi_startproc
 691              		.loc 1 173 0
 692 0000 70F07806 		e_li %r7,-32762
 693 0004 70DEE404 		e_lis %r6,0xf404
 694              		.loc 1 180 0
 695 0008 7060E000 		e_lis %r3,eirqconf@ha
 696              		.loc 1 173 0
 697 000c 70C8C246 		e_or2i %r6,16966
 698              		.loc 1 180 0
 699 0010 4805     		se_li %r5,0
 700              		.loc 1 173 0
 701 0012 B076     		se_sth %r7,0(%r6)
 702              		.loc 1 174 0
 703 0014 B176     		se_sth %r7,2(%r6)
 704              		.loc 1 175 0
 705 0016 B276     		se_sth %r7,4(%r6)
 706              		.loc 1 176 0
 707 0018 B376     		se_sth %r7,6(%r6)
 708              	.LVL65:
 709              		.loc 1 180 0
 710 001a 4807     		se_li %r7,0
 711 001c 30C30000 		e_lbz %r6,eirqconf@l(%r3)
 712 0020 00D6     		se_extsb %r6
 713 0022 73E69FFF 		e_cmp16i %r6,-1
 714 0026 7A1200CC 		e_beq %cr0,.L49
 715              		.loc 1 183 0
 716 002a 1C630000 		e_la %r3,eirqconf@l(%r3)
 717 002e 71200001 		e_li %r9,1
 718              		.loc 1 184 0
 719 0032 717EE7FC 		e_lis %r11,0xf7fc
 720              		.loc 1 180 0
 721 0036 2C00     		se_bmaski %r0,0
 722 0038 78000046 		e_b .L57
 723              	.LVL66:
 724              	.L61:
 725              		.loc 1 187 0
 726 003c 7CE41870 		e_slwi %r4,%r7,3
 727 0040 7D263030 		slw %r6,%r9,%r6
 728              	.LVL67:
 729 0044 7C832214 		add %r4,%r3,%r4
 730 0048 8244     		se_lbz %r4,2(%r4)
 731 004a 2A14     		se_cmpi %r4,1
 732 004c 7A120064 		e_beq %cr0,.L59
 733              	.L53:
 734              		.loc 1 191 0
 735 0050 6C37     		se_slwi %r7, 3
 736 0052 7CE33A14 		add %r7,%r3,%r7
 737 0056 8377     		se_lbz %r7,3(%r7)
 738 0058 2A17     		se_cmpi %r7,1
 739 005a 7A12006E 		e_beq %cr0,.L60
 740              	.L54:
 741              		.loc 1 195 0
GAS LISTING C:\Users\Shehan\AppData\Local\Temp\ccm7OZO0.s 			page 14


 742 005e 50EB0018 		e_lwz %r7,24(%r11)
 743              		.loc 1 196 0
 744 0062 2005     		se_addi %r5,1
 745              	.LVL68:
 746              		.loc 1 195 0
 747 0064 4476     		se_or %r6,%r7
 748              		.loc 1 196 0
 749 0066 00C5     		se_extzb %r5
 750              	.LVL69:
 751              		.loc 1 195 0
 752 0068 54CB0018 		e_stw %r6,24(%r11)
 753              		.loc 1 180 0
 754 006c 0157     		se_mr %r7,%r5
 755 006e 7CA61870 		e_slwi %r6,%r5,3
 756 0072 7CC330AE 		lbzx %r6,%r3,%r6
 757 0076 00D6     		se_extsb %r6
 758 0078 0C06     		se_cmp %r6,%r0
 759 007a 7A120078 		e_beq %cr0,.L49
 760              	.LVL70:
 761              	.L57:
 762              		.loc 1 183 0
 763 007e 7CE41870 		e_slwi %r4,%r7,3
 764              		.loc 1 181 0
 765 0082 00C6     		se_extzb %r6
 766              	.LVL71:
 767              		.loc 1 183 0
 768 0084 7C832214 		add %r4,%r3,%r4
 769 0088 8144     		se_lbz %r4,1(%r4)
 770 008a 2A14     		se_cmpi %r4,1
 771 008c 7A02FFB0 		e_bne %cr0,.L61
 772              		.loc 1 184 0
 773 0090 514B0028 		e_lwz %r10,40(%r11)
 774 0094 7C863030 		slw %r6,%r4,%r6
 775              	.LVL72:
 776 0098 7CC45378 		or %r4,%r6,%r10
 777 009c 548B0028 		e_stw %r4,40(%r11)
 778              		.loc 1 187 0
 779 00a0 7CE41870 		e_slwi %r4,%r7,3
 780 00a4 7C832214 		add %r4,%r3,%r4
 781 00a8 8244     		se_lbz %r4,2(%r4)
 782 00aa 2A14     		se_cmpi %r4,1
 783 00ac 7A02FFA4 		e_bne %cr0,.L53
 784              	.L59:
 785              		.loc 1 188 0
 786 00b0 508B0030 		e_lwz %r4,48(%r11)
 787              		.loc 1 191 0
 788 00b4 6C37     		se_slwi %r7, 3
 789              		.loc 1 188 0
 790 00b6 4464     		se_or %r4,%r6
 791              		.loc 1 191 0
 792 00b8 7CE33A14 		add %r7,%r3,%r7
 793              		.loc 1 188 0
 794 00bc 548B0030 		e_stw %r4,48(%r11)
 795              		.loc 1 191 0
 796 00c0 8377     		se_lbz %r7,3(%r7)
 797 00c2 2A17     		se_cmpi %r7,1
 798 00c4 7A02FF9A 		e_bne %cr0,.L54
GAS LISTING C:\Users\Shehan\AppData\Local\Temp\ccm7OZO0.s 			page 15


 799              	.L60:
 800              		.loc 1 192 0
 801 00c8 50EB0038 		e_lwz %r7,56(%r11)
 802              		.loc 1 196 0
 803 00cc 2005     		se_addi %r5,1
 804              	.LVL73:
 805              		.loc 1 192 0
 806 00ce 4467     		se_or %r7,%r6
 807              		.loc 1 196 0
 808 00d0 00C5     		se_extzb %r5
 809              	.LVL74:
 810              		.loc 1 192 0
 811 00d2 54EB0038 		e_stw %r7,56(%r11)
 812              		.loc 1 195 0
 813 00d6 50EB0018 		e_lwz %r7,24(%r11)
 814 00da 4476     		se_or %r6,%r7
 815              		.loc 1 180 0
 816 00dc 0157     		se_mr %r7,%r5
 817              		.loc 1 195 0
 818 00de 54CB0018 		e_stw %r6,24(%r11)
 819              		.loc 1 180 0
 820 00e2 7CA61870 		e_slwi %r6,%r5,3
 821 00e6 7CC330AE 		lbzx %r6,%r3,%r6
 822 00ea 00D6     		se_extsb %r6
 823 00ec 0C06     		se_cmp %r6,%r0
 824 00ee 7A02FF90 		e_bne %cr0,.L57
 825              	.LVL75:
 826              	.L49:
 827 00f2 0004     		se_blr
 828              		.cfi_endproc
 829              	.LFE7:
 830              		.size	eirqInit, .-eirqInit
 831              		.section	".text","axv"
 832              	.Letext0:
 833              		.file 2 "c:\\spc5studio-6.0\\eclipse\\plugins\\com.st.tools.spc5.tools.gnu.gcc.ppcvle.win32_4.9.4.
 834              		.file 3 "c:\\spc5studio-6.0\\eclipse\\plugins\\com.st.tools.spc5.tools.gnu.gcc.ppcvle.win32_4.9.4.
 835              		.file 4 "./components/spc582bxx_platform_component_rla/lib/include/typedefs.h"
 836              		.file 5 "./components/spc582bxx_platform_component_rla/lib/include/spc582b.h"
 837              		.file 6 "./components/spc582bxx_irq_component_rla/lib/include/eirq.h"