GAS LISTING C:\Users\Shehan\AppData\Local\Temp\cc6hUjm9.s 			page 1


   1              		.file	"main.cpp"
   2              		.section	".text","axv"
   3              	.Ltext0:
   4              		.cfi_sections	.debug_frame
   5              		.section	.text._ZN16momentary_Device14control_signalEb,"axvG",@progbits,_ZN16momentary_Device14con
   6              		.align 1
   7              		.p2align 4,,15
   8              		.weak	_ZN16momentary_Device14control_signalEb
   9              		.type	_ZN16momentary_Device14control_signalEb, @function
  10              	_ZN16momentary_Device14control_signalEb:
  11              	.LFB767:
  12              		.file 1 "./source/APP/device_class.hpp"
  13              		.loc 1 64 0
  14              		.cfi_startproc
  15              	.LVL0:
  16              		.loc 1 66 0
  17 0000 34830014 		e_stb %r4,20(%r3)
  18 0004 0004     		se_blr
  19              		.cfi_endproc
  20              	.LFE767:
  21              		.size	_ZN16momentary_Device14control_signalEb, .-_ZN16momentary_Device14control_signalEb
  22              		.section	.text._ZN12latch_Device14control_signalEb,"axvG",@progbits,_ZN12latch_Device14control_sig
  23              		.align 1
  24              		.p2align 4,,15
  25              		.weak	_ZN12latch_Device14control_signalEb
  26              		.type	_ZN12latch_Device14control_signalEb, @function
  27              	_ZN12latch_Device14control_signalEb:
  28              	.LFB773:
  29              		.loc 1 105 0
  30              		.cfi_startproc
  31              	.LVL1:
  32              		.loc 1 106 0
  33 0000 2A04     		se_cmpi %r4,0
  34 0002 7A120010 		e_beq %cr0,.L2
  35              		.loc 1 107 0
  36 0006 30E30014 		e_lbz %r7,20(%r3)
  37 000a 18E7E001 		e_xori %r7,%r7,1
  38 000e 34E30014 		e_stb %r7,20(%r3)
  39              	.L2:
  40 0012 0004     		se_blr
  41              		.cfi_endproc
  42              	.LFE773:
  43              		.size	_ZN12latch_Device14control_signalEb, .-_ZN12latch_Device14control_signalEb
  44              		.section	.text._ZN13toggle_Device14control_signalEb,"axvG",@progbits,_ZN13toggle_Device14control_s
  45              		.align 1
  46              		.p2align 4,,15
  47              		.weak	_ZN13toggle_Device14control_signalEb
  48              		.type	_ZN13toggle_Device14control_signalEb, @function
  49              	_ZN13toggle_Device14control_signalEb:
  50              	.LFB779:
  51              		.loc 1 147 0
  52              		.cfi_startproc
  53              	.LVL2:
  54              		.loc 1 148 0
  55 0000 2A04     		se_cmpi %r4,0
  56 0002 7A120010 		e_beq %cr0,.L5
  57              		.loc 1 149 0
GAS LISTING C:\Users\Shehan\AppData\Local\Temp\cc6hUjm9.s 			page 2


  58 0006 30E30014 		e_lbz %r7,20(%r3)
  59 000a 18E7E001 		e_xori %r7,%r7,1
  60 000e 34E30014 		e_stb %r7,20(%r3)
  61              	.L5:
  62 0012 0004     		se_blr
  63              		.cfi_endproc
  64              	.LFE779:
  65              		.size	_ZN13toggle_Device14control_signalEb, .-_ZN13toggle_Device14control_signalEb
  66              		.section	.text._ZN17TurnSignal_Module8activateEv,"axv",@progbits
  67              		.align 1
  68              		.p2align 4,,15
  69              		.globl _ZN17TurnSignal_Module8activateEv
  70              		.type	_ZN17TurnSignal_Module8activateEv, @function
  71              	_ZN17TurnSignal_Module8activateEv:
  72              	.LFB803:
  73              		.file 2 "./source/APP/module_class.hpp"
  74              		.loc 2 97 0
  75              		.cfi_startproc
  76              	.LVL3:
  77 0000 182106F0 		e_stwu %r1,-16(%r1)
  78              	.LCFI0:
  79              		.cfi_def_cfa_offset 16
  80 0004 0080     		se_mflr %r0
  81 0006 D3F1     		se_stw %r31,12(%r1)
  82 0008 D501     		se_stw %r0,20(%r1)
  83              		.cfi_offset 65, 4
  84              		.cfi_offset 31, -4
  85              		.loc 2 97 0
  86 000a 013F     		se_mr %r31,%r3
  87              		.loc 2 98 0
  88 000c C233     		se_lwz %r3,8(%r3)
  89              	.LVL4:
  90 000e C073     		se_lwz %r7,0(%r3)
  91 0010 C177     		se_lwz %r7,4(%r7)
  92 0012 00B7     		se_mtctr %r7
  93 0014 0007     		se_bctrl
  94              	.LVL5:
  95 0016 2A03     		se_cmpi %r3,0
  96 0018 7A020044 		e_bne %cr0,.L10
  97              	.L8:
  98              		.loc 2 103 0
  99 001c C33F     		se_lwz %r3,12(%r31)
 100 001e C073     		se_lwz %r7,0(%r3)
 101 0020 C177     		se_lwz %r7,4(%r7)
 102 0022 00B7     		se_mtctr %r7
 103 0024 0007     		se_bctrl
 104              	.LVL6:
 105 0026 2A03     		se_cmpi %r3,0
 106 0028 7A120018 		e_beq %cr0,.L9
 107              		.loc 2 106 0
 108 002c C33F     		se_lwz %r3,12(%r31)
 109              		.loc 2 105 0
 110 002e C26F     		se_lwz %r6,8(%r31)
 111              		.loc 2 106 0
 112 0030 C073     		se_lwz %r7,0(%r3)
 113              		.loc 2 105 0
 114 0032 4805     		se_li %r5,0
GAS LISTING C:\Users\Shehan\AppData\Local\Temp\cc6hUjm9.s 			page 3


 115              		.loc 2 106 0
 116 0034 C277     		se_lwz %r7,8(%r7)
 117              		.loc 2 105 0
 118 0036 34A60014 		e_stb %r5,20(%r6)
 119              		.loc 2 106 0
 120 003a 4814     		se_li %r4,1
 121 003c 00B7     		se_mtctr %r7
 122 003e 0007     		se_bctrl
 123              	.LVL7:
 124              	.L9:
 125              		.loc 2 108 0
 126 0040 C23F     		se_lwz %r3,8(%r31)
 127 0042 C073     		se_lwz %r7,0(%r3)
 128 0044 C077     		se_lwz %r7,0(%r7)
 129 0046 00B7     		se_mtctr %r7
 130 0048 0007     		se_bctrl
 131              	.LVL8:
 132              		.loc 2 109 0
 133 004a C33F     		se_lwz %r3,12(%r31)
 134              		.loc 2 110 0
 135 004c C501     		se_lwz %r0,20(%r1)
 136              		.loc 2 109 0
 137 004e C073     		se_lwz %r7,0(%r3)
 138              		.loc 2 110 0
 139 0050 C3F1     		se_lwz %r31,12(%r1)
 140              	.LVL9:
 141              		.loc 2 109 0
 142 0052 C077     		se_lwz %r7,0(%r7)
 143              		.loc 2 110 0
 144 0054 0090     		se_mtlr %r0
 145              		.cfi_remember_state
 146              		.cfi_restore 65
 147              		.loc 2 109 0
 148 0056 00B7     		se_mtctr %r7
 149              		.loc 2 110 0
 150 0058 20F1     		se_addi %r1,16
 151              	.LCFI1:
 152              		.cfi_restore 31
 153              		.cfi_def_cfa_offset 0
 154              		.loc 2 109 0
 155 005a 0006     		se_bctr
 156              	.LVL10:
 157              	.L10:
 158              	.LCFI2:
 159              		.cfi_restore_state
 160              		.loc 2 101 0
 161 005c C23F     		se_lwz %r3,8(%r31)
 162              		.loc 2 100 0
 163 005e C36F     		se_lwz %r6,12(%r31)
 164              		.loc 2 101 0
 165 0060 C073     		se_lwz %r7,0(%r3)
 166              		.loc 2 100 0
 167 0062 4805     		se_li %r5,0
 168              		.loc 2 101 0
 169 0064 C277     		se_lwz %r7,8(%r7)
 170              		.loc 2 100 0
 171 0066 34A60014 		e_stb %r5,20(%r6)
GAS LISTING C:\Users\Shehan\AppData\Local\Temp\cc6hUjm9.s 			page 4


 172              		.loc 2 101 0
 173 006a 4814     		se_li %r4,1
 174 006c 00B7     		se_mtctr %r7
 175 006e 0007     		se_bctrl
 176              	.LVL11:
 177 0070 79FFFFAC 		e_b .L8
 178              		.cfi_endproc
 179              	.LFE803:
 180              		.size	_ZN17TurnSignal_Module8activateEv, .-_ZN17TurnSignal_Module8activateEv
 181              		.section	.text._ZN11Horn_Module8activateEv,"axv",@progbits
 182              		.align 1
 183              		.p2align 4,,15
 184              		.globl _ZN11Horn_Module8activateEv
 185              		.type	_ZN11Horn_Module8activateEv, @function
 186              	_ZN11Horn_Module8activateEv:
 187              	.LFB807:
 188              		.loc 2 124 0
 189              		.cfi_startproc
 190              	.LVL12:
 191 0000 182106F0 		e_stwu %r1,-16(%r1)
 192              	.LCFI3:
 193              		.cfi_def_cfa_offset 16
 194 0004 0080     		se_mflr %r0
 195 0006 D3F1     		se_stw %r31,12(%r1)
 196 0008 D501     		se_stw %r0,20(%r1)
 197              		.cfi_offset 65, 4
 198              		.cfi_offset 31, -4
 199              		.loc 2 124 0
 200 000a 013F     		se_mr %r31,%r3
 201              		.loc 2 125 0
 202 000c C233     		se_lwz %r3,8(%r3)
 203              	.LVL13:
 204 000e C073     		se_lwz %r7,0(%r3)
 205 0010 C177     		se_lwz %r7,4(%r7)
 206 0012 00B7     		se_mtctr %r7
 207 0014 0007     		se_bctrl
 208              	.LVL14:
 209 0016 2A03     		se_cmpi %r3,0
 210              		.loc 2 127 0
 211 0018 C23F     		se_lwz %r3,8(%r31)
 212              		.loc 2 125 0
 213 001a 7A020020 		e_bne %cr0,.L14
 214              		.loc 2 131 0
 215 001e C073     		se_lwz %r7,0(%r3)
 216 0020 4804     		se_li %r4,0
 217 0022 C277     		se_lwz %r7,8(%r7)
 218 0024 00B7     		se_mtctr %r7
 219 0026 0007     		se_bctrl
 220              	.LVL15:
 221              		.loc 2 133 0
 222 0028 C23F     		se_lwz %r3,8(%r31)
 223              		.loc 2 134 0
 224 002a C501     		se_lwz %r0,20(%r1)
 225              		.loc 2 133 0
 226 002c C073     		se_lwz %r7,0(%r3)
 227              		.loc 2 134 0
 228 002e C3F1     		se_lwz %r31,12(%r1)
GAS LISTING C:\Users\Shehan\AppData\Local\Temp\cc6hUjm9.s 			page 5


 229              	.LVL16:
 230              		.loc 2 133 0
 231 0030 C077     		se_lwz %r7,0(%r7)
 232              		.loc 2 134 0
 233 0032 0090     		se_mtlr %r0
 234              		.cfi_remember_state
 235              		.cfi_restore 65
 236              		.loc 2 133 0
 237 0034 00B7     		se_mtctr %r7
 238              		.loc 2 134 0
 239 0036 20F1     		se_addi %r1,16
 240              	.LCFI4:
 241              		.cfi_restore 31
 242              		.cfi_def_cfa_offset 0
 243              		.loc 2 133 0
 244 0038 0006     		se_bctr
 245              	.LVL17:
 246              	.L14:
 247              	.LCFI5:
 248              		.cfi_restore_state
 249              		.loc 2 127 0
 250 003a C073     		se_lwz %r7,0(%r3)
 251 003c 4814     		se_li %r4,1
 252 003e C277     		se_lwz %r7,8(%r7)
 253 0040 00B7     		se_mtctr %r7
 254 0042 0007     		se_bctrl
 255              	.LVL18:
 256              		.loc 2 133 0
 257 0044 C23F     		se_lwz %r3,8(%r31)
 258              		.loc 2 134 0
 259 0046 C501     		se_lwz %r0,20(%r1)
 260              		.loc 2 133 0
 261 0048 C073     		se_lwz %r7,0(%r3)
 262              		.loc 2 134 0
 263 004a C3F1     		se_lwz %r31,12(%r1)
 264              	.LVL19:
 265              		.loc 2 133 0
 266 004c C077     		se_lwz %r7,0(%r7)
 267              		.loc 2 134 0
 268 004e 0090     		se_mtlr %r0
 269              		.cfi_restore 65
 270              		.loc 2 133 0
 271 0050 00B7     		se_mtctr %r7
 272              		.loc 2 134 0
 273 0052 20F1     		se_addi %r1,16
 274              	.LCFI6:
 275              		.cfi_restore 31
 276              		.cfi_def_cfa_offset 0
 277              		.loc 2 133 0
 278 0054 0006     		se_bctr
 279              	.LVL20:
 280              		.cfi_endproc
 281              	.LFE807:
 282              		.size	_ZN11Horn_Module8activateEv, .-_ZN11Horn_Module8activateEv
 283              		.section	.text._ZN14PDU_FAN_Module8activateEv,"axv",@progbits
 284              		.align 1
 285              		.p2align 4,,15
GAS LISTING C:\Users\Shehan\AppData\Local\Temp\cc6hUjm9.s 			page 6


 286              		.globl _ZN14PDU_FAN_Module8activateEv
 287              		.type	_ZN14PDU_FAN_Module8activateEv, @function
 288              	_ZN14PDU_FAN_Module8activateEv:
 289              	.LFB815:
 290              		.loc 2 181 0
 291              		.cfi_startproc
 292              	.LVL21:
 293              	.LBB127:
 294              	.LBB128:
 295              	.LBB129:
 296              		.file 3 "./source/COMMS/CANMatrix_FD_3.h"
 297              		.loc 3 125 0
 298 0000 70E0E000 		e_lis %r7,.LANCHOR0@ha
 299 0004 1CE70000 		e_la %r7,.LANCHOR0@l(%r7)
 300 0008 8767     		se_lbz %r6,7(%r7)
 301              	.LVL22:
 302              		.loc 3 126 0
 303 000a 8657     		se_lbz %r5,6(%r7)
 304              	.LVL23:
 305              	.LBE129:
 306              	.LBE128:
 307              		.loc 2 186 0
 308 000c 7006A845 		e_cmpl16i %r6,69
 309              	.LBB130:
 310              	.LBB131:
 311              		.loc 3 125 0
 312 0010 8757     		se_lbz %r5,7(%r7)
 313              	.LVL24:
 314              	.LBE131:
 315              	.LBE130:
 316              		.loc 2 182 0
 317 0012 70A0E000 		e_lis %r5,.LANCHOR1@ha
 318              		.loc 2 183 0
 319 0016 8677     		se_lbz %r7,6(%r7)
 320              	.LVL25:
 321              		.loc 2 182 0
 322 0018 34C50000 		e_stb %r6,.LANCHOR1@l(%r5)
 323              		.loc 2 185 0
 324 001c 70A0E000 		e_lis %r5,.LANCHOR2@ha
 325 0020 34E50000 		e_stb %r7,.LANCHOR2@l(%r5)
 326              		.loc 2 186 0
 327 0024 7A01007C 		e_ble %cr0,.L16
 328              		.loc 2 187 0
 329 0028 4815     		se_li %r5,1
 330 002a 70C0E000 		e_lis %r6,.LANCHOR3@ha
 331              	.LVL26:
 332 002e 34A60000 		e_stb %r5,.LANCHOR3@l(%r6)
 333              	.L17:
 334              		.loc 2 192 0
 335 0032 7007A83B 		e_cmpl16i %r7,59
 336 0036 7A010054 		e_ble %cr0,.L18
 337              		.loc 2 193 0
 338 003a 4816     		se_li %r6,1
 339 003c 70E0E000 		e_lis %r7,.LANCHOR4@ha
 340              	.LVL27:
 341 0040 34C70000 		e_stb %r6,.LANCHOR4@l(%r7)
 342              	.L19:
GAS LISTING C:\Users\Shehan\AppData\Local\Temp\cc6hUjm9.s 			page 7


 343              	.LBB132:
 344              	.LBB133:
 345              		.file 4 "./source/COMMS/CANMatrix_pdu.h"
 346              		.loc 4 137 0
 347 0044 70E0E000 		e_lis %r7,.LANCHOR5+10@ha
 348              	.LBE133:
 349              	.LBE132:
 350              		.loc 2 198 0
 351 0048 70C0E000 		e_lis %r6,.LANCHOR6@ha
 352              	.LBB135:
 353              	.LBB134:
 354              		.loc 4 137 0
 355 004c 58E70000 		e_lhz %r7,.LANCHOR5+10@l(%r7)
 356 0050 74E79FFF 		e_rlwinm %r7,%r7,19,31,31
 357              	.LBE134:
 358              	.LBE135:
 359              		.loc 2 198 0
 360 0054 34E60000 		e_stb %r7,.LANCHOR6@l(%r6)
 361              		.loc 2 199 0
 362 0058 2A07     		se_cmpi %r7,0
 363 005a 7A02001A 		e_bne %cr0,.L20
 364              		.loc 2 199 0 is_stmt 0 discriminator 2
 365 005e 70E0E000 		e_lis %r7,.LANCHOR3@ha
 366 0062 30E70000 		e_lbz %r7,.LANCHOR3@l(%r7)
 367 0066 2A07     		se_cmpi %r7,0
 368 0068 7A02000C 		e_bne %cr0,.L20
 369              		.loc 2 199 0 discriminator 4
 370 006c 70E0E000 		e_lis %r7,.LANCHOR4@ha
 371 0070 30E70000 		e_lbz %r7,.LANCHOR4@l(%r7)
 372              	.L20:
 373              		.loc 2 200 0 is_stmt 1 discriminator 8
 374 0074 C233     		se_lwz %r3,8(%r3)
 375              	.LVL28:
 376              		.loc 2 199 0 discriminator 8
 377 0076 70A0E000 		e_lis %r5,.LANCHOR7@ha
 378              		.loc 2 201 0 discriminator 8
 379 007a C063     		se_lwz %r6,0(%r3)
 380              		.loc 2 200 0 discriminator 8
 381 007c 34E30014 		e_stb %r7,20(%r3)
 382              		.loc 2 199 0 discriminator 8
 383 0080 34E50000 		e_stb %r7,.LANCHOR7@l(%r5)
 384              		.loc 2 201 0 discriminator 8
 385 0084 C076     		se_lwz %r7,0(%r6)
 386              	.LBE127:
 387              		.loc 2 202 0 discriminator 8
 388              	.LBB136:
 389              		.loc 2 201 0 discriminator 8
 390 0086 00B7     		se_mtctr %r7
 391 0088 0006     		se_bctr
 392              	.LVL29:
 393              	.L18:
 394              		.loc 2 195 0
 395 008a 7007A832 		e_cmpl16i %r7,50
 396 008e 7A11FFB6 		e_bgt %cr0,.L19
 397              		.loc 2 196 0
 398 0092 4806     		se_li %r6,0
 399 0094 70E0E000 		e_lis %r7,.LANCHOR4@ha
GAS LISTING C:\Users\Shehan\AppData\Local\Temp\cc6hUjm9.s 			page 8


 400              	.LVL30:
 401 0098 34C70000 		e_stb %r6,.LANCHOR4@l(%r7)
 402 009c 79FFFFA8 		e_b .L19
 403              	.LVL31:
 404              	.L16:
 405              		.loc 2 189 0
 406 00a0 7006A837 		e_cmpl16i %r6,55
 407 00a4 7A11FF8E 		e_bgt %cr0,.L17
 408              		.loc 2 190 0
 409 00a8 4805     		se_li %r5,0
 410 00aa 70C0E000 		e_lis %r6,.LANCHOR3@ha
 411              	.LVL32:
 412 00ae 34A60000 		e_stb %r5,.LANCHOR3@l(%r6)
 413 00b2 79FFFF80 		e_b .L17
 414              	.LBE136:
 415              		.cfi_endproc
 416              	.LFE815:
 417              		.size	_ZN14PDU_FAN_Module8activateEv, .-_ZN14PDU_FAN_Module8activateEv
 418              		.section	.text._ZN12Wiper_Module8activateEv,"axv",@progbits
 419              		.align 1
 420              		.p2align 4,,15
 421              		.globl _ZN12Wiper_Module8activateEv
 422              		.type	_ZN12Wiper_Module8activateEv, @function
 423              	_ZN12Wiper_Module8activateEv:
 424              	.LFB811:
 425              		.loc 2 148 0
 426              		.cfi_startproc
 427              	.LVL33:
 428 0000 182106F0 		e_stwu %r1,-16(%r1)
 429              	.LCFI7:
 430              		.cfi_def_cfa_offset 16
 431 0004 0080     		se_mflr %r0
 432 0006 D3F1     		se_stw %r31,12(%r1)
 433 0008 D501     		se_stw %r0,20(%r1)
 434              		.cfi_offset 65, 4
 435              		.cfi_offset 31, -4
 436              		.loc 2 148 0
 437 000a 013F     		se_mr %r31,%r3
 438              		.loc 2 149 0
 439 000c C233     		se_lwz %r3,8(%r3)
 440              	.LVL34:
 441 000e C073     		se_lwz %r7,0(%r3)
 442 0010 C177     		se_lwz %r7,4(%r7)
 443 0012 00B7     		se_mtctr %r7
 444 0014 0007     		se_bctrl
 445              	.LVL35:
 446 0016 2A03     		se_cmpi %r3,0
 447              	.LBB139:
 448              	.LBB140:
 449              		.loc 2 151 0
 450 0018 C23F     		se_lwz %r3,8(%r31)
 451              	.LBE140:
 452              	.LBE139:
 453              		.loc 2 149 0
 454 001a 7A020016 		e_bne %cr0,.L24
 455              		.loc 2 157 0
 456 001e C501     		se_lwz %r0,20(%r1)
GAS LISTING C:\Users\Shehan\AppData\Local\Temp\cc6hUjm9.s 			page 9


 457              		.loc 2 155 0
 458 0020 C073     		se_lwz %r7,0(%r3)
 459              		.loc 2 157 0
 460 0022 C3F1     		se_lwz %r31,12(%r1)
 461              	.LVL36:
 462              		.loc 2 155 0
 463 0024 C277     		se_lwz %r7,8(%r7)
 464 0026 4804     		se_li %r4,0
 465              		.loc 2 157 0
 466              		.loc 2 155 0
 467 0028 00B7     		se_mtctr %r7
 468              		.loc 2 157 0
 469 002a 0090     		se_mtlr %r0
 470              		.cfi_remember_state
 471              		.cfi_restore 65
 472 002c 20F1     		se_addi %r1,16
 473              	.LCFI8:
 474              		.cfi_restore 31
 475              		.cfi_def_cfa_offset 0
 476              		.loc 2 155 0
 477 002e 0006     		se_bctr
 478              	.LVL37:
 479              	.L24:
 480              	.LCFI9:
 481              		.cfi_restore_state
 482              		.loc 2 157 0
 483 0030 C501     		se_lwz %r0,20(%r1)
 484              		.loc 2 155 0
 485 0032 C073     		se_lwz %r7,0(%r3)
 486              		.loc 2 157 0
 487 0034 C3F1     		se_lwz %r31,12(%r1)
 488              	.LVL38:
 489              		.loc 2 155 0
 490 0036 C277     		se_lwz %r7,8(%r7)
 491              	.LBB142:
 492              	.LBB141:
 493              		.loc 2 151 0
 494 0038 4814     		se_li %r4,1
 495              	.LBE141:
 496              	.LBE142:
 497              		.loc 2 157 0
 498              		.loc 2 155 0
 499 003a 00B7     		se_mtctr %r7
 500              		.loc 2 157 0
 501 003c 0090     		se_mtlr %r0
 502              		.cfi_restore 65
 503 003e 20F1     		se_addi %r1,16
 504              	.LCFI10:
 505              		.cfi_restore 31
 506              		.cfi_def_cfa_offset 0
 507              		.loc 2 155 0
 508 0040 0006     		se_bctr
 509              	.LVL39:
 510              		.cfi_endproc
 511              	.LFE811:
 512              		.size	_ZN12Wiper_Module8activateEv, .-_ZN12Wiper_Module8activateEv
 513              		.section	.text.ADC_init,"axv",@progbits
GAS LISTING C:\Users\Shehan\AppData\Local\Temp\cc6hUjm9.s 			page 10


 514              		.align 1
 515              		.p2align 4,,15
 516              		.globl ADC_init
 517              		.type	ADC_init, @function
 518              	ADC_init:
 519              	.LFB739:
 520              		.file 5 "./source/MCAL/adc_driver.h"
 521              		.loc 5 22 0
 522              		.cfi_startproc
 523              	.LVL40:
 524 0000 182106F0 		e_stwu %r1,-16(%r1)
 525              	.LCFI11:
 526              		.cfi_def_cfa_offset 16
 527 0004 0080     		se_mflr %r0
 528 0006 D3F1     		se_stw %r31,12(%r1)
 529 0008 D501     		se_stw %r0,20(%r1)
 530              		.cfi_offset 65, 4
 531              		.cfi_offset 31, -4
 532              	.LBB143:
 533              		.loc 5 25 0
 534 000a 73E0E000 		e_lis %r31,SARADC12DSV@ha
 535 000e 7080E000 		e_lis %r4,saradc_config_saradcconf@ha
 536 0012 1FFF0000 		e_la %r31,SARADC12DSV@l(%r31)
 537 0016 1C840000 		e_la %r4,saradc_config_saradcconf@l(%r4)
 538 001a 01F3     		se_mr %r3,%r31
 539 001c 78000001 		e_bl saradc_lld_start
 540              	.LVL41:
 541              	.LBE143:
 542              		.loc 5 27 0
 543 0020 C501     		se_lwz %r0,20(%r1)
 544              	.LBB144:
 545              		.loc 5 26 0
 546 0022 01F3     		se_mr %r3,%r31
 547              	.LBE144:
 548              		.loc 5 27 0
 549 0024 0090     		se_mtlr %r0
 550              		.cfi_restore 65
 551 0026 C3F1     		se_lwz %r31,12(%r1)
 552 0028 20F1     		se_addi %r1,16
 553              	.LCFI12:
 554              		.cfi_restore 31
 555              		.cfi_def_cfa_offset 0
 556              	.LBB145:
 557              		.loc 5 26 0
 558 002a 78000000 		e_b saradc_lld_start_conversion
 559              	.LVL42:
 560              	.LBE145:
 561              		.cfi_endproc
 562              	.LFE739:
 563              		.size	ADC_init, .-ADC_init
 564              		.section	.text.saradcconf_conv_cb,"axv",@progbits
 565              		.align 1
 566              		.p2align 4,,15
 567              		.globl saradcconf_conv_cb
 568              		.type	saradcconf_conv_cb, @function
 569              	saradcconf_conv_cb:
 570              	.LFB740:
GAS LISTING C:\Users\Shehan\AppData\Local\Temp\cc6hUjm9.s 			page 11


 571              		.loc 5 29 0
 572              		.cfi_startproc
 573              	.LVL43:
 574 0000 182106E0 		e_stwu %r1,-32(%r1)
 575              	.LCFI13:
 576              		.cfi_def_cfa_offset 32
 577 0004 0080     		se_mflr %r0
 578 0006 1B61090C 		e_stmw %r27,12(%r1)
 579 000a D901     		se_stw %r0,36(%r1)
 580              		.cfi_offset 65, 4
 581              		.cfi_offset 27, -20
 582              		.cfi_offset 28, -16
 583              		.cfi_offset 29, -12
 584              		.cfi_offset 30, -8
 585              		.cfi_offset 31, -4
 586              	.LBB146:
 587              		.loc 5 32 0
 588 000c 7380E000 		e_lis %r28,.LANCHOR8@ha
 589 0010 73A0E000 		e_lis %r29,.LANCHOR9@ha
 590              		.loc 5 33 0
 591 0014 73C0E000 		e_lis %r30,.LANCHOR10@ha
 592              	.LBE146:
 593              		.loc 5 29 0
 594 0018 013B     		se_mr %r27,%r3
 595 001a 480F     		se_li %r31,0
 596              	.LBB147:
 597              		.loc 5 32 0
 598 001c 1F9C0000 		e_la %r28,.LANCHOR8@l(%r28)
 599 0020 1FBD0000 		e_la %r29,.LANCHOR9@l(%r29)
 600              		.loc 5 33 0
 601 0024 1FDE0000 		e_la %r30,.LANCHOR10@l(%r30)
 602              	.LVL44:
 603              	.L27:
 604              		.loc 5 32 0 discriminator 3
 605 0028 7C9CF8AE 		lbzx %r4,%r28,%r31
 606 002c 01B3     		se_mr %r3,%r27
 607 002e 78000001 		e_bl saradc_lld_readchannel
 608              	.LVL45:
 609 0032 7FE71070 		e_slwi %r7,%r31,2
 610 0036 200F     		se_addi %r31,1
 611              	.LVL46:
 612 0038 7C7D392E 		stwx %r3,%r29,%r7
 613              		.loc 5 31 0 discriminator 3
 614 003c 223F     		se_cmpli %r31,4
 615              		.loc 5 33 0 discriminator 3
 616 003e 807E     		se_lbz %r7,0(%r30)
 617 0040 2007     		se_addi %r7,1
 618 0042 00C7     		se_extzb %r7
 619 0044 907E     		se_stb %r7,0(%r30)
 620              	.LVL47:
 621              		.loc 5 31 0 discriminator 3
 622 0046 7A02FFE2 		e_bne %cr0,.L27
 623              	.LBE147:
 624              		.loc 5 35 0
 625 004a C901     		se_lwz %r0,36(%r1)
 626 004c 0090     		se_mtlr %r0
 627              		.cfi_restore 65
GAS LISTING C:\Users\Shehan\AppData\Local\Temp\cc6hUjm9.s 			page 12


 628 004e 1B61080C 		e_lmw %r27,12(%r1)
 629              	.LVL48:
 630 0052 21F1     		se_addi %r1,32
 631              	.LCFI14:
 632              		.cfi_restore 31
 633              		.cfi_restore 30
 634              		.cfi_restore 29
 635              		.cfi_restore 28
 636              		.cfi_restore 27
 637              		.cfi_def_cfa_offset 0
 638 0054 0004     		se_blr
 639              		.cfi_endproc
 640              	.LFE740:
 641              		.size	saradcconf_conv_cb, .-saradcconf_conv_cb
 642              		.section	.text._ZN7Channel15channel_on_implEv,"axv",@progbits
 643              		.align 1
 644              		.p2align 4,,15
 645              		.globl _ZN7Channel15channel_on_implEv
 646              		.type	_ZN7Channel15channel_on_implEv, @function
 647              	_ZN7Channel15channel_on_implEv:
 648              	.LFB747:
 649              		.file 6 "./source/APP/channel_class.hpp"
 650              		.loc 6 52 0
 651              		.cfi_startproc
 652              	.LVL49:
 653 0000 182106F0 		e_stwu %r1,-16(%r1)
 654              	.LCFI15:
 655              		.cfi_def_cfa_offset 16
 656 0004 0080     		se_mflr %r0
 657 0006 D3F1     		se_stw %r31,12(%r1)
 658 0008 D501     		se_stw %r0,20(%r1)
 659              		.cfi_offset 65, 4
 660              		.cfi_offset 31, -4
 661              		.loc 6 53 0
 662 000a C063     		se_lwz %r6,0(%r3)
 663 000c 2A06     		se_cmpi %r6,0
 664 000e 7A12001E 		e_beq %cr0,.L29
 665              		.loc 6 54 0
 666 0012 8176     		se_lbz %r7,1(%r6)
 667 0014 013F     		se_mr %r31,%r3
 668 0016 8066     		se_lbz %r6,0(%r6)
 669 0018 6C47     		se_slwi %r7, 4
 670 001a 0467     		se_add %r7,%r6
 671 001c 4816     		se_li %r6,1
 672 001e 73C797FC 		e_add2is %r7,0xf7fc
 673 0022 34C71300 		e_stb %r6,4864(%r7)
 674              		.loc 6 55 0
 675 0026 78000001 		e_bl osalThreadGetMicroseconds
 676              	.LVL50:
 677 002a D63F     		se_stw %r3,24(%r31)
 678              	.LVL51:
 679              	.L29:
 680              		.loc 6 57 0
 681 002c C501     		se_lwz %r0,20(%r1)
 682 002e 0090     		se_mtlr %r0
 683              		.cfi_restore 65
 684 0030 C3F1     		se_lwz %r31,12(%r1)
GAS LISTING C:\Users\Shehan\AppData\Local\Temp\cc6hUjm9.s 			page 13


 685 0032 20F1     		se_addi %r1,16
 686              	.LCFI16:
 687              		.cfi_restore 31
 688              		.cfi_def_cfa_offset 0
 689 0034 0004     		se_blr
 690              		.cfi_endproc
 691              	.LFE747:
 692              		.size	_ZN7Channel15channel_on_implEv, .-_ZN7Channel15channel_on_implEv
 693              		.section	.text._ZN7Channel16channel_off_implEv,"axv",@progbits
 694              		.align 1
 695              		.p2align 4,,15
 696              		.globl _ZN7Channel16channel_off_implEv
 697              		.type	_ZN7Channel16channel_off_implEv, @function
 698              	_ZN7Channel16channel_off_implEv:
 699              	.LFB748:
 700              		.loc 6 59 0
 701              		.cfi_startproc
 702              	.LVL52:
 703              		.loc 6 60 0
 704 0000 C063     		se_lwz %r6,0(%r3)
 705 0002 2A06     		se_cmpi %r6,0
 706 0004 7A120016 		e_beq %cr0,.L31
 707              		.loc 6 61 0
 708 0008 8176     		se_lbz %r7,1(%r6)
 709 000a 8066     		se_lbz %r6,0(%r6)
 710 000c 6C47     		se_slwi %r7, 4
 711 000e 0467     		se_add %r7,%r6
 712 0010 4806     		se_li %r6,0
 713 0012 73C797FC 		e_add2is %r7,0xf7fc
 714 0016 34C71300 		e_stb %r6,4864(%r7)
 715              	.L31:
 716 001a 0004     		se_blr
 717              		.cfi_endproc
 718              	.LFE748:
 719              		.size	_ZN7Channel16channel_off_implEv, .-_ZN7Channel16channel_off_implEv
 720              		.section	.text._ZN7Channel16latch_reset_implEv,"axv",@progbits
 721              		.align 1
 722              		.p2align 4,,15
 723              		.globl _ZN7Channel16latch_reset_implEv
 724              		.type	_ZN7Channel16latch_reset_implEv, @function
 725              	_ZN7Channel16latch_reset_implEv:
 726              	.LFB749:
 727              		.loc 6 65 0
 728              		.cfi_startproc
 729              	.LVL53:
 730              		.loc 6 66 0
 731 0000 4807     		se_li %r7,0
 732 0002 9573     		se_stb %r7,5(%r3)
 733              		.loc 6 67 0
 734 0004 9673     		se_stb %r7,6(%r3)
 735 0006 0004     		se_blr
 736              		.cfi_endproc
 737              	.LFE749:
 738              		.size	_ZN7Channel16latch_reset_implEv, .-_ZN7Channel16latch_reset_implEv
 739              		.section	.text._ZN7Channel16diagnose_en_implEv,"axv",@progbits
 740              		.align 1
 741              		.p2align 4,,15
GAS LISTING C:\Users\Shehan\AppData\Local\Temp\cc6hUjm9.s 			page 14


 742              		.globl _ZN7Channel16diagnose_en_implEv
 743              		.type	_ZN7Channel16diagnose_en_implEv, @function
 744              	_ZN7Channel16diagnose_en_implEv:
 745              	.LFB750:
 746              		.loc 6 70 0
 747              		.cfi_startproc
 748              	.LVL54:
 749              		.loc 6 72 0
 750 0000 C063     		se_lwz %r6,0(%r3)
 751 0002 2A06     		se_cmpi %r6,0
 752 0004 7A12001E 		e_beq %cr0,.L34
 753              		.loc 6 72 0 is_stmt 0 discriminator 1
 754 0008 8676     		se_lbz %r7,6(%r6)
 755 000a 2A17     		se_cmpi %r7,1
 756 000c 7A120018 		e_beq %cr0,.L38
 757              		.loc 6 81 0 is_stmt 1
 758 0010 8376     		se_lbz %r7,3(%r6)
 759 0012 8266     		se_lbz %r6,2(%r6)
 760 0014 6C47     		se_slwi %r7, 4
 761 0016 0467     		se_add %r7,%r6
 762 0018 4806     		se_li %r6,0
 763 001a 73C797FC 		e_add2is %r7,0xf7fc
 764 001e 34C71300 		e_stb %r6,4864(%r7)
 765              	.L34:
 766 0022 0004     		se_blr
 767              	.L38:
 768              		.loc 6 73 0
 769 0024 8356     		se_lbz %r5,3(%r6)
 770 0026 8246     		se_lbz %r4,2(%r6)
 771 0028 7CA62070 		e_slwi %r6,%r5,4
 772 002c 70BEE7FC 		e_lis %r5,0xf7fc
 773 0030 0446     		se_add %r6,%r4
 774 0032 7CC53214 		add %r6,%r5,%r6
 775 0036 34E61300 		e_stb %r7,4864(%r6)
 776              		.loc 6 74 0
 777 003a C063     		se_lwz %r6,0(%r3)
 778 003c 8776     		se_lbz %r7,7(%r6)
 779 003e 2A17     		se_cmpi %r7,1
 780 0040 7A120016 		e_beq %cr0,.L39
 781              		.loc 6 77 0
 782 0044 8576     		se_lbz %r7,5(%r6)
 783 0046 8466     		se_lbz %r6,4(%r6)
 784 0048 6C47     		se_slwi %r7, 4
 785 004a 0467     		se_add %r7,%r6
 786 004c 0475     		se_add %r5,%r7
 787 004e 4807     		se_li %r7,0
 788 0050 34E51300 		e_stb %r7,4864(%r5)
 789 0054 0004     		se_blr
 790              	.L39:
 791              		.loc 6 75 0
 792 0056 8436     		se_lbz %r3,4(%r6)
 793              	.LVL55:
 794 0058 8546     		se_lbz %r4,5(%r6)
 795 005a 7C862070 		e_slwi %r6,%r4,4
 796 005e 0436     		se_add %r6,%r3
 797 0060 0465     		se_add %r5,%r6
 798 0062 34E51300 		e_stb %r7,4864(%r5)
GAS LISTING C:\Users\Shehan\AppData\Local\Temp\cc6hUjm9.s 			page 15


 799 0066 0004     		se_blr
 800              		.cfi_endproc
 801              	.LFE750:
 802              		.size	_ZN7Channel16diagnose_en_implEv, .-_ZN7Channel16diagnose_en_implEv
 803              		.globl __floatunsisf
 804              		.globl __extendsfdf2
 805              		.globl __muldf3
 806              		.globl __subdf3
 807              		.globl __truncdfsf2
 808              		.globl __gtsf2
 809              		.section	.text._ZN7Channel11get_currentEv,"axv",@progbits
 810              		.align 1
 811              		.p2align 4,,15
 812              		.globl _ZN7Channel11get_currentEv
 813              		.type	_ZN7Channel11get_currentEv, @function
 814              	_ZN7Channel11get_currentEv:
 815              	.LFB751:
 816              		.loc 6 86 0
 817              		.cfi_startproc
 818              	.LVL56:
 819 0000 182106F0 		e_stwu %r1,-16(%r1)
 820              	.LCFI17:
 821              		.cfi_def_cfa_offset 16
 822 0004 0080     		se_mflr %r0
 823 0006 1BC10908 		e_stmw %r30,8(%r1)
 824 000a D501     		se_stw %r0,20(%r1)
 825              		.cfi_offset 65, 4
 826              		.cfi_offset 30, -8
 827              		.cfi_offset 31, -4
 828              		.loc 6 86 0
 829 000c 013F     		se_mr %r31,%r3
 830              	.LBB148:
 831              		.loc 6 87 0
 832 000e 78000001 		e_bl _ZN7Channel16diagnose_en_implEv
 833              	.LVL57:
 834              		.loc 6 88 0
 835 0012 4823     		se_li %r3,2
 836 0014 78000001 		e_bl osalThreadDelayMicroseconds
 837              	.LVL58:
 838              		.loc 6 89 0
 839 0018 C07F     		se_lwz %r7,0(%r31)
 840 001a 70C0E000 		e_lis %r6,.LANCHOR9@ha
 841 001e 8877     		se_lbz %r7,8(%r7)
 842 0020 1CC60000 		e_la %r6,.LANCHOR9@l(%r6)
 843 0024 6C27     		se_slwi %r7, 2
 844 0026 7C66382E 		lwzx %r3,%r6,%r7
 845              	.LVL59:
 846              		.loc 6 90 0
 847 002a 70E0E000 		e_lis %r7,.LANCHOR11@ha
 848 002e 54670000 		e_stw %r3,.LANCHOR11@l(%r7)
 849              		.loc 6 91 0
 850 0032 78000001 		e_bl __floatunsisf
 851              	.LVL60:
 852 0036 78000001 		e_bl __extendsfdf2
 853              	.LVL61:
 854 003a 70A7E783 		e_lis %r5,0x3f83
 855 003e 70C3E7B7 		e_lis %r6,0x1fb7
GAS LISTING C:\Users\Shehan\AppData\Local\Temp\cc6hUjm9.s 			page 16


 856 0042 70A9C25C 		e_or2i %r5,19036
 857 0046 70CCC763 		e_or2i %r6,26467
 858 004a 78000001 		e_bl __muldf3
 859              	.LVL62:
 860 004e 70A7E791 		e_lis %r5,0x3f91
 861 0052 70DBE2C4 		e_lis %r6,0xdac4
 862 0056 70A0C552 		e_or2i %r5,1362
 863 005a 70D8C509 		e_or2i %r6,50441
 864 005e 78000001 		e_bl __subdf3
 865              	.LVL63:
 866 0062 78000001 		e_bl __truncdfsf2
 867              	.LVL64:
 868              		.loc 6 92 0
 869 0066 509F0014 		e_lwz %r4,20(%r31)
 870              		.loc 6 91 0
 871 006a 013E     		se_mr %r30,%r3
 872 006c 547F0010 		e_stw %r3,16(%r31)
 873              		.loc 6 92 0
 874 0070 78000001 		e_bl __gtsf2
 875              	.LVL65:
 876 0074 2A03     		se_cmpi %r3,0
 877 0076 7A010018 		e_ble %cr0,.L41
 878              		.loc 6 93 0
 879 007a 57DF0014 		e_stw %r30,20(%r31)
 880              		.loc 6 94 0
 881 007e 78000001 		e_bl osalThreadGetMicroseconds
 882              	.LVL66:
 883              		.loc 6 95 0
 884 0082 C67F     		se_lwz %r7,24(%r31)
 885              		.loc 6 94 0
 886 0084 D83F     		se_stw %r3,32(%r31)
 887 0086 53DF0010 		e_lwz %r30,16(%r31)
 888              		.loc 6 95 0
 889 008a 0673     		se_sub %r3, %r7
 890 008c D93F     		se_stw %r3,36(%r31)
 891              	.L41:
 892              	.LBE148:
 893              		.loc 6 99 0
 894 008e C501     		se_lwz %r0,20(%r1)
 895 0090 0090     		se_mtlr %r0
 896              		.cfi_restore 65
 897 0092 01E3     		se_mr %r3,%r30
 898              	.LBB149:
 899              		.loc 6 97 0
 900 0094 4806     		se_li %r6,0
 901              	.LBE149:
 902              		.loc 6 99 0
 903 0096 1BC10808 		e_lmw %r30,8(%r1)
 904              	.LVL67:
 905              	.LBB150:
 906              		.loc 6 97 0
 907 009a 70E0E000 		e_lis %r7,.LANCHOR10@ha
 908              	.LBE150:
 909              		.loc 6 99 0
 910              	.LBB151:
 911              		.loc 6 97 0
 912 009e 34C70000 		e_stb %r6,.LANCHOR10@l(%r7)
GAS LISTING C:\Users\Shehan\AppData\Local\Temp\cc6hUjm9.s 			page 17


 913              	.LBE151:
 914              		.loc 6 99 0
 915 00a2 20F1     		se_addi %r1,16
 916              	.LCFI18:
 917              		.cfi_restore 31
 918              		.cfi_restore 30
 919              		.cfi_def_cfa_offset 0
 920 00a4 0004     		se_blr
 921              		.cfi_endproc
 922              	.LFE751:
 923              		.size	_ZN7Channel11get_currentEv, .-_ZN7Channel11get_currentEv
 924              		.globl __floatsisf
 925              		.globl __gesf2
 926              		.section	.text._ZN7Channel14evaluate_faultEv,"axv",@progbits
 927              		.align 1
 928              		.p2align 4,,15
 929              		.globl _ZN7Channel14evaluate_faultEv
 930              		.type	_ZN7Channel14evaluate_faultEv, @function
 931              	_ZN7Channel14evaluate_faultEv:
 932              	.LFB752:
 933              		.loc 6 101 0
 934              		.cfi_startproc
 935              	.LVL68:
 936 0000 182106F0 		e_stwu %r1,-16(%r1)
 937              	.LCFI19:
 938              		.cfi_def_cfa_offset 16
 939 0004 0080     		se_mflr %r0
 940 0006 D3F1     		se_stw %r31,12(%r1)
 941 0008 D501     		se_stw %r0,20(%r1)
 942              		.cfi_offset 65, 4
 943              		.cfi_offset 31, -4
 944              		.loc 6 101 0
 945 000a 013F     		se_mr %r31,%r3
 946              		.loc 6 103 0
 947 000c 78000001 		e_bl _ZN7Channel11get_currentEv
 948              	.LVL69:
 949 0010 547F0010 		e_stw %r3,16(%r31)
 950              		.loc 6 104 0
 951 0014 78000001 		e_bl osalThreadGetMicroseconds
 952              	.LVL70:
 953 0018 C67F     		se_lwz %r7,24(%r31)
 954              		.loc 6 105 0
 955 001a A66F     		se_lhz %r6,12(%r31)
 956              		.loc 6 104 0
 957 001c 0673     		se_sub %r3, %r7
 958 001e D73F     		se_stw %r3,28(%r31)
 959              		.loc 6 105 0
 960 0020 0D63     		se_cmpl %r3,%r6
 961 0022 7A11002A 		e_bgt %cr0,.L45
 962              		.loc 6 106 0
 963 0026 A53F     		se_lhz %r3,10(%r31)
 964 0028 78000001 		e_bl __floatsisf
 965              	.LVL71:
 966 002c 0134     		se_mr %r4,%r3
 967 002e 507F0010 		e_lwz %r3,16(%r31)
 968 0032 78000001 		e_bl __gesf2
 969              	.LVL72:
GAS LISTING C:\Users\Shehan\AppData\Local\Temp\cc6hUjm9.s 			page 18


 970 0036 2A03     		se_cmpi %r3,0
 971 0038 7A10002A 		e_blt %cr0,.L46
 972              	.L50:
 973              		.loc 6 116 0
 974 003c C501     		se_lwz %r0,20(%r1)
 975 003e 0090     		se_mtlr %r0
 976              		.cfi_remember_state
 977              		.cfi_restore 65
 978 0040 4813     		se_li %r3,1
 979              		.loc 6 107 0
 980 0042 4817     		se_li %r7,1
 981 0044 957F     		se_stb %r7,5(%r31)
 982              		.loc 6 116 0
 983 0046 C3F1     		se_lwz %r31,12(%r1)
 984              	.LVL73:
 985 0048 20F1     		se_addi %r1,16
 986              	.LCFI20:
 987              		.cfi_restore 31
 988              		.cfi_def_cfa_offset 0
 989 004a 0004     		se_blr
 990              	.LVL74:
 991              	.L45:
 992              	.LCFI21:
 993              		.cfi_restore_state
 994              		.loc 6 111 0
 995 004c A43F     		se_lhz %r3,8(%r31)
 996              		.loc 6 106 0
 997 004e 78000001 		e_bl __floatsisf
 998              	.LVL75:
 999 0052 0134     		se_mr %r4,%r3
 1000 0054 507F0010 		e_lwz %r3,16(%r31)
 1001 0058 78000001 		e_bl __gesf2
 1002              	.LVL76:
 1003 005c 2A03     		se_cmpi %r3,0
 1004 005e 7A00FFDE 		e_bge %cr0,.L50
 1005              	.L46:
 1006              		.loc 6 116 0
 1007 0062 C501     		se_lwz %r0,20(%r1)
 1008 0064 0090     		se_mtlr %r0
 1009              		.cfi_restore 65
 1010 0066 C3F1     		se_lwz %r31,12(%r1)
 1011              	.LVL77:
 1012 0068 20F1     		se_addi %r1,16
 1013              	.LCFI22:
 1014              		.cfi_restore 31
 1015              		.cfi_def_cfa_offset 0
 1016 006a 0004     		se_blr
 1017              		.cfi_endproc
 1018              	.LFE752:
 1019              		.size	_ZN7Channel14evaluate_faultEv, .-_ZN7Channel14evaluate_faultEv
 1020              		.section	.text._ZN7Channel8activateEv,"axv",@progbits
 1021              		.align 1
 1022              		.p2align 4,,15
 1023              		.globl _ZN7Channel8activateEv
 1024              		.type	_ZN7Channel8activateEv, @function
 1025              	_ZN7Channel8activateEv:
 1026              	.LFB753:
GAS LISTING C:\Users\Shehan\AppData\Local\Temp\cc6hUjm9.s 			page 19


 1027              		.loc 6 119 0
 1028              		.cfi_startproc
 1029              	.LVL78:
 1030 0000 182106F8 		e_stwu %r1,-8(%r1)
 1031              	.LCFI23:
 1032              		.cfi_def_cfa_offset 8
 1033 0004 0080     		se_mflr %r0
 1034 0006 D301     		se_stw %r0,12(%r1)
 1035              		.cfi_offset 65, 4
 1036              		.loc 6 121 0
 1037 0008 8453     		se_lbz %r5,4(%r3)
 1038 000a 2A05     		se_cmpi %r5,0
 1039 000c 7A020024 		e_bne %cr0,.L54
 1040              	.LVL79:
 1041              	.LBB154:
 1042              	.LBB155:
 1043              		.loc 6 60 0
 1044 0010 C063     		se_lwz %r6,0(%r3)
 1045 0012 2A06     		se_cmpi %r6,0
 1046 0014 7A120014 		e_beq %cr0,.L53
 1047              		.loc 6 61 0
 1048 0018 8176     		se_lbz %r7,1(%r6)
 1049 001a 8066     		se_lbz %r6,0(%r6)
 1050 001c 6C47     		se_slwi %r7, 4
 1051 001e 0467     		se_add %r7,%r6
 1052 0020 73C797FC 		e_add2is %r7,0xf7fc
 1053 0024 34A71300 		e_stb %r5,4864(%r7)
 1054              	.L53:
 1055              	.LBE155:
 1056              	.LBE154:
 1057              		.loc 6 149 0
 1058 0028 C301     		se_lwz %r0,12(%r1)
 1059 002a 0090     		se_mtlr %r0
 1060              		.cfi_remember_state
 1061              		.cfi_restore 65
 1062              	.LVL80:
 1063 002c 2071     		se_addi %r1,8
 1064              	.LCFI24:
 1065              		.cfi_def_cfa_offset 0
 1066 002e 0004     		se_blr
 1067              	.LVL81:
 1068              	.L54:
 1069              	.LCFI25:
 1070              		.cfi_restore_state
 1071              		.loc 6 143 0
 1072 0030 78000001 		e_bl _ZN7Channel15channel_on_implEv
 1073              	.LVL82:
 1074              		.loc 6 149 0
 1075 0034 C301     		se_lwz %r0,12(%r1)
 1076 0036 0090     		se_mtlr %r0
 1077              		.cfi_restore 65
 1078 0038 2071     		se_addi %r1,8
 1079              	.LCFI26:
 1080              		.cfi_def_cfa_offset 0
 1081 003a 0004     		se_blr
 1082              		.cfi_endproc
 1083              	.LFE753:
GAS LISTING C:\Users\Shehan\AppData\Local\Temp\cc6hUjm9.s 			page 20


 1084              		.size	_ZN7Channel8activateEv, .-_ZN7Channel8activateEv
 1085              		.section	.text._ZN12latch_Device8activateEv,"axvG",@progbits,_ZN12latch_Device8activateEv,comdat
 1086              		.align 1
 1087              		.p2align 4,,15
 1088              		.weak	_ZN12latch_Device8activateEv
 1089              		.type	_ZN12latch_Device8activateEv, @function
 1090              	_ZN12latch_Device8activateEv:
 1091              	.LFB774:
 1092              		.loc 1 110 0
 1093              		.cfi_startproc
 1094              	.LVL83:
 1095              		.loc 1 113 0
 1096 0000 30E30014 		e_lbz %r7,20(%r3)
 1097              		.loc 1 115 0
 1098 0004 C133     		se_lwz %r3,4(%r3)
 1099              	.LVL84:
 1100              		.loc 1 113 0
 1101 0006 2A07     		se_cmpi %r7,0
 1102 0008 7A02000A 		e_bne %cr0,.L58
 1103              		.loc 1 119 0
 1104 000c 9473     		se_stb %r7,4(%r3)
 1105              		.loc 1 122 0
 1106              		.loc 1 121 0
 1107 000e 78000000 		e_b _ZN7Channel8activateEv
 1108              	.LVL85:
 1109              	.L58:
 1110              		.loc 1 115 0
 1111 0012 4817     		se_li %r7,1
 1112 0014 9473     		se_stb %r7,4(%r3)
 1113              		.loc 1 122 0
 1114              		.loc 1 121 0
 1115 0016 78000000 		e_b _ZN7Channel8activateEv
 1116              	.LVL86:
 1117              		.cfi_endproc
 1118              	.LFE774:
 1119              		.size	_ZN12latch_Device8activateEv, .-_ZN12latch_Device8activateEv
 1120              		.section	.text._ZN13toggle_Device8activateEv,"axvG",@progbits,_ZN13toggle_Device8activateEv,comdat
 1121              		.align 1
 1122              		.p2align 4,,15
 1123              		.weak	_ZN13toggle_Device8activateEv
 1124              		.type	_ZN13toggle_Device8activateEv, @function
 1125              	_ZN13toggle_Device8activateEv:
 1126              	.LFB780:
 1127              		.loc 1 152 0
 1128              		.cfi_startproc
 1129              	.LVL87:
 1130              		.loc 1 155 0
 1131 0000 30E30014 		e_lbz %r7,20(%r3)
 1132 0004 2A07     		se_cmpi %r7,0
 1133 0006 7A12002A 		e_beq %cr0,.L60
 1134              		.loc 1 157 0
 1135 000a A973     		se_lhz %r7,18(%r3)
 1136 000c 7007A9F3 		e_cmpl16i %r7,499
 1137 0010 7A11002E 		e_bgt %cr0,.L61
 1138 0014 18C78001 		e_addi %r6,%r7,1
 1139 0018 30E30016 		e_lbz %r7,22(%r3)
 1140 001c 00E6     		se_extzh %r6
GAS LISTING C:\Users\Shehan\AppData\Local\Temp\cc6hUjm9.s 			page 21


 1141              	.L62:
 1142              		.loc 1 162 0
 1143 001e B963     		se_sth %r6,18(%r3)
 1144              		.loc 1 169 0
 1145 0020 2A07     		se_cmpi %r7,0
 1146 0022 7A120012 		e_beq %cr0,.L64
 1147              		.loc 1 171 0
 1148 0026 C133     		se_lwz %r3,4(%r3)
 1149              	.LVL88:
 1150 0028 4817     		se_li %r7,1
 1151 002a 9473     		se_stb %r7,4(%r3)
 1152              		.loc 1 178 0
 1153              		.loc 1 177 0
 1154 002c 78000000 		e_b _ZN7Channel8activateEv
 1155              	.LVL89:
 1156              	.L60:
 1157              		.loc 1 166 0
 1158 0030 34E30016 		e_stb %r7,22(%r3)
 1159              	.L64:
 1160              		.loc 1 175 0
 1161 0034 C133     		se_lwz %r3,4(%r3)
 1162              	.LVL90:
 1163 0036 4807     		se_li %r7,0
 1164 0038 9473     		se_stb %r7,4(%r3)
 1165              		.loc 1 178 0
 1166              		.loc 1 177 0
 1167 003a 78000000 		e_b _ZN7Channel8activateEv
 1168              	.LVL91:
 1169              	.L61:
 1170              		.loc 1 160 0
 1171 003e 30E30016 		e_lbz %r7,22(%r3)
 1172 0042 4816     		se_li %r6,1
 1173 0044 18E7E001 		e_xori %r7,%r7,1
 1174 0048 34E30016 		e_stb %r7,22(%r3)
 1175 004c 79FFFFD2 		e_b .L62
 1176              		.cfi_endproc
 1177              	.LFE780:
 1178              		.size	_ZN13toggle_Device8activateEv, .-_ZN13toggle_Device8activateEv
 1179              		.section	.text._ZN16momentary_Device8activateEv,"axvG",@progbits,_ZN16momentary_Device8activateEv,
 1180              		.align 1
 1181              		.p2align 4,,15
 1182              		.weak	_ZN16momentary_Device8activateEv
 1183              		.type	_ZN16momentary_Device8activateEv, @function
 1184              	_ZN16momentary_Device8activateEv:
 1185              	.LFB768:
 1186              		.loc 1 69 0
 1187              		.cfi_startproc
 1188              	.LVL92:
 1189              		.loc 1 72 0
 1190 0000 30E30014 		e_lbz %r7,20(%r3)
 1191              		.loc 1 74 0
 1192 0004 C133     		se_lwz %r3,4(%r3)
 1193              	.LVL93:
 1194              		.loc 1 72 0
 1195 0006 2A07     		se_cmpi %r7,0
 1196 0008 7A02000A 		e_bne %cr0,.L69
 1197              		.loc 1 78 0
GAS LISTING C:\Users\Shehan\AppData\Local\Temp\cc6hUjm9.s 			page 22


 1198 000c 9473     		se_stb %r7,4(%r3)
 1199              		.loc 1 81 0
 1200              		.loc 1 80 0
 1201 000e 78000000 		e_b _ZN7Channel8activateEv
 1202              	.LVL94:
 1203              	.L69:
 1204              		.loc 1 74 0
 1205 0012 4817     		se_li %r7,1
 1206 0014 9473     		se_stb %r7,4(%r3)
 1207              		.loc 1 81 0
 1208              		.loc 1 80 0
 1209 0016 78000000 		e_b _ZN7Channel8activateEv
 1210              	.LVL95:
 1211              		.cfi_endproc
 1212              	.LFE768:
 1213              		.size	_ZN16momentary_Device8activateEv, .-_ZN16momentary_Device8activateEv
 1214              		.section	.text._Z31initialize_channels_from_configP13pinconfigTypeP7Channel,"axv",@progbits
 1215              		.align 1
 1216              		.p2align 4,,15
 1217              		.globl _Z31initialize_channels_from_configP13pinconfigTypeP7Channel
 1218              		.type	_Z31initialize_channels_from_configP13pinconfigTypeP7Channel, @function
 1219              	_Z31initialize_channels_from_configP13pinconfigTypeP7Channel:
 1220              	.LFB754:
 1221              		.loc 6 151 0
 1222              		.cfi_startproc
 1223              	.LVL96:
 1224              		.loc 6 151 0
 1225 0000 4806     		se_li %r6,0
 1226              	.LBB156:
 1227              		.loc 6 154 0
 1228 0002 4805     		se_li %r5,0
 1229 0004 4A80     		se_li %r0,40
 1230              	.LVL97:
 1231              	.L71:
 1232              		.loc 6 154 0 is_stmt 0 discriminator 3
 1233 0006 0147     		se_mr %r7,%r4
 1234 0008 7C67316E 		stwux %r3,%r7,%r6
 1235 000c 0406     		se_add %r6,%r0
 1236 000e 9557     		se_stb %r5,5(%r7)
 1237 0010 9657     		se_stb %r5,6(%r7)
 1238 0012 2093     		se_addi %r3,10
 1239              	.LVL98:
 1240              		.loc 6 152 0 is_stmt 1 discriminator 3
 1241 0014 7006A8F0 		e_cmpl16i %r6,240
 1242 0018 7A02FFEE 		e_bne %cr0,.L71
 1243              	.LBE156:
 1244              		.loc 6 156 0
 1245 001c 0004     		se_blr
 1246              		.cfi_endproc
 1247              	.LFE754:
 1248              		.size	_Z31initialize_channels_from_configP13pinconfigTypeP7Channel, .-_Z31initialize_channels_from
 1249              		.section	.text._Z12button_stateP13buttonInput_t,"axv",@progbits
 1250              		.align 1
 1251              		.p2align 4,,15
 1252              		.globl _Z12button_stateP13buttonInput_t
 1253              		.type	_Z12button_stateP13buttonInput_t, @function
 1254              	_Z12button_stateP13buttonInput_t:
GAS LISTING C:\Users\Shehan\AppData\Local\Temp\cc6hUjm9.s 			page 23


 1255              	.LFB755:
 1256              		.file 7 "./source/MCAL/button.h"
 1257              		.loc 7 32 0
 1258              		.cfi_startproc
 1259              	.LVL99:
 1260              		.loc 7 32 0
 1261 0000 0137     		se_mr %r7,%r3
 1262              		.loc 7 34 0
 1263 0002 C133     		se_lwz %r3,4(%r3)
 1264              	.LVL100:
 1265 0004 2223     		se_cmpli %r3,3
 1266 0006 7A11007A 		e_bgt %cr0,.L74
 1267 000a 7C651070 		e_slwi %r5,%r3,2
 1268 000e 70C0E000 		e_lis %r6,.L76@ha
 1269 0012 1CC60000 		e_la %r6,.L76@l(%r6)
 1270 0016 7CA6282E 		lwzx %r5,%r6,%r5
 1271 001a 7CC53214 		add %r6,%r5,%r6
 1272 001e 00B6     		se_mtctr %r6
 1273 0020 0006     		se_bctr
 1274              		.section	.rodata._Z12button_stateP13buttonInput_t,"a",@progbits
 1275              		.align 2
 1276              		.align 2
 1277              	.L76:
 1278 0000 00000000 		.long .L75-.L76
 1279 0004 00000000 		.long .L77-.L76
 1280 0008 00000000 		.long .L78-.L76
 1281 000c 00000000 		.long .L79-.L76
 1282              		.section	.text._Z12button_stateP13buttonInput_t
 1283              	.L78:
 1284              		.loc 7 64 0
 1285 0022 8067     		se_lbz %r6,0(%r7)
 1286 0024 2A06     		se_cmpi %r6,0
 1287 0026 7A020060 		e_bne %cr0,.L82
 1288              		.loc 7 65 0
 1289 002a 4836     		se_li %r6,3
 1290 002c 4833     		se_li %r3,3
 1291 002e D167     		se_stw %r6,4(%r7)
 1292              		.loc 7 66 0
 1293 0030 4826     		se_li %r6,2
 1294 0032 D267     		se_stw %r6,8(%r7)
 1295 0034 0004     		se_blr
 1296              	.L77:
 1297              		.loc 7 51 0
 1298 0036 8067     		se_lbz %r6,0(%r7)
 1299 0038 2A16     		se_cmpi %r6,1
 1300 003a 7A12005A 		e_beq %cr0,.L86
 1301              		.loc 7 58 0
 1302 003e 4836     		se_li %r6,3
 1303              		.loc 7 59 0
 1304 0040 4833     		se_li %r3,3
 1305              		.loc 7 58 0
 1306 0042 D167     		se_stw %r6,4(%r7)
 1307              		.loc 7 59 0
 1308 0044 4816     		se_li %r6,1
 1309 0046 D267     		se_stw %r6,8(%r7)
 1310 0048 0004     		se_blr
 1311              	.L79:
GAS LISTING C:\Users\Shehan\AppData\Local\Temp\cc6hUjm9.s 			page 24


 1312              		.loc 7 71 0
 1313 004a 8057     		se_lbz %r5,0(%r7)
 1314 004c 2A05     		se_cmpi %r5,0
 1315 004e 7A02003A 		e_bne %cr0,.L85
 1316              		.loc 7 72 0
 1317 0052 A867     		se_lhz %r6,16(%r7)
 1318 0054 2006     		se_addi %r6,1
 1319 0056 00E6     		se_extzh %r6
 1320 0058 B867     		se_sth %r6,16(%r7)
 1321              		.loc 7 73 0
 1322 005a 7006A832 		e_cmpl16i %r6,50
 1323 005e 7A010028 		e_ble %cr0,.L82
 1324              		.loc 7 75 0
 1325 0062 4836     		se_li %r6,3
 1326              		.loc 7 74 0
 1327 0064 D157     		se_stw %r5,4(%r7)
 1328              		.loc 7 75 0
 1329 0066 D267     		se_stw %r6,8(%r7)
 1330 0068 4803     		se_li %r3,0
 1331 006a 0004     		se_blr
 1332              	.L75:
 1333              		.loc 7 36 0
 1334 006c 8057     		se_lbz %r5,0(%r7)
 1335 006e 2A15     		se_cmpi %r5,1
 1336 0070 7A120034 		e_beq %cr0,.L87
 1337              		.loc 7 43 0
 1338 0074 4806     		se_li %r6,0
 1339 0076 B667     		se_sth %r6,12(%r7)
 1340              	.L81:
 1341              		.loc 7 46 0
 1342 0078 4806     		se_li %r6,0
 1343 007a B767     		se_sth %r6,14(%r7)
 1344              		.loc 7 47 0
 1345 007c B867     		se_sth %r6,16(%r7)
 1346              		.loc 7 48 0
 1347 007e 0004     		se_blr
 1348              	.L74:
 1349              		.loc 7 85 0
 1350 0080 4806     		se_li %r6,0
 1351              		.loc 7 86 0
 1352 0082 4803     		se_li %r3,0
 1353              		.loc 7 85 0
 1354 0084 D167     		se_stw %r6,4(%r7)
 1355              	.L82:
 1356              		.loc 7 90 0
 1357 0086 0004     		se_blr
 1358              	.L85:
 1359              		.loc 7 78 0
 1360 0088 4816     		se_li %r6,1
 1361              		.loc 7 79 0
 1362 008a 4813     		se_li %r3,1
 1363              		.loc 7 78 0
 1364 008c D167     		se_stw %r6,4(%r7)
 1365              		.loc 7 79 0
 1366 008e 4806     		se_li %r6,0
 1367 0090 B867     		se_sth %r6,16(%r7)
 1368 0092 0004     		se_blr
GAS LISTING C:\Users\Shehan\AppData\Local\Temp\cc6hUjm9.s 			page 25


 1369              	.L86:
 1370              		.loc 7 52 0
 1371 0094 A767     		se_lhz %r6,14(%r7)
 1372 0096 7006A9F3 		e_cmpl16i %r6,499
 1373 009a 7A110024 		e_bgt %cr0,.L84
 1374              		.loc 7 53 0
 1375 009e 2006     		se_addi %r6,1
 1376 00a0 B767     		se_sth %r6,14(%r7)
 1377 00a2 0004     		se_blr
 1378              	.L87:
 1379              		.loc 7 37 0
 1380 00a4 A667     		se_lhz %r6,12(%r7)
 1381 00a6 2006     		se_addi %r6,1
 1382 00a8 00E6     		se_extzh %r6
 1383 00aa B667     		se_sth %r6,12(%r7)
 1384              		.loc 7 38 0
 1385 00ac 2336     		se_cmpli %r6,20
 1386 00ae 7A01FFCA 		e_ble %cr0,.L81
 1387              		.loc 7 40 0
 1388 00b2 4806     		se_li %r6,0
 1389              		.loc 7 39 0
 1390 00b4 D157     		se_stw %r5,4(%r7)
 1391              		.loc 7 40 0
 1392 00b6 B667     		se_sth %r6,12(%r7)
 1393 00b8 4813     		se_li %r3,1
 1394 00ba 79FFFFBE 		e_b .L81
 1395              	.L84:
 1396              		.loc 7 55 0
 1397 00be 4826     		se_li %r6,2
 1398 00c0 4823     		se_li %r3,2
 1399 00c2 D167     		se_stw %r6,4(%r7)
 1400 00c4 0004     		se_blr
 1401              		.cfi_endproc
 1402              	.LFE755:
 1403              		.size	_Z12button_stateP13buttonInput_t, .-_Z12button_stateP13buttonInput_t
 1404              		.section	.text._ZN12latch_Device14evaluate_pressEv,"axvG",@progbits,_ZN12latch_Device14evaluate_pr
 1405              		.align 1
 1406              		.p2align 4,,15
 1407              		.weak	_ZN12latch_Device14evaluate_pressEv
 1408              		.type	_ZN12latch_Device14evaluate_pressEv, @function
 1409              	_ZN12latch_Device14evaluate_pressEv:
 1410              	.LFB772:
 1411              		.loc 1 92 0
 1412              		.cfi_startproc
 1413              	.LVL101:
 1414 0000 182106F0 		e_stwu %r1,-16(%r1)
 1415              	.LCFI27:
 1416              		.cfi_def_cfa_offset 16
 1417 0004 0080     		se_mflr %r0
 1418 0006 D3F1     		se_stw %r31,12(%r1)
 1419 0008 D501     		se_stw %r0,20(%r1)
 1420              		.cfi_offset 65, 4
 1421              		.cfi_offset 31, -4
 1422              		.loc 1 92 0
 1423 000a 013F     		se_mr %r31,%r3
 1424              		.loc 1 94 0
 1425 000c C233     		se_lwz %r3,8(%r3)
GAS LISTING C:\Users\Shehan\AppData\Local\Temp\cc6hUjm9.s 			page 26


 1426              	.LVL102:
 1427 000e 78000001 		e_bl _Z12button_stateP13buttonInput_t
 1428              	.LVL103:
 1429              		.loc 1 95 0
 1430 0012 C26F     		se_lwz %r6,8(%r31)
 1431              		.loc 1 101 0
 1432 0014 4803     		se_li %r3,0
 1433              		.loc 1 95 0
 1434 0016 C176     		se_lwz %r7,4(%r6)
 1435 0018 2A37     		se_cmpi %r7,3
 1436 001a 7A12000E 		e_beq %cr0,.L91
 1437              		.loc 1 103 0
 1438 001e C501     		se_lwz %r0,20(%r1)
 1439 0020 0090     		se_mtlr %r0
 1440              		.cfi_remember_state
 1441              		.cfi_restore 65
 1442 0022 C3F1     		se_lwz %r31,12(%r1)
 1443              	.LVL104:
 1444 0024 20F1     		se_addi %r1,16
 1445              	.LCFI28:
 1446              		.cfi_restore 31
 1447              		.cfi_def_cfa_offset 0
 1448 0026 0004     		se_blr
 1449              	.LVL105:
 1450              	.L91:
 1451              	.LCFI29:
 1452              		.cfi_restore_state
 1453              		.loc 1 103 0 is_stmt 0 discriminator 1
 1454 0028 C501     		se_lwz %r0,20(%r1)
 1455 002a 0090     		se_mtlr %r0
 1456              		.cfi_restore 65
 1457              		.loc 1 95 0 is_stmt 1 discriminator 1
 1458 002c C236     		se_lwz %r3,8(%r6)
 1459              		.loc 1 103 0 discriminator 1
 1460 002e C3F1     		se_lwz %r31,12(%r1)
 1461              	.LVL106:
 1462              		.loc 1 95 0 discriminator 1
 1463 0030 186384FF 		e_addi %r3,%r3,-1
 1464              		.loc 1 103 0 discriminator 1
 1465              		.loc 1 95 0 discriminator 1
 1466 0034 1863B001 		e_subfic %r3,%r3,1
 1467 0038 4803     		se_li %r3,0
 1468 003a 7C631914 		adde %r3,%r3,%r3
 1469              		.loc 1 103 0 discriminator 1
 1470 003e 20F1     		se_addi %r1,16
 1471              	.LCFI30:
 1472              		.cfi_restore 31
 1473              		.cfi_def_cfa_offset 0
 1474 0040 0004     		se_blr
 1475              		.cfi_endproc
 1476              	.LFE772:
 1477              		.size	_ZN12latch_Device14evaluate_pressEv, .-_ZN12latch_Device14evaluate_pressEv
 1478              		.section	.text._ZN13toggle_Device14evaluate_pressEv,"axvG",@progbits,_ZN13toggle_Device14evaluate_
 1479              		.align 1
 1480              		.p2align 4,,15
 1481              		.weak	_ZN13toggle_Device14evaluate_pressEv
 1482              		.type	_ZN13toggle_Device14evaluate_pressEv, @function
GAS LISTING C:\Users\Shehan\AppData\Local\Temp\cc6hUjm9.s 			page 27


 1483              	_ZN13toggle_Device14evaluate_pressEv:
 1484              	.LFB778:
 1485              		.loc 1 135 0
 1486              		.cfi_startproc
 1487              	.LVL107:
 1488 0000 182106F0 		e_stwu %r1,-16(%r1)
 1489              	.LCFI31:
 1490              		.cfi_def_cfa_offset 16
 1491 0004 0080     		se_mflr %r0
 1492 0006 D3F1     		se_stw %r31,12(%r1)
 1493 0008 D501     		se_stw %r0,20(%r1)
 1494              		.cfi_offset 65, 4
 1495              		.cfi_offset 31, -4
 1496              		.loc 1 135 0
 1497 000a 013F     		se_mr %r31,%r3
 1498              		.loc 1 136 0
 1499 000c C233     		se_lwz %r3,8(%r3)
 1500              	.LVL108:
 1501 000e 78000001 		e_bl _Z12button_stateP13buttonInput_t
 1502              	.LVL109:
 1503              		.loc 1 137 0
 1504 0012 C26F     		se_lwz %r6,8(%r31)
 1505              		.loc 1 143 0
 1506 0014 4803     		se_li %r3,0
 1507              		.loc 1 137 0
 1508 0016 C176     		se_lwz %r7,4(%r6)
 1509 0018 2A37     		se_cmpi %r7,3
 1510 001a 7A12000E 		e_beq %cr0,.L95
 1511              		.loc 1 145 0
 1512 001e C501     		se_lwz %r0,20(%r1)
 1513 0020 0090     		se_mtlr %r0
 1514              		.cfi_remember_state
 1515              		.cfi_restore 65
 1516 0022 C3F1     		se_lwz %r31,12(%r1)
 1517              	.LVL110:
 1518 0024 20F1     		se_addi %r1,16
 1519              	.LCFI32:
 1520              		.cfi_restore 31
 1521              		.cfi_def_cfa_offset 0
 1522 0026 0004     		se_blr
 1523              	.LVL111:
 1524              	.L95:
 1525              	.LCFI33:
 1526              		.cfi_restore_state
 1527              		.loc 1 145 0 is_stmt 0 discriminator 1
 1528 0028 C501     		se_lwz %r0,20(%r1)
 1529 002a 0090     		se_mtlr %r0
 1530              		.cfi_restore 65
 1531              		.loc 1 137 0 is_stmt 1 discriminator 1
 1532 002c C236     		se_lwz %r3,8(%r6)
 1533              		.loc 1 145 0 discriminator 1
 1534 002e C3F1     		se_lwz %r31,12(%r1)
 1535              	.LVL112:
 1536              		.loc 1 137 0 discriminator 1
 1537 0030 186384FF 		e_addi %r3,%r3,-1
 1538              		.loc 1 145 0 discriminator 1
 1539              		.loc 1 137 0 discriminator 1
GAS LISTING C:\Users\Shehan\AppData\Local\Temp\cc6hUjm9.s 			page 28


 1540 0034 1863B001 		e_subfic %r3,%r3,1
 1541 0038 4803     		se_li %r3,0
 1542 003a 7C631914 		adde %r3,%r3,%r3
 1543              		.loc 1 145 0 discriminator 1
 1544 003e 20F1     		se_addi %r1,16
 1545              	.LCFI34:
 1546              		.cfi_restore 31
 1547              		.cfi_def_cfa_offset 0
 1548 0040 0004     		se_blr
 1549              		.cfi_endproc
 1550              	.LFE778:
 1551              		.size	_ZN13toggle_Device14evaluate_pressEv, .-_ZN13toggle_Device14evaluate_pressEv
 1552              		.section	.text._ZN16momentary_Device14evaluate_pressEv,"axvG",@progbits,_ZN16momentary_Device14eva
 1553              		.align 1
 1554              		.p2align 4,,15
 1555              		.weak	_ZN16momentary_Device14evaluate_pressEv
 1556              		.type	_ZN16momentary_Device14evaluate_pressEv, @function
 1557              	_ZN16momentary_Device14evaluate_pressEv:
 1558              	.LFB766:
 1559              		.loc 1 52 0
 1560              		.cfi_startproc
 1561              	.LVL113:
 1562 0000 182106F0 		e_stwu %r1,-16(%r1)
 1563              	.LCFI35:
 1564              		.cfi_def_cfa_offset 16
 1565 0004 0080     		se_mflr %r0
 1566 0006 D3F1     		se_stw %r31,12(%r1)
 1567 0008 D501     		se_stw %r0,20(%r1)
 1568              		.cfi_offset 65, 4
 1569              		.cfi_offset 31, -4
 1570              		.loc 1 52 0
 1571 000a 013F     		se_mr %r31,%r3
 1572              		.loc 1 53 0
 1573 000c C233     		se_lwz %r3,8(%r3)
 1574              	.LVL114:
 1575 000e 78000001 		e_bl _Z12button_stateP13buttonInput_t
 1576              	.LVL115:
 1577              		.loc 1 54 0
 1578 0012 C27F     		se_lwz %r7,8(%r31)
 1579              		.loc 1 60 0
 1580 0014 4803     		se_li %r3,0
 1581              		.loc 1 54 0
 1582 0016 C177     		se_lwz %r7,4(%r7)
 1583 0018 18E784FF 		e_addi %r7,%r7,-1
 1584 001c 2207     		se_cmpli %r7,1
 1585 001e 7A110014 		e_bgt %cr0,.L97
 1586              	.LVL116:
 1587              	.LBB159:
 1588              	.LBB160:
 1589              		.loc 1 55 0
 1590 0022 70C0E000 		e_lis %r6,.LANCHOR12@ha
 1591 0026 4813     		se_li %r3,1
 1592 0028 30E60000 		e_lbz %r7,.LANCHOR12@l(%r6)
 1593 002c 2007     		se_addi %r7,1
 1594 002e 34E60000 		e_stb %r7,.LANCHOR12@l(%r6)
 1595              	.LVL117:
 1596              	.L97:
GAS LISTING C:\Users\Shehan\AppData\Local\Temp\cc6hUjm9.s 			page 29


 1597              	.LBE160:
 1598              	.LBE159:
 1599              		.loc 1 62 0
 1600 0032 C501     		se_lwz %r0,20(%r1)
 1601 0034 0090     		se_mtlr %r0
 1602              		.cfi_restore 65
 1603 0036 C3F1     		se_lwz %r31,12(%r1)
 1604              	.LVL118:
 1605 0038 20F1     		se_addi %r1,16
 1606              	.LCFI36:
 1607              		.cfi_restore 31
 1608              		.cfi_def_cfa_offset 0
 1609 003a 0004     		se_blr
 1610              		.cfi_endproc
 1611              	.LFE766:
 1612              		.size	_ZN16momentary_Device14evaluate_pressEv, .-_ZN16momentary_Device14evaluate_pressEv
 1613              		.section	.text._ZN16HeadLight_Module8activateEv,"axv",@progbits
 1614              		.align 1
 1615              		.p2align 4,,15
 1616              		.globl _ZN16HeadLight_Module8activateEv
 1617              		.type	_ZN16HeadLight_Module8activateEv, @function
 1618              	_ZN16HeadLight_Module8activateEv:
 1619              	.LFB799:
 1620              		.loc 2 44 0
 1621              		.cfi_startproc
 1622              	.LVL119:
 1623 0000 182106F0 		e_stwu %r1,-16(%r1)
 1624              	.LCFI37:
 1625              		.cfi_def_cfa_offset 16
 1626 0004 0080     		se_mflr %r0
 1627 0006 1BC10908 		e_stmw %r30,8(%r1)
 1628 000a D501     		se_stw %r0,20(%r1)
 1629              		.cfi_offset 65, 4
 1630              		.cfi_offset 30, -8
 1631              		.cfi_offset 31, -4
 1632              		.loc 2 44 0
 1633 000c 013F     		se_mr %r31,%r3
 1634              		.loc 2 46 0
 1635 000e C273     		se_lwz %r7,8(%r3)
 1636 0010 C2E7     		se_lwz %r30,8(%r7)
 1637              	.LVL120:
 1638              	.LBB169:
 1639              	.LBB170:
 1640              		.loc 1 200 0
 1641 0012 01E3     		se_mr %r3,%r30
 1642              	.LVL121:
 1643 0014 78000001 		e_bl _Z12button_stateP13buttonInput_t
 1644              	.LVL122:
 1645              		.loc 1 201 0
 1646 0018 C17E     		se_lwz %r7,4(%r30)
 1647 001a 2A37     		se_cmpi %r7,3
 1648 001c 7A120030 		e_beq %cr0,.L108
 1649              	.L107:
 1650 0020 C27F     		se_lwz %r7,8(%r31)
 1651 0022 C2E7     		se_lwz %r30,8(%r7)
 1652              	.LVL123:
 1653              	.L101:
GAS LISTING C:\Users\Shehan\AppData\Local\Temp\cc6hUjm9.s 			page 30


 1654              	.LBE170:
 1655              	.LBE169:
 1656              	.LBB172:
 1657              	.LBB173:
 1658              		.loc 1 188 0
 1659 0024 01E3     		se_mr %r3,%r30
 1660 0026 78000001 		e_bl _Z12button_stateP13buttonInput_t
 1661              	.LVL124:
 1662              		.loc 1 189 0
 1663 002a C17E     		se_lwz %r7,4(%r30)
 1664 002c 2A37     		se_cmpi %r7,3
 1665 002e 7A12008A 		e_beq %cr0,.L109
 1666              	.L103:
 1667              	.LBE173:
 1668              	.LBE172:
 1669              		.loc 2 68 0
 1670 0032 70E0E000 		e_lis %r7,.LANCHOR13@ha
 1671 0036 30E70000 		e_lbz %r7,.LANCHOR13@l(%r7)
 1672 003a 2A07     		se_cmpi %r7,0
 1673 003c 7A120056 		e_beq %cr0,.L110
 1674              		.loc 2 82 0
 1675 0040 C501     		se_lwz %r0,20(%r1)
 1676 0042 0090     		se_mtlr %r0
 1677              		.cfi_remember_state
 1678              		.cfi_restore 65
 1679 0044 1BC10808 		e_lmw %r30,8(%r1)
 1680              	.LVL125:
 1681 0048 20F1     		se_addi %r1,16
 1682              	.LCFI38:
 1683              		.cfi_restore 31
 1684              		.cfi_restore 30
 1685              		.cfi_def_cfa_offset 0
 1686 004a 0004     		se_blr
 1687              	.LVL126:
 1688              	.L108:
 1689              	.LCFI39:
 1690              		.cfi_restore_state
 1691              	.LBB175:
 1692              	.LBB171:
 1693              		.loc 1 201 0
 1694 004c C27E     		se_lwz %r7,8(%r30)
 1695 004e 2A27     		se_cmpi %r7,2
 1696 0050 7A02FFD0 		e_bne %cr0,.L107
 1697              	.LBE171:
 1698              	.LBE175:
 1699              		.loc 2 48 0
 1700 0054 70E0E000 		e_lis %r7,.LANCHOR13@ha
 1701              		.loc 2 49 0
 1702 0058 C23F     		se_lwz %r3,8(%r31)
 1703              		.loc 2 48 0
 1704 005a 30870000 		e_lbz %r4,.LANCHOR13@l(%r7)
 1705              		.loc 2 49 0
 1706 005e C063     		se_lwz %r6,0(%r3)
 1707              		.loc 2 48 0
 1708 0060 1884E001 		e_xori %r4,%r4,1
 1709              		.loc 2 49 0
 1710 0064 C266     		se_lwz %r6,8(%r6)
GAS LISTING C:\Users\Shehan\AppData\Local\Temp\cc6hUjm9.s 			page 31


 1711              		.loc 2 48 0
 1712 0066 34870000 		e_stb %r4,.LANCHOR13@l(%r7)
 1713              		.loc 2 49 0
 1714 006a 00B6     		se_mtctr %r6
 1715 006c 0007     		se_bctrl
 1716              	.LVL127:
 1717              		.loc 2 50 0
 1718 006e C23F     		se_lwz %r3,8(%r31)
 1719 0070 C073     		se_lwz %r7,0(%r3)
 1720 0072 C077     		se_lwz %r7,0(%r7)
 1721 0074 00B7     		se_mtctr %r7
 1722 0076 0007     		se_bctrl
 1723              	.LVL128:
 1724              		.loc 2 51 0
 1725 0078 70C0E000 		e_lis %r6,.LANCHOR15@ha
 1726              		.loc 2 52 0
 1727 007c C25F     		se_lwz %r5,8(%r31)
 1728              		.loc 2 51 0
 1729 007e 30E60000 		e_lbz %r7,.LANCHOR15@l(%r6)
 1730              		.loc 2 52 0
 1731 0082 C2E5     		se_lwz %r30,8(%r5)
 1732              	.LVL129:
 1733              		.loc 2 51 0
 1734 0084 2007     		se_addi %r7,1
 1735 0086 34E60000 		e_stb %r7,.LANCHOR15@l(%r6)
 1736              		.loc 2 52 0
 1737 008a 4807     		se_li %r7,0
 1738 008c D17E     		se_stw %r7,4(%r30)
 1739 008e 79FFFF96 		e_b .L101
 1740              	.LVL130:
 1741              	.L110:
 1742              		.loc 2 70 0
 1743 0092 C43F     		se_lwz %r3,16(%r31)
 1744 0094 C073     		se_lwz %r7,0(%r3)
 1745 0096 C177     		se_lwz %r7,4(%r7)
 1746 0098 00B7     		se_mtctr %r7
 1747 009a 0007     		se_bctrl
 1748              	.LVL131:
 1749 009c 0137     		se_mr %r7,%r3
 1750 009e 2A07     		se_cmpi %r7,0
 1751 00a0 7A020060 		e_bne %cr0,.L111
 1752              		.loc 2 78 0
 1753 00a4 C26F     		se_lwz %r6,8(%r31)
 1754              		.loc 2 82 0
 1755 00a6 C501     		se_lwz %r0,20(%r1)
 1756              		.loc 2 78 0
 1757 00a8 C136     		se_lwz %r3,4(%r6)
 1758              		.loc 2 82 0
 1759 00aa 1BC10808 		e_lmw %r30,8(%r1)
 1760              	.LVL132:
 1761              		.loc 2 78 0
 1762 00ae 9473     		se_stb %r7,4(%r3)
 1763              		.loc 2 82 0
 1764 00b0 0090     		se_mtlr %r0
 1765              		.cfi_remember_state
 1766              		.cfi_restore 65
 1767 00b2 20F1     		se_addi %r1,16
GAS LISTING C:\Users\Shehan\AppData\Local\Temp\cc6hUjm9.s 			page 32


 1768              	.LCFI40:
 1769              		.cfi_restore 31
 1770              		.cfi_restore 30
 1771              		.cfi_def_cfa_offset 0
 1772              		.loc 2 79 0
 1773 00b4 78000000 		e_b _ZN7Channel8activateEv
 1774              	.LVL133:
 1775              	.L109:
 1776              	.LCFI41:
 1777              		.cfi_restore_state
 1778              	.LBB176:
 1779              	.LBB174:
 1780              		.loc 1 189 0
 1781 00b8 C27E     		se_lwz %r7,8(%r30)
 1782 00ba 2A17     		se_cmpi %r7,1
 1783 00bc 7A02FF76 		e_bne %cr0,.L103
 1784              	.LBE174:
 1785              	.LBE176:
 1786              		.loc 2 57 0
 1787 00c0 C26F     		se_lwz %r6,8(%r31)
 1788 00c2 4807     		se_li %r7,0
 1789 00c4 C256     		se_lwz %r5,8(%r6)
 1790              		.loc 2 61 0
 1791 00c6 C136     		se_lwz %r3,4(%r6)
 1792              		.loc 2 57 0
 1793 00c8 D175     		se_stw %r7,4(%r5)
 1794              		.loc 2 59 0
 1795 00ca 70A0E000 		e_lis %r5,.LANCHOR16@ha
 1796              		.loc 2 61 0
 1797 00ce 9473     		se_stb %r7,4(%r3)
 1798              		.loc 2 59 0
 1799 00d0 30C50000 		e_lbz %r6,.LANCHOR16@l(%r5)
 1800 00d4 2006     		se_addi %r6,1
 1801 00d6 34C50000 		e_stb %r6,.LANCHOR16@l(%r5)
 1802              		.loc 2 62 0
 1803 00da 70C0E000 		e_lis %r6,.LANCHOR13@ha
 1804 00de 34E60000 		e_stb %r7,.LANCHOR13@l(%r6)
 1805              		.loc 2 63 0
 1806 00e2 78000001 		e_bl _ZN7Channel8activateEv
 1807              	.LVL134:
 1808              		.loc 2 64 0
 1809 00e6 C33F     		se_lwz %r3,12(%r31)
 1810 00e8 4814     		se_li %r4,1
 1811 00ea C073     		se_lwz %r7,0(%r3)
 1812 00ec C277     		se_lwz %r7,8(%r7)
 1813 00ee 00B7     		se_mtctr %r7
 1814 00f0 0007     		se_bctrl
 1815              	.LVL135:
 1816              		.loc 2 65 0
 1817 00f2 C33F     		se_lwz %r3,12(%r31)
 1818 00f4 C073     		se_lwz %r7,0(%r3)
 1819 00f6 C077     		se_lwz %r7,0(%r7)
 1820 00f8 00B7     		se_mtctr %r7
 1821 00fa 0007     		se_bctrl
 1822              	.LVL136:
 1823 00fc 79FFFF36 		e_b .L103
 1824              	.L111:
GAS LISTING C:\Users\Shehan\AppData\Local\Temp\cc6hUjm9.s 			page 33


 1825              		.loc 2 73 0
 1826 0100 C25F     		se_lwz %r5,8(%r31)
 1827              		.loc 2 82 0
 1828 0102 C501     		se_lwz %r0,20(%r1)
 1829              		.loc 2 72 0
 1830 0104 70C0E000 		e_lis %r6,.LANCHOR14@ha
 1831              		.loc 2 73 0
 1832 0108 C135     		se_lwz %r3,4(%r5)
 1833              		.loc 2 72 0
 1834 010a 30E60000 		e_lbz %r7,.LANCHOR14@l(%r6)
 1835              		.loc 2 82 0
 1836 010e 1BC10808 		e_lmw %r30,8(%r1)
 1837              	.LVL137:
 1838              		.loc 2 72 0
 1839 0112 2007     		se_addi %r7,1
 1840              		.loc 2 82 0
 1841 0114 0090     		se_mtlr %r0
 1842              		.cfi_restore 65
 1843              		.loc 2 72 0
 1844 0116 34E60000 		e_stb %r7,.LANCHOR14@l(%r6)
 1845              		.loc 2 73 0
 1846 011a 4817     		se_li %r7,1
 1847 011c 9473     		se_stb %r7,4(%r3)
 1848              	.LVL138:
 1849              		.loc 2 82 0
 1850 011e 20F1     		se_addi %r1,16
 1851              	.LCFI42:
 1852              		.cfi_restore 31
 1853              		.cfi_restore 30
 1854              		.cfi_def_cfa_offset 0
 1855              	.LBB177:
 1856              	.LBB178:
 1857              		.loc 6 143 0
 1858 0120 78000000 		e_b _ZN7Channel15channel_on_implEv
 1859              	.LVL139:
 1860              	.LBE178:
 1861              	.LBE177:
 1862              		.cfi_endproc
 1863              	.LFE799:
 1864              		.size	_ZN16HeadLight_Module8activateEv, .-_ZN16HeadLight_Module8activateEv
 1865              		.section	.text._Z16Right_handle_msg10CANRxFrame,"axv",@progbits
 1866              		.align 1
 1867              		.p2align 4,,15
 1868              		.globl _Z16Right_handle_msg10CANRxFrame
 1869              		.type	_Z16Right_handle_msg10CANRxFrame, @function
 1870              	_Z16Right_handle_msg10CANRxFrame:
 1871              	.LFB756:
 1872              		.file 8 "./source/COMMS/can_stack.h"
 1873              		.loc 8 70 0
 1874              		.cfi_startproc
 1875              		.loc 8 71 0
 1876 0000 30C30010 		e_lbz %r6,16(%r3)
 1877 0004 70E0E000 		e_lis %r7,.LANCHOR17@ha
 1878 0008 34C70000 		e_stb %r6,.LANCHOR17@l(%r7)
 1879 000c 0004     		se_blr
 1880              		.cfi_endproc
 1881              	.LFE756:
GAS LISTING C:\Users\Shehan\AppData\Local\Temp\cc6hUjm9.s 			page 34


 1882              		.size	_Z16Right_handle_msg10CANRxFrame, .-_Z16Right_handle_msg10CANRxFrame
 1883              		.section	.text._Z15Left_handle_msg10CANRxFrame,"axv",@progbits
 1884              		.align 1
 1885              		.p2align 4,,15
 1886              		.globl _Z15Left_handle_msg10CANRxFrame
 1887              		.type	_Z15Left_handle_msg10CANRxFrame, @function
 1888              	_Z15Left_handle_msg10CANRxFrame:
 1889              	.LFB757:
 1890              		.loc 8 74 0
 1891              		.cfi_startproc
 1892              		.loc 8 75 0
 1893 0000 30C30010 		e_lbz %r6,16(%r3)
 1894 0004 70E0E000 		e_lis %r7,.LANCHOR18@ha
 1895 0008 34C70000 		e_stb %r6,.LANCHOR18@l(%r7)
 1896 000c 0004     		se_blr
 1897              		.cfi_endproc
 1898              	.LFE757:
 1899              		.size	_Z15Left_handle_msg10CANRxFrame, .-_Z15Left_handle_msg10CANRxFrame
 1900              		.section	.text.can_decode,"axv",@progbits
 1901              		.align 1
 1902              		.p2align 4,,15
 1903              		.globl can_decode
 1904              		.type	can_decode, @function
 1905              	can_decode:
 1906              	.LFB758:
 1907              		.file 9 "./source/APP/input_elements.h"
 1908              		.loc 9 37 0
 1909              		.cfi_startproc
 1910              	.LBB179:
 1911              		.loc 9 39 0
 1912 0000 70A0E000 		e_lis %r5,.LANCHOR19@ha
 1913              		.loc 9 38 0
 1914 0004 70E0E000 		e_lis %r7,.LANCHOR18@ha
 1915              		.loc 9 39 0
 1916 0008 1CC50000 		e_la %r6,.LANCHOR19@l(%r5)
 1917              		.loc 9 38 0
 1918 000c 30E70000 		e_lbz %r7,.LANCHOR18@l(%r7)
 1919              	.LVL140:
 1920              		.loc 9 40 0
 1921 0010 74EBEFFF 		e_rlwinm %r11,%r7,29,31,31
 1922              		.loc 9 39 0
 1923 0014 74E9E7FF 		e_rlwinm %r9,%r7,28,31,31
 1924              		.loc 9 41 0
 1925 0018 74E0F7FF 		e_rlwinm %r0,%r7,30,31,31
 1926              		.loc 9 42 0
 1927 001c 74E3DFFF 		e_rlwinm %r3,%r7,27,31,31
 1928              		.loc 9 43 0
 1929 0020 18E4C001 		e_andi %r4,%r7,1
 1930              		.loc 9 40 0
 1931 0024 3566003C 		e_stb %r11,60(%r6)
 1932              		.loc 9 44 0
 1933 0028 74E7FFFF 		e_rlwinm %r7,%r7,31,31,31
 1934              	.LVL141:
 1935              		.loc 9 41 0
 1936 002c 7160E000 		e_lis %r11,.LANCHOR20@ha
 1937              		.loc 9 39 0
 1938 0030 35260050 		e_stb %r9,80(%r6)
GAS LISTING C:\Users\Shehan\AppData\Local\Temp\cc6hUjm9.s 			page 35


 1939              		.loc 9 41 0
 1940 0034 340B0000 		e_stb %r0,.LANCHOR20@l(%r11)
 1941              		.loc 9 42 0
 1942 0038 34660064 		e_stb %r3,100(%r6)
 1943              		.loc 9 43 0
 1944 003c 34850000 		e_stb %r4,.LANCHOR19@l(%r5)
 1945              		.loc 9 44 0
 1946 0040 34E60014 		e_stb %r7,20(%r6)
 1947 0044 0004     		se_blr
 1948              	.LBE179:
 1949              		.cfi_endproc
 1950              	.LFE758:
 1951              		.size	can_decode, .-can_decode
 1952              		.section	.text.inputs,"axv",@progbits
 1953              		.align 1
 1954              		.p2align 4,,15
 1955              		.globl inputs
 1956              		.type	inputs, @function
 1957              	inputs:
 1958              	.LFB759:
 1959              		.loc 9 48 0
 1960              		.cfi_startproc
 1961              		.loc 9 50 0
 1962              		.loc 9 49 0
 1963 0000 78000000 		e_b can_decode
 1964              	.LVL142:
 1965              		.cfi_endproc
 1966              	.LFE759:
 1967              		.size	inputs, .-inputs
 1968              		.section	.text._Z20evaluate_short_pressP13buttonInput_t,"axv",@progbits
 1969              		.align 1
 1970              		.p2align 4,,15
 1971              		.globl _Z20evaluate_short_pressP13buttonInput_t
 1972              		.type	_Z20evaluate_short_pressP13buttonInput_t, @function
 1973              	_Z20evaluate_short_pressP13buttonInput_t:
 1974              	.LFB781:
 1975              		.loc 1 188 0
 1976              		.cfi_startproc
 1977              	.LVL143:
 1978 0000 182106F0 		e_stwu %r1,-16(%r1)
 1979              	.LCFI43:
 1980              		.cfi_def_cfa_offset 16
 1981 0004 0080     		se_mflr %r0
 1982 0006 D3F1     		se_stw %r31,12(%r1)
 1983 0008 D501     		se_stw %r0,20(%r1)
 1984              		.cfi_offset 65, 4
 1985              		.cfi_offset 31, -4
 1986              		.loc 1 188 0
 1987 000a 013F     		se_mr %r31,%r3
 1988 000c 78000001 		e_bl _Z12button_stateP13buttonInput_t
 1989              	.LVL144:
 1990              		.loc 1 189 0
 1991 0010 C17F     		se_lwz %r7,4(%r31)
 1992              		.loc 1 195 0
 1993 0012 4803     		se_li %r3,0
 1994              		.loc 1 189 0
 1995 0014 2A37     		se_cmpi %r7,3
GAS LISTING C:\Users\Shehan\AppData\Local\Temp\cc6hUjm9.s 			page 36


 1996 0016 7A12000E 		e_beq %cr0,.L119
 1997              		.loc 1 197 0
 1998 001a C501     		se_lwz %r0,20(%r1)
 1999 001c 0090     		se_mtlr %r0
 2000              		.cfi_remember_state
 2001              		.cfi_restore 65
 2002 001e C3F1     		se_lwz %r31,12(%r1)
 2003              	.LVL145:
 2004 0020 20F1     		se_addi %r1,16
 2005              	.LCFI44:
 2006              		.cfi_restore 31
 2007              		.cfi_def_cfa_offset 0
 2008 0022 0004     		se_blr
 2009              	.LVL146:
 2010              	.L119:
 2011              	.LCFI45:
 2012              		.cfi_restore_state
 2013              		.loc 1 197 0 is_stmt 0 discriminator 1
 2014 0024 C501     		se_lwz %r0,20(%r1)
 2015 0026 0090     		se_mtlr %r0
 2016              		.cfi_restore 65
 2017              		.loc 1 189 0 is_stmt 1 discriminator 1
 2018 0028 C23F     		se_lwz %r3,8(%r31)
 2019              		.loc 1 197 0 discriminator 1
 2020 002a C3F1     		se_lwz %r31,12(%r1)
 2021              	.LVL147:
 2022              		.loc 1 189 0 discriminator 1
 2023 002c 1863E001 		e_xori %r3,%r3,1
 2024              		.loc 1 197 0 discriminator 1
 2025              		.loc 1 189 0 discriminator 1
 2026 0030 7C630034 		cntlzw %r3,%r3
 2027              		.loc 1 197 0 discriminator 1
 2028 0034 20F1     		se_addi %r1,16
 2029              	.LCFI46:
 2030              		.cfi_restore 31
 2031              		.cfi_def_cfa_offset 0
 2032              		.loc 1 189 0 discriminator 1
 2033 0036 6853     		se_srwi %r3,5
 2034              		.loc 1 197 0 discriminator 1
 2035 0038 0004     		se_blr
 2036              		.cfi_endproc
 2037              	.LFE781:
 2038              		.size	_Z20evaluate_short_pressP13buttonInput_t, .-_Z20evaluate_short_pressP13buttonInput_t
 2039              		.section	.text._Z19evaluate_long_pressP13buttonInput_t,"axv",@progbits
 2040              		.align 1
 2041              		.p2align 4,,15
 2042              		.globl _Z19evaluate_long_pressP13buttonInput_t
 2043              		.type	_Z19evaluate_long_pressP13buttonInput_t, @function
 2044              	_Z19evaluate_long_pressP13buttonInput_t:
 2045              	.LFB782:
 2046              		.loc 1 200 0
 2047              		.cfi_startproc
 2048              	.LVL148:
 2049 0000 182106F0 		e_stwu %r1,-16(%r1)
 2050              	.LCFI47:
 2051              		.cfi_def_cfa_offset 16
 2052 0004 0080     		se_mflr %r0
GAS LISTING C:\Users\Shehan\AppData\Local\Temp\cc6hUjm9.s 			page 37


 2053 0006 D3F1     		se_stw %r31,12(%r1)
 2054 0008 D501     		se_stw %r0,20(%r1)
 2055              		.cfi_offset 65, 4
 2056              		.cfi_offset 31, -4
 2057              		.loc 1 200 0
 2058 000a 013F     		se_mr %r31,%r3
 2059 000c 78000001 		e_bl _Z12button_stateP13buttonInput_t
 2060              	.LVL149:
 2061              		.loc 1 201 0
 2062 0010 C17F     		se_lwz %r7,4(%r31)
 2063              		.loc 1 207 0
 2064 0012 4803     		se_li %r3,0
 2065              		.loc 1 201 0
 2066 0014 2A37     		se_cmpi %r7,3
 2067 0016 7A12000E 		e_beq %cr0,.L123
 2068              		.loc 1 209 0
 2069 001a C501     		se_lwz %r0,20(%r1)
 2070 001c 0090     		se_mtlr %r0
 2071              		.cfi_remember_state
 2072              		.cfi_restore 65
 2073 001e C3F1     		se_lwz %r31,12(%r1)
 2074              	.LVL150:
 2075 0020 20F1     		se_addi %r1,16
 2076              	.LCFI48:
 2077              		.cfi_restore 31
 2078              		.cfi_def_cfa_offset 0
 2079 0022 0004     		se_blr
 2080              	.LVL151:
 2081              	.L123:
 2082              	.LCFI49:
 2083              		.cfi_restore_state
 2084              		.loc 1 209 0 is_stmt 0 discriminator 1
 2085 0024 C501     		se_lwz %r0,20(%r1)
 2086 0026 0090     		se_mtlr %r0
 2087              		.cfi_restore 65
 2088              		.loc 1 201 0 is_stmt 1 discriminator 1
 2089 0028 C23F     		se_lwz %r3,8(%r31)
 2090              		.loc 1 209 0 discriminator 1
 2091 002a C3F1     		se_lwz %r31,12(%r1)
 2092              	.LVL152:
 2093              		.loc 1 201 0 discriminator 1
 2094 002c 1863E002 		e_xori %r3,%r3,2
 2095              		.loc 1 209 0 discriminator 1
 2096              		.loc 1 201 0 discriminator 1
 2097 0030 7C630034 		cntlzw %r3,%r3
 2098              		.loc 1 209 0 discriminator 1
 2099 0034 20F1     		se_addi %r1,16
 2100              	.LCFI50:
 2101              		.cfi_restore 31
 2102              		.cfi_def_cfa_offset 0
 2103              		.loc 1 201 0 discriminator 1
 2104 0036 6853     		se_srwi %r3,5
 2105              		.loc 1 209 0 discriminator 1
 2106 0038 0004     		se_blr
 2107              		.cfi_endproc
 2108              	.LFE782:
 2109              		.size	_Z19evaluate_long_pressP13buttonInput_t, .-_Z19evaluate_long_pressP13buttonInput_t
GAS LISTING C:\Users\Shehan\AppData\Local\Temp\cc6hUjm9.s 			page 38


 2110              		.section	.text.sbrk,"axv",@progbits
 2111              		.align 1
 2112              		.p2align 4,,15
 2113              		.globl sbrk
 2114              		.type	sbrk, @function
 2115              	sbrk:
 2116              	.LFB783:
 2117              		.file 10 "./source/syscalls.h"
 2118              		.loc 10 13 0
 2119              		.cfi_startproc
 2120              	.LVL153:
 2121 0000 182106F8 		e_stwu %r1,-8(%r1)
 2122              	.LCFI51:
 2123              		.cfi_def_cfa_offset 8
 2124 0004 0080     		se_mflr %r0
 2125              	.LBB180:
 2126              		.loc 10 19 0
 2127 0006 70C0E000 		e_lis %r6,.LANCHOR21@ha
 2128              	.LBE180:
 2129              		.loc 10 13 0
 2130 000a D301     		se_stw %r0,12(%r1)
 2131              		.cfi_offset 65, 4
 2132              	.LBB181:
 2133              		.loc 10 19 0
 2134 000c 50E60000 		e_lwz %r7,.LANCHOR21@l(%r6)
 2135 0010 7C671A14 		add %r3,%r7,%r3
 2136              	.LVL154:
 2137 0014 70E0E000 		e_lis %r7,.LANCHOR22@ha
 2138 0018 54670000 		e_stw %r3,.LANCHOR22@l(%r7)
 2139              		.loc 10 20 0
 2140 001c 70E0E000 		e_lis %r7,__heap_end__@ha
 2141 0020 1CE70000 		e_la %r7,__heap_end__@l(%r7)
 2142 0024 0D73     		se_cmpl %r3,%r7
 2143 0026 7A110014 		e_bgt %cr0,.L127
 2144              	.LBE181:
 2145              		.loc 10 25 0
 2146 002a C301     		se_lwz %r0,12(%r1)
 2147 002c 0090     		se_mtlr %r0
 2148              		.cfi_remember_state
 2149              		.cfi_restore 65
 2150              	.LBB182:
 2151              		.loc 10 24 0
 2152 002e 54660000 		e_stw %r3,.LANCHOR21@l(%r6)
 2153 0032 0137     		se_mr %r7,%r3
 2154              	.LBE182:
 2155              		.loc 10 25 0
 2156 0034 0173     		se_mr %r3,%r7
 2157 0036 2071     		se_addi %r1,8
 2158              	.LCFI52:
 2159              		.cfi_def_cfa_offset 0
 2160 0038 0004     		se_blr
 2161              	.L127:
 2162              	.LCFI53:
 2163              		.cfi_restore_state
 2164              	.LBB183:
 2165              		.loc 10 21 0
 2166 003a 78000001 		e_bl __errno
GAS LISTING C:\Users\Shehan\AppData\Local\Temp\cc6hUjm9.s 			page 39


 2167              	.LVL155:
 2168              	.LBE183:
 2169              		.loc 10 25 0
 2170 003e C301     		se_lwz %r0,12(%r1)
 2171 0040 0090     		se_mtlr %r0
 2172              		.cfi_restore 65
 2173              	.LBB184:
 2174              		.loc 10 22 0
 2175 0042 2C07     		se_bmaski %r7,0
 2176              		.loc 10 21 0
 2177 0044 48C6     		se_li %r6,12
 2178 0046 D063     		se_stw %r6,0(%r3)
 2179              	.LBE184:
 2180              		.loc 10 25 0
 2181 0048 0173     		se_mr %r3,%r7
 2182 004a 2071     		se_addi %r1,8
 2183              	.LCFI54:
 2184              		.cfi_def_cfa_offset 0
 2185 004c 0004     		se_blr
 2186              		.cfi_endproc
 2187              	.LFE783:
 2188              		.size	sbrk, .-sbrk
 2189              		.section	.text._exit,"axv",@progbits
 2190              		.align 1
 2191              		.p2align 4,,15
 2192              		.globl _exit
 2193              		.type	_exit, @function
 2194              	_exit:
 2195              	.LFB784:
 2196              		.loc 10 30 0
 2197              		.cfi_startproc
 2198              	.LVL156:
 2199              	.L129:
 2200              		.loc 10 30 0 discriminator 1
 2201 0000 78000000 		e_b .L129
 2202              		.cfi_endproc
 2203              	.LFE784:
 2204              		.size	_exit, .-_exit
 2205              		.section	.text.getpid,"axv",@progbits
 2206              		.align 1
 2207              		.p2align 4,,15
 2208              		.globl getpid
 2209              		.type	getpid, @function
 2210              	getpid:
 2211              	.LFB785:
 2212              		.loc 10 36 0
 2213              		.cfi_startproc
 2214              		.loc 10 38 0
 2215 0000 4813     		se_li %r3,1
 2216 0002 0004     		se_blr
 2217              		.cfi_endproc
 2218              	.LFE785:
 2219              		.size	getpid, .-getpid
 2220              		.section	.text.kill,"axv",@progbits
 2221              		.align 1
 2222              		.p2align 4,,15
 2223              		.globl kill
GAS LISTING C:\Users\Shehan\AppData\Local\Temp\cc6hUjm9.s 			page 40


 2224              		.type	kill, @function
 2225              	kill:
 2226              	.LFB786:
 2227              		.loc 10 41 0
 2228              		.cfi_startproc
 2229              	.LVL157:
 2230              		.loc 10 43 0
 2231 0000 4803     		se_li %r3,0
 2232              	.LVL158:
 2233 0002 0004     		se_blr
 2234              		.cfi_endproc
 2235              	.LFE786:
 2236              		.size	kill, .-kill
 2237              		.section	.text._Z14create_devicesv,"axv",@progbits
 2238              		.align 1
 2239              		.p2align 4,,15
 2240              		.globl _Z14create_devicesv
 2241              		.type	_Z14create_devicesv, @function
 2242              	_Z14create_devicesv:
 2243              	.LFB787:
 2244              		.file 11 "./source/APP/devices.hpp"
 2245              		.loc 11 22 0
 2246              		.cfi_startproc
 2247 0000 182106C8 		e_stwu %r1,-56(%r1)
 2248              	.LCFI55:
 2249              		.cfi_def_cfa_offset 56
 2250 0004 0080     		se_mflr %r0
 2251 0006 1A810908 		e_stmw %r20,8(%r1)
 2252 000a DF01     		se_stw %r0,60(%r1)
 2253              		.cfi_offset 65, 4
 2254              		.cfi_offset 20, -48
 2255              		.cfi_offset 21, -44
 2256              		.cfi_offset 22, -40
 2257              		.cfi_offset 23, -36
 2258              		.cfi_offset 24, -32
 2259              		.cfi_offset 25, -28
 2260              		.cfi_offset 26, -24
 2261              		.cfi_offset 27, -20
 2262              		.cfi_offset 28, -16
 2263              		.cfi_offset 29, -12
 2264              		.cfi_offset 30, -8
 2265              		.cfi_offset 31, -4
 2266              	.LBB185:
 2267              	.LBB186:
 2268              		.loc 1 50 0
 2269 000c 480E     		se_li %r30,0
 2270              	.LBB187:
 2271              	.LBB188:
 2272              		.loc 1 28 0
 2273 000e 48FD     		se_li %r29,15
 2274 0010 48AB     		se_li %r27,10
 2275 0012 738007D0 		e_li %r28,2000
 2276 0016 72800078 		e_li %r20,120
 2277 001a 72A00050 		e_li %r21,80
 2278              	.LBE188:
 2279              	.LBE187:
 2280              	.LBE186:
GAS LISTING C:\Users\Shehan\AppData\Local\Temp\cc6hUjm9.s 			page 41


 2281              	.LBE185:
 2282              		.loc 11 24 0
 2283 001e 4983     		se_li %r3,24
 2284              	.LBB211:
 2285              	.LBB205:
 2286              	.LBB197:
 2287              	.LBB189:
 2288              		.loc 1 28 0
 2289 0020 73E0E000 		e_lis %r31,.LANCHOR23@ha
 2290              	.LBE189:
 2291              	.LBE197:
 2292              	.LBE205:
 2293              	.LBE211:
 2294              		.loc 11 24 0
 2295 0024 78000001 		e_bl _Znwj
 2296              	.LVL159:
 2297              	.LBB212:
 2298              	.LBB206:
 2299              	.LBB198:
 2300              	.LBB190:
 2301              		.loc 1 28 0
 2302 0028 1FFF0000 		e_la %r31,.LANCHOR23@l(%r31)
 2303 002c B6B3     		se_sth %r27,12(%r3)
 2304 002e 7C9FA214 		add %r4,%r31,%r20
 2305 0032 B7D3     		se_sth %r29,14(%r3)
 2306 0034 D143     		se_stw %r4,4(%r3)
 2307 0036 B8C3     		se_sth %r28,16(%r3)
 2308              	.LBE190:
 2309              	.LBE198:
 2310              	.LBE206:
 2311              	.LBE212:
 2312              		.loc 11 24 0
 2313 0038 0137     		se_mr %r7,%r3
 2314              	.LVL160:
 2315 003a 70C0E000 		e_lis %r6,.LANCHOR24@ha
 2316              	.LBB213:
 2317              	.LBB214:
 2318              	.LBB215:
 2319              	.LBB216:
 2320              		.loc 1 28 0
 2321 003e 1ADF80C8 		e_addi %r22,%r31,200
 2322              	.LBE216:
 2323              	.LBE215:
 2324              	.LBE214:
 2325              	.LBE213:
 2326              		.loc 11 24 0
 2327 0042 1F260000 		e_la %r25,.LANCHOR24@l(%r6)
 2328              	.LBB226:
 2329              	.LBB207:
 2330              	.LBB199:
 2331              	.LBB191:
 2332              		.loc 1 28 0
 2333 0046 7340E000 		e_lis %r26,.LANCHOR19@ha
 2334              	.LBE191:
 2335              	.LBE199:
 2336              		.loc 1 47 0
 2337 004a 7300E000 		e_lis %r24,_ZTV16momentary_Device+8@ha
GAS LISTING C:\Users\Shehan\AppData\Local\Temp\cc6hUjm9.s 			page 42


 2338              	.LBB200:
 2339              	.LBB192:
 2340              		.loc 1 28 0
 2341 004e 1F5A0000 		e_la %r26,.LANCHOR19@l(%r26)
 2342              	.LBE192:
 2343              	.LBE200:
 2344              		.loc 1 47 0
 2345 0052 1F180000 		e_la %r24,_ZTV16momentary_Device+8@l(%r24)
 2346              	.LBB201:
 2347              	.LBB193:
 2348              		.loc 1 28 0
 2349 0056 7CBAAA14 		add %r5,%r26,%r21
 2350              	.LBE193:
 2351              	.LBE201:
 2352              	.LBE207:
 2353              	.LBE226:
 2354              	.LBB227:
 2355              	.LBB228:
 2356              	.LBB229:
 2357              	.LBB230:
 2358 005a 72E0E000 		e_lis %r23,.LANCHOR20@ha
 2359              	.LBE230:
 2360              	.LBE229:
 2361              	.LBE228:
 2362              	.LBE227:
 2363              	.LBB243:
 2364              	.LBB208:
 2365              	.LBB202:
 2366              	.LBB194:
 2367 005e D253     		se_stw %r5,8(%r3)
 2368              	.LBE194:
 2369              	.LBE202:
 2370              	.LBE208:
 2371              	.LBE243:
 2372              	.LBB244:
 2373              	.LBB239:
 2374              	.LBB235:
 2375              	.LBB231:
 2376 0060 1EF70000 		e_la %r23,.LANCHOR20@l(%r23)
 2377              	.LBE231:
 2378              	.LBE235:
 2379              	.LBE239:
 2380              	.LBE244:
 2381              	.LBB245:
 2382              	.LBB209:
 2383              	.LBB203:
 2384              	.LBB195:
 2385              		.loc 1 33 0
 2386 0064 4805     		se_li %r5,0
 2387              		.loc 1 30 0
 2388 0066 5F7F0080 		e_sth %r27,128(%r31)
 2389              		.loc 1 32 0
 2390 006a 5F9F0084 		e_sth %r28,132(%r31)
 2391              		.loc 1 31 0
 2392 006e 5FBF0082 		e_sth %r29,130(%r31)
 2393              	.LBE195:
 2394              	.LBE203:
GAS LISTING C:\Users\Shehan\AppData\Local\Temp\cc6hUjm9.s 			page 43


 2395              	.LBE209:
 2396              	.LBE245:
 2397              	.LBB246:
 2398              	.LBB247:
 2399              	.LBB248:
 2400              	.LBB249:
 2401              		.loc 1 28 0
 2402 0072 7EBFAA14 		add %r21,%r31,%r21
 2403              	.LBE249:
 2404              	.LBE248:
 2405              	.LBE247:
 2406              	.LBE246:
 2407              	.LBB258:
 2408              	.LBB210:
 2409              	.LBB204:
 2410              	.LBB196:
 2411              		.loc 1 33 0
 2412 0076 34A30014 		e_stb %r5,20(%r3)
 2413              	.LBE196:
 2414              	.LBE204:
 2415              		.loc 1 47 0
 2416 007a D083     		se_stw %r24,0(%r3)
 2417              		.loc 1 50 0
 2418 007c B9E3     		se_sth %r30,18(%r3)
 2419              	.LBE210:
 2420              	.LBE258:
 2421              		.loc 11 24 0
 2422 007e 54E60000 		e_stw %r7,.LANCHOR24@l(%r6)
 2423              		.loc 11 25 0
 2424 0082 4983     		se_li %r3,24
 2425              	.LVL161:
 2426 0084 78000001 		e_bl _Znwj
 2427              	.LVL162:
 2428              	.LBB259:
 2429              	.LBB240:
 2430              		.loc 1 87 0
 2431 0088 70C0E000 		e_lis %r6,_ZTV12latch_Device+8@ha
 2432              	.LBB236:
 2433              	.LBB232:
 2434              		.loc 1 28 0
 2435 008c D1F3     		se_stw %r31,4(%r3)
 2436 008e 56E30008 		e_stw %r23,8(%r3)
 2437 0092 B6B3     		se_sth %r27,12(%r3)
 2438              	.LBE232:
 2439              	.LBE236:
 2440              	.LBE240:
 2441              	.LBE259:
 2442              		.loc 11 25 0
 2443 0094 0137     		se_mr %r7,%r3
 2444              	.LVL163:
 2445              	.LBB260:
 2446              	.LBB241:
 2447              	.LBB237:
 2448              	.LBB233:
 2449              		.loc 1 28 0
 2450 0096 B7D3     		se_sth %r29,14(%r3)
 2451 0098 B8C3     		se_sth %r28,16(%r3)
GAS LISTING C:\Users\Shehan\AppData\Local\Temp\cc6hUjm9.s 			page 44


 2452              		.loc 1 33 0
 2453 009a 37C30014 		e_stb %r30,20(%r3)
 2454              	.LBE233:
 2455              	.LBE237:
 2456              		.loc 1 90 0
 2457 009e B9E3     		se_sth %r30,18(%r3)
 2458              	.LBB238:
 2459              	.LBB234:
 2460              		.loc 1 30 0
 2461 00a0 B4BF     		se_sth %r27,8(%r31)
 2462              		.loc 1 32 0
 2463 00a2 B6CF     		se_sth %r28,12(%r31)
 2464              		.loc 1 31 0
 2465 00a4 B5DF     		se_sth %r29,10(%r31)
 2466              	.LBE234:
 2467              	.LBE238:
 2468              		.loc 1 87 0
 2469 00a6 1CC60000 		e_la %r6,_ZTV12latch_Device+8@l(%r6)
 2470              	.LBE241:
 2471              	.LBE260:
 2472              		.loc 11 26 0
 2473 00aa 4983     		se_li %r3,24
 2474              	.LVL164:
 2475              	.LBB261:
 2476              	.LBB242:
 2477              		.loc 1 87 0
 2478 00ac D067     		se_stw %r6,0(%r7)
 2479              	.LBE242:
 2480              	.LBE261:
 2481              		.loc 11 25 0
 2482 00ae D179     		se_stw %r7,4(%r25)
 2483              		.loc 11 26 0
 2484 00b0 78000001 		e_bl _Znwj
 2485              	.LVL165:
 2486              	.LBB262:
 2487              	.LBB223:
 2488              	.LBB220:
 2489              	.LBB217:
 2490              		.loc 1 28 0
 2491 00b4 18DA8064 		e_addi %r6,%r26,100
 2492 00b8 56C30004 		e_stw %r22,4(%r3)
 2493 00bc D263     		se_stw %r6,8(%r3)
 2494 00be B6B3     		se_sth %r27,12(%r3)
 2495 00c0 B7D3     		se_sth %r29,14(%r3)
 2496 00c2 B8C3     		se_sth %r28,16(%r3)
 2497              	.LBE217:
 2498              	.LBE220:
 2499              	.LBE223:
 2500              	.LBE262:
 2501              		.loc 11 26 0
 2502 00c4 0137     		se_mr %r7,%r3
 2503              	.LVL166:
 2504              	.LBB263:
 2505              	.LBB224:
 2506              	.LBB221:
 2507              	.LBB218:
 2508              		.loc 1 30 0
GAS LISTING C:\Users\Shehan\AppData\Local\Temp\cc6hUjm9.s 			page 45


 2509 00c6 5F7F00D0 		e_sth %r27,208(%r31)
 2510              		.loc 1 32 0
 2511 00ca 5F9F00D4 		e_sth %r28,212(%r31)
 2512              		.loc 1 31 0
 2513 00ce 5FBF00D2 		e_sth %r29,210(%r31)
 2514              	.LBE218:
 2515              	.LBE221:
 2516              	.LBE224:
 2517              	.LBE263:
 2518              		.loc 11 27 0
 2519 00d2 4983     		se_li %r3,24
 2520              	.LVL167:
 2521              	.LBB264:
 2522              	.LBB225:
 2523              	.LBB222:
 2524              	.LBB219:
 2525              		.loc 1 33 0
 2526 00d4 37C70014 		e_stb %r30,20(%r7)
 2527              	.LBE219:
 2528              	.LBE222:
 2529              		.loc 1 47 0
 2530 00d8 D087     		se_stw %r24,0(%r7)
 2531              		.loc 1 50 0
 2532 00da B9E7     		se_sth %r30,18(%r7)
 2533              	.LBE225:
 2534              	.LBE264:
 2535              		.loc 11 26 0
 2536 00dc D279     		se_stw %r7,8(%r25)
 2537              		.loc 11 27 0
 2538 00de 78000001 		e_bl _Znwj
 2539              	.LVL168:
 2540              	.LBB265:
 2541              	.LBB256:
 2542              	.LBB253:
 2543              	.LBB250:
 2544              		.loc 1 28 0
 2545 00e2 D2A3     		se_stw %r26,8(%r3)
 2546 00e4 56A30004 		e_stw %r21,4(%r3)
 2547 00e8 B6B3     		se_sth %r27,12(%r3)
 2548 00ea B7D3     		se_sth %r29,14(%r3)
 2549 00ec B8C3     		se_sth %r28,16(%r3)
 2550              	.LBE250:
 2551              	.LBE253:
 2552              	.LBE256:
 2553              	.LBE265:
 2554              		.loc 11 27 0
 2555 00ee 0137     		se_mr %r7,%r3
 2556              	.LVL169:
 2557              	.LBB266:
 2558              	.LBB257:
 2559              	.LBB254:
 2560              	.LBB251:
 2561              		.loc 1 30 0
 2562 00f0 5F7F0058 		e_sth %r27,88(%r31)
 2563              		.loc 1 32 0
 2564 00f4 5F9F005C 		e_sth %r28,92(%r31)
 2565              		.loc 1 31 0
GAS LISTING C:\Users\Shehan\AppData\Local\Temp\cc6hUjm9.s 			page 46


 2566 00f8 5FBF005A 		e_sth %r29,90(%r31)
 2567              	.LBE251:
 2568              	.LBE254:
 2569              		.loc 1 129 0
 2570 00fc 72A0E000 		e_lis %r21,_ZTV13toggle_Device+8@ha
 2571              	.LBB255:
 2572              	.LBB252:
 2573              		.loc 1 33 0
 2574 0100 37C30014 		e_stb %r30,20(%r3)
 2575              	.LBE252:
 2576              	.LBE255:
 2577              		.loc 1 129 0
 2578 0104 37C30016 		e_stb %r30,22(%r3)
 2579              		.loc 1 132 0
 2580 0108 B9E3     		se_sth %r30,18(%r3)
 2581              		.loc 1 129 0
 2582 010a 1EB50000 		e_la %r21,_ZTV13toggle_Device+8@l(%r21)
 2583 010e 56A30000 		e_stw %r21,0(%r3)
 2584              	.LBE257:
 2585              	.LBE266:
 2586              		.loc 11 27 0
 2587 0112 D379     		se_stw %r7,12(%r25)
 2588              		.loc 11 28 0
 2589 0114 4983     		se_li %r3,24
 2590              	.LVL170:
 2591 0116 78000001 		e_bl _Znwj
 2592              	.LVL171:
 2593              	.LBB267:
 2594              	.LBB268:
 2595              	.LBB269:
 2596              	.LBB270:
 2597              		.loc 1 28 0
 2598 011a 18DF8028 		e_addi %r6,%r31,40
 2599 011e B6B3     		se_sth %r27,12(%r3)
 2600 0120 D163     		se_stw %r6,4(%r3)
 2601 0122 B7D3     		se_sth %r29,14(%r3)
 2602 0124 B8C3     		se_sth %r28,16(%r3)
 2603              	.LBE270:
 2604              	.LBE269:
 2605              	.LBE268:
 2606              	.LBE267:
 2607              		.loc 11 28 0
 2608 0126 0137     		se_mr %r7,%r3
 2609              	.LVL172:
 2610              	.LBB280:
 2611              	.LBB277:
 2612              	.LBB274:
 2613              	.LBB271:
 2614              		.loc 1 28 0
 2615 0128 18DA8014 		e_addi %r6,%r26,20
 2616              	.LBE271:
 2617              	.LBE274:
 2618              	.LBE277:
 2619              	.LBE280:
 2620              		.loc 11 29 0
 2621 012c 4983     		se_li %r3,24
 2622              	.LVL173:
GAS LISTING C:\Users\Shehan\AppData\Local\Temp\cc6hUjm9.s 			page 47


 2623              	.LBB281:
 2624              	.LBB278:
 2625              	.LBB275:
 2626              	.LBB272:
 2627              		.loc 1 28 0
 2628 012e D267     		se_stw %r6,8(%r7)
 2629              		.loc 1 30 0
 2630 0130 5F7F0030 		e_sth %r27,48(%r31)
 2631              		.loc 1 32 0
 2632 0134 5F9F0034 		e_sth %r28,52(%r31)
 2633              		.loc 1 31 0
 2634 0138 5FBF0032 		e_sth %r29,50(%r31)
 2635              	.LBE272:
 2636              	.LBE275:
 2637              	.LBE278:
 2638              	.LBE281:
 2639              	.LBB282:
 2640              	.LBB283:
 2641              	.LBB284:
 2642              	.LBB285:
 2643              		.loc 1 28 0
 2644 013c 485B     		se_li %r27,5
 2645 013e 7380012C 		e_li %r28,300
 2646              	.LBE285:
 2647              	.LBE284:
 2648              	.LBE283:
 2649              	.LBE282:
 2650              	.LBB292:
 2651              	.LBB279:
 2652              	.LBB276:
 2653              	.LBB273:
 2654              		.loc 1 33 0
 2655 0142 37C70014 		e_stb %r30,20(%r7)
 2656              	.LBE273:
 2657              	.LBE276:
 2658              		.loc 1 129 0
 2659 0146 56A70000 		e_stw %r21,0(%r7)
 2660 014a 37C70016 		e_stb %r30,22(%r7)
 2661              		.loc 1 132 0
 2662 014e B9E7     		se_sth %r30,18(%r7)
 2663              	.LBE279:
 2664              	.LBE292:
 2665              		.loc 11 28 0
 2666 0150 D479     		se_stw %r7,16(%r25)
 2667              		.loc 11 29 0
 2668 0152 78000001 		e_bl _Znwj
 2669              	.LVL174:
 2670              	.LBB293:
 2671              	.LBB290:
 2672              	.LBB288:
 2673              	.LBB286:
 2674              		.loc 1 28 0
 2675 0156 56C30004 		e_stw %r22,4(%r3)
 2676 015a 56E30008 		e_stw %r23,8(%r3)
 2677 015e B6B3     		se_sth %r27,12(%r3)
 2678 0160 B7D3     		se_sth %r29,14(%r3)
 2679              	.LBE286:
GAS LISTING C:\Users\Shehan\AppData\Local\Temp\cc6hUjm9.s 			page 48


 2680              	.LBE288:
 2681              	.LBE290:
 2682              	.LBE293:
 2683              		.loc 11 29 0
 2684 0162 0137     		se_mr %r7,%r3
 2685              	.LVL175:
 2686              		.loc 11 30 0
 2687 0164 4983     		se_li %r3,24
 2688              	.LVL176:
 2689              	.LBB294:
 2690              	.LBB291:
 2691              	.LBB289:
 2692              	.LBB287:
 2693              		.loc 1 28 0
 2694 0166 B8C7     		se_sth %r28,16(%r7)
 2695              		.loc 1 30 0
 2696 0168 5F7F00D0 		e_sth %r27,208(%r31)
 2697              		.loc 1 31 0
 2698 016c 5FBF00D2 		e_sth %r29,210(%r31)
 2699              		.loc 1 32 0
 2700 0170 5F9F00D4 		e_sth %r28,212(%r31)
 2701              		.loc 1 33 0
 2702 0174 37C70014 		e_stb %r30,20(%r7)
 2703              	.LBE287:
 2704              	.LBE289:
 2705              		.loc 1 47 0
 2706 0178 D087     		se_stw %r24,0(%r7)
 2707              		.loc 1 50 0
 2708 017a B9E7     		se_sth %r30,18(%r7)
 2709              	.LBE291:
 2710              	.LBE294:
 2711              		.loc 11 29 0
 2712 017c D579     		se_stw %r7,20(%r25)
 2713              		.loc 11 30 0
 2714 017e 78000001 		e_bl _Znwj
 2715              	.LVL177:
 2716              		.loc 11 31 0
 2717 0182 CF01     		se_lwz %r0,60(%r1)
 2718 0184 0090     		se_mtlr %r0
 2719              		.cfi_restore 65
 2720              	.LBB295:
 2721              	.LBB296:
 2722              	.LBB297:
 2723              	.LBB298:
 2724              		.loc 1 28 0
 2725 0186 B6B3     		se_sth %r27,12(%r3)
 2726 0188 B7D3     		se_sth %r29,14(%r3)
 2727 018a B8C3     		se_sth %r28,16(%r3)
 2728 018c 18FF80A0 		e_addi %r7,%r31,160
 2729 0190 7F5AA214 		add %r26,%r26,%r20
 2730 0194 D173     		se_stw %r7,4(%r3)
 2731 0196 D2A3     		se_stw %r26,8(%r3)
 2732              		.loc 1 30 0
 2733 0198 5F7F00A8 		e_sth %r27,168(%r31)
 2734              		.loc 1 31 0
 2735 019c 5FBF00AA 		e_sth %r29,170(%r31)
 2736              		.loc 1 32 0
GAS LISTING C:\Users\Shehan\AppData\Local\Temp\cc6hUjm9.s 			page 49


 2737 01a0 5F9F00AC 		e_sth %r28,172(%r31)
 2738              		.loc 1 33 0
 2739 01a4 37C30014 		e_stb %r30,20(%r3)
 2740              	.LBE298:
 2741              	.LBE297:
 2742              		.loc 1 47 0
 2743 01a8 D083     		se_stw %r24,0(%r3)
 2744              		.loc 1 50 0
 2745 01aa B9E3     		se_sth %r30,18(%r3)
 2746              	.LBE296:
 2747              	.LBE295:
 2748              		.loc 11 30 0
 2749 01ac D639     		se_stw %r3,24(%r25)
 2750              		.loc 11 31 0
 2751 01ae 1A810808 		e_lmw %r20,8(%r1)
 2752 01b2 18218038 		e_addi %r1,%r1,56
 2753              	.LCFI56:
 2754              		.cfi_restore 31
 2755              		.cfi_restore 30
 2756              		.cfi_restore 29
 2757              		.cfi_restore 28
 2758              		.cfi_restore 27
 2759              		.cfi_restore 26
 2760              		.cfi_restore 25
 2761              		.cfi_restore 24
 2762              		.cfi_restore 23
 2763              		.cfi_restore 22
 2764              		.cfi_restore 21
 2765              		.cfi_restore 20
 2766              		.cfi_def_cfa_offset 0
 2767 01b6 0004     		se_blr
 2768              		.cfi_endproc
 2769              	.LFE787:
 2770              		.size	_Z14create_devicesv, .-_Z14create_devicesv
 2771              		.section	.text._Z16PDU_getData_read10CANRxFrame,"axv",@progbits
 2772              		.align 1
 2773              		.p2align 4,,15
 2774              		.globl _Z16PDU_getData_read10CANRxFrame
 2775              		.type	_Z16PDU_getData_read10CANRxFrame, @function
 2776              	_Z16PDU_getData_read10CANRxFrame:
 2777              	.LFB788:
 2778              		.loc 4 101 0
 2779              		.cfi_startproc
 2780              		.loc 4 102 0
 2781 0000 30C30010 		e_lbz %r6,16(%r3)
 2782 0004 7080E000 		e_lis %r4,.LANCHOR5@ha
 2783              		.loc 4 103 0
 2784 0008 31430011 		e_lbz %r10,17(%r3)
 2785              		.loc 4 102 0
 2786 000c 1CE40000 		e_la %r7,.LANCHOR5@l(%r4)
 2787 0010 31030012 		e_lbz %r8,18(%r3)
 2788              	.LVL178:
 2789 0014 31230013 		e_lbz %r9,19(%r3)
 2790              	.LVL179:
 2791 0018 30030014 		e_lbz %r0,20(%r3)
 2792              	.LVL180:
 2793 001c 31630015 		e_lbz %r11,21(%r3)
GAS LISTING C:\Users\Shehan\AppData\Local\Temp\cc6hUjm9.s 			page 50


 2794              	.LVL181:
 2795 0020 30A30016 		e_lbz %r5,22(%r3)
 2796              	.LVL182:
 2797 0024 5CC40000 		e_sth %r6,.LANCHOR5@l(%r4)
 2798 0028 30630017 		e_lbz %r3,23(%r3)
 2799              	.LVL183:
 2800              		.loc 4 103 0
 2801 002c 35470002 		e_stb %r10,2(%r7)
 2802              		.loc 4 105 0
 2803 0030 2A06     		se_cmpi %r6,0
 2804 0032 7A02003C 		e_bne %cr0,.L134
 2805              		.loc 4 107 0
 2806 0036 6C80     		se_slwi %r0, 8
 2807              	.LVL184:
 2808              		.loc 4 109 0
 2809 0038 6C85     		se_slwi %r5, 8
 2810              	.LVL185:
 2811              		.loc 4 108 0
 2812 003a 7C094B78 		or %r9,%r0,%r9
 2813              	.LVL186:
 2814              		.loc 4 110 0
 2815 003e 7CAB5B78 		or %r11,%r5,%r11
 2816              	.LVL187:
 2817              		.loc 4 106 0
 2818 0042 35070003 		e_stb %r8,3(%r7)
 2819              		.loc 4 108 0
 2820 0046 5D270004 		e_sth %r9,4(%r7)
 2821              		.loc 4 110 0
 2822 004a 5D670006 		e_sth %r11,6(%r7)
 2823              		.loc 4 111 0
 2824 004e 9837     		se_stb %r3,8(%r7)
 2825              	.L135:
 2826              		.loc 4 129 0
 2827 0050 70E0E000 		e_lis %r7,.LANCHOR25@ha
 2828 0054 30E70000 		e_lbz %r7,.LANCHOR25@l(%r7)
 2829 0058 2A17     		se_cmpi %r7,1
 2830              		.loc 4 130 0
 2831 005a 70E0E000 		e_lis %r7,.LANCHOR5@ha
 2832 005e 1CE70000 		e_la %r7,.LANCHOR5@l(%r7)
 2833 0062 8267     		se_lbz %r6,2(%r7)
 2834              		.loc 4 129 0
 2835 0064 7A120048 		e_beq %cr0,.L139
 2836              	.L137:
 2837              		.loc 4 132 0
 2838 0068 61B6     		se_bclri %r6,27
 2839 006a 9267     		se_stb %r6,2(%r7)
 2840 006c 0004     		se_blr
 2841              	.LVL188:
 2842              	.L134:
 2843              		.loc 4 114 0
 2844 006e 2206     		se_cmpli %r6,1
 2845 0070 7A120042 		e_beq %cr0,.L140
 2846              		.loc 4 121 0
 2847 0074 2216     		se_cmpli %r6,2
 2848 0076 7A02FFDA 		e_bne %cr0,.L135
 2849              		.loc 4 124 0
 2850 007a 7D6B4070 		e_slwi %r11,%r11,8
GAS LISTING C:\Users\Shehan\AppData\Local\Temp\cc6hUjm9.s 			page 51


 2851              	.LVL189:
 2852              		.loc 4 122 0
 2853 007e 35070011 		e_stb %r8,17(%r7)
 2854              		.loc 4 124 0
 2855 0082 7D640378 		or %r4,%r11,%r0
 2856              		.loc 4 123 0
 2857 0086 35270012 		e_stb %r9,18(%r7)
 2858              		.loc 4 124 0
 2859 008a B747     		se_sth %r4,14(%r7)
 2860              		.loc 4 125 0
 2861 008c 34A70013 		e_stb %r5,19(%r7)
 2862              		.loc 4 126 0
 2863 0090 34670014 		e_stb %r3,20(%r7)
 2864              		.loc 4 129 0
 2865 0094 70E0E000 		e_lis %r7,.LANCHOR25@ha
 2866 0098 30E70000 		e_lbz %r7,.LANCHOR25@l(%r7)
 2867 009c 2A17     		se_cmpi %r7,1
 2868              		.loc 4 130 0
 2869 009e 70E0E000 		e_lis %r7,.LANCHOR5@ha
 2870 00a2 1CE70000 		e_la %r7,.LANCHOR5@l(%r7)
 2871 00a6 8267     		se_lbz %r6,2(%r7)
 2872              		.loc 4 129 0
 2873 00a8 7A02FFC0 		e_bne %cr0,.L137
 2874              	.LVL190:
 2875              	.L139:
 2876              		.loc 4 130 0
 2877 00ac 65B6     		se_bseti %r6,27
 2878 00ae 9267     		se_stb %r6,2(%r7)
 2879 00b0 0004     		se_blr
 2880              	.LVL191:
 2881              	.L140:
 2882              		.loc 4 117 0
 2883 00b2 7C664070 		e_slwi %r6,%r3,8
 2884              		.loc 4 115 0
 2885 00b6 9907     		se_stb %r0,9(%r7)
 2886              		.loc 4 118 0
 2887 00b8 4456     		se_or %r6,%r5
 2888              		.loc 4 116 0
 2889 00ba 3567000A 		e_stb %r11,10(%r7)
 2890              		.loc 4 118 0
 2891 00be B667     		se_sth %r6,12(%r7)
 2892 00c0 79FFFF90 		e_b .L135
 2893              		.cfi_endproc
 2894              	.LFE788:
 2895              		.size	_Z16PDU_getData_read10CANRxFrame, .-_Z16PDU_getData_read10CANRxFrame
 2896              		.section	.text._Z17get_bms_fan_statev,"axv",@progbits
 2897              		.align 1
 2898              		.p2align 4,,15
 2899              		.globl _Z17get_bms_fan_statev
 2900              		.type	_Z17get_bms_fan_statev, @function
 2901              	_Z17get_bms_fan_statev:
 2902              	.LFB789:
 2903              		.loc 4 136 0
 2904              		.cfi_startproc
 2905              		.loc 4 137 0
 2906 0000 70E0E000 		e_lis %r7,.LANCHOR5+10@ha
 2907 0004 58670000 		e_lhz %r3,.LANCHOR5+10@l(%r7)
GAS LISTING C:\Users\Shehan\AppData\Local\Temp\cc6hUjm9.s 			page 52


 2908              		.loc 4 138 0
 2909 0008 74639FFF 		e_rlwinm %r3,%r3,19,31,31
 2910 000c 0004     		se_blr
 2911              		.cfi_endproc
 2912              	.LFE789:
 2913              		.size	_Z17get_bms_fan_statev, .-_Z17get_bms_fan_statev
 2914              		.section	.text._Z11get_FD3MSG110CANRxFrame,"axv",@progbits
 2915              		.align 1
 2916              		.p2align 4,,15
 2917              		.globl _Z11get_FD3MSG110CANRxFrame
 2918              		.type	_Z11get_FD3MSG110CANRxFrame, @function
 2919              	_Z11get_FD3MSG110CANRxFrame:
 2920              	.LFB790:
 2921              		.loc 3 107 0
 2922              		.cfi_startproc
 2923              		.loc 3 108 0
 2924 0000 7080E000 		e_lis %r4,.LANCHOR0@ha
 2925 0004 30C30010 		e_lbz %r6,16(%r3)
 2926 0008 1CE40000 		e_la %r7,.LANCHOR0@l(%r4)
 2927              		.loc 3 109 0
 2928 000c 30A30012 		e_lbz %r5,18(%r3)
 2929              		.loc 3 108 0
 2930 0010 9267     		se_stb %r6,2(%r7)
 2931              		.loc 3 110 0
 2932 0012 30030013 		e_lbz %r0,19(%r3)
 2933              		.loc 3 109 0
 2934 0016 7CA64070 		e_slwi %r6,%r5,8
 2935 001a 30A30011 		e_lbz %r5,17(%r3)
 2936 001e 4465     		se_or %r5,%r6
 2937              		.loc 3 111 0
 2938 0020 30C30015 		e_lbz %r6,21(%r3)
 2939              		.loc 3 109 0
 2940 0024 5CA40000 		e_sth %r5,.LANCHOR0@l(%r4)
 2941              		.loc 3 111 0
 2942 0028 6C86     		se_slwi %r6, 8
 2943              		.loc 3 110 0
 2944 002a 9307     		se_stb %r0,3(%r7)
 2945              		.loc 3 111 0
 2946 002c 30830014 		e_lbz %r4,20(%r3)
 2947              		.loc 3 112 0
 2948 0030 30A30017 		e_lbz %r5,23(%r3)
 2949              		.loc 3 111 0
 2950 0034 4446     		se_or %r6,%r4
 2951              		.loc 3 112 0
 2952 0036 18A584D8 		e_addi %r5,%r5,-40
 2953              		.loc 3 111 0
 2954 003a B267     		se_sth %r6,4(%r7)
 2955              		.loc 3 112 0
 2956 003c 00C5     		se_extzb %r5
 2957              		.loc 3 113 0
 2958 003e 30C30016 		e_lbz %r6,22(%r3)
 2959              		.loc 3 112 0
 2960 0042 9757     		se_stb %r5,7(%r7)
 2961              		.loc 3 113 0
 2962 0044 18C684D8 		e_addi %r6,%r6,-40
 2963 0048 00C6     		se_extzb %r6
 2964 004a 9667     		se_stb %r6,6(%r7)
GAS LISTING C:\Users\Shehan\AppData\Local\Temp\cc6hUjm9.s 			page 53


 2965 004c 0004     		se_blr
 2966              		.cfi_endproc
 2967              	.LFE790:
 2968              		.size	_Z11get_FD3MSG110CANRxFrame, .-_Z11get_FD3MSG110CANRxFrame
 2969              		.section	.text._Z11get_FD3MSG210CANRxFrame,"axv",@progbits
 2970              		.align 1
 2971              		.p2align 4,,15
 2972              		.globl _Z11get_FD3MSG210CANRxFrame
 2973              		.type	_Z11get_FD3MSG210CANRxFrame, @function
 2974              	_Z11get_FD3MSG210CANRxFrame:
 2975              	.LFB791:
 2976              		.loc 3 117 0
 2977              		.cfi_startproc
 2978              		.loc 3 118 0
 2979 0000 7080E000 		e_lis %r4,.LANCHOR26@ha
 2980 0004 30C30011 		e_lbz %r6,17(%r3)
 2981 0008 1CA40000 		e_la %r5,.LANCHOR26@l(%r4)
 2982 000c 6C86     		se_slwi %r6, 8
 2983 000e 30030010 		e_lbz %r0,16(%r3)
 2984              		.loc 3 119 0
 2985 0012 30E30013 		e_lbz %r7,19(%r3)
 2986              		.loc 3 118 0
 2987 0016 4406     		se_or %r6,%r0
 2988              		.loc 3 119 0
 2989 0018 6C87     		se_slwi %r7, 8
 2990              		.loc 3 118 0
 2991 001a 5CC40000 		e_sth %r6,.LANCHOR26@l(%r4)
 2992              		.loc 3 119 0
 2993 001e 30830012 		e_lbz %r4,18(%r3)
 2994              		.loc 3 120 0
 2995 0022 30C30015 		e_lbz %r6,21(%r3)
 2996              		.loc 3 119 0
 2997 0026 4447     		se_or %r7,%r4
 2998              		.loc 3 120 0
 2999 0028 6C86     		se_slwi %r6, 8
 3000              		.loc 3 119 0
 3001 002a 00F7     		se_extsh %r7
 3002              		.loc 3 120 0
 3003 002c 30830014 		e_lbz %r4,20(%r3)
 3004              		.loc 3 119 0
 3005 0030 B175     		se_sth %r7,2(%r5)
 3006              		.loc 3 120 0
 3007 0032 4446     		se_or %r6,%r4
 3008              		.loc 3 121 0
 3009 0034 30E30017 		e_lbz %r7,23(%r3)
 3010              		.loc 3 120 0
 3011 0038 B265     		se_sth %r6,4(%r5)
 3012              		.loc 3 121 0
 3013 003a 6C87     		se_slwi %r7, 8
 3014 003c 30C30016 		e_lbz %r6,22(%r3)
 3015 0040 4467     		se_or %r7,%r6
 3016 0042 B375     		se_sth %r7,6(%r5)
 3017 0044 0004     		se_blr
 3018              		.cfi_endproc
 3019              	.LFE791:
 3020              		.size	_Z11get_FD3MSG210CANRxFrame, .-_Z11get_FD3MSG210CANRxFrame
 3021              		.section	.text._Z14get_motor_tempv,"axv",@progbits
GAS LISTING C:\Users\Shehan\AppData\Local\Temp\cc6hUjm9.s 			page 54


 3022              		.align 1
 3023              		.p2align 4,,15
 3024              		.globl _Z14get_motor_tempv
 3025              		.type	_Z14get_motor_tempv, @function
 3026              	_Z14get_motor_tempv:
 3027              	.LFB792:
 3028              		.loc 3 124 0
 3029              		.cfi_startproc
 3030              	.LBB299:
 3031              		.loc 3 125 0
 3032 0000 70E0E000 		e_lis %r7,.LANCHOR0@ha
 3033 0004 1CE70000 		e_la %r7,.LANCHOR0@l(%r7)
 3034 0008 8767     		se_lbz %r6,7(%r7)
 3035              	.LVL192:
 3036              		.loc 3 126 0
 3037 000a 8637     		se_lbz %r3,6(%r7)
 3038              	.LVL193:
 3039              		.loc 3 127 0
 3040 000c 7CC74070 		e_slwi %r7,%r6,8
 3041              	.LBE299:
 3042              		.loc 3 128 0
 3043 0010 4473     		se_or %r3,%r7
 3044              	.LVL194:
 3045 0012 0004     		se_blr
 3046              		.cfi_endproc
 3047              	.LFE792:
 3048              		.size	_Z14get_motor_tempv, .-_Z14get_motor_tempv
 3049              		.section	.text._Z14create_modulesv,"axv",@progbits
 3050              		.align 1
 3051              		.p2align 4,,15
 3052              		.globl _Z14create_modulesv
 3053              		.type	_Z14create_modulesv, @function
 3054              	_Z14create_modulesv:
 3055              	.LFB816:
 3056              		.file 12 "./source/APP/modules.hpp"
 3057              		.loc 12 13 0
 3058              		.cfi_startproc
 3059 0000 182106F0 		e_stwu %r1,-16(%r1)
 3060              	.LCFI57:
 3061              		.cfi_def_cfa_offset 16
 3062 0004 0080     		se_mflr %r0
 3063 0006 1BC10908 		e_stmw %r30,8(%r1)
 3064 000a D501     		se_stw %r0,20(%r1)
 3065              		.cfi_offset 65, 4
 3066              		.cfi_offset 30, -8
 3067              		.cfi_offset 31, -4
 3068              		.loc 12 14 0
 3069 000c 73C0E000 		e_lis %r30,.LANCHOR24@ha
 3070 0010 4943     		se_li %r3,20
 3071 0012 1FFE0000 		e_la %r31,.LANCHOR24@l(%r30)
 3072 0016 78000001 		e_bl _Znwj
 3073              	.LVL195:
 3074 001a C54F     		se_lwz %r4,20(%r31)
 3075 001c C15F     		se_lwz %r5,4(%r31)
 3076 001e C26F     		se_lwz %r6,8(%r31)
 3077              	.LVL196:
 3078 0020 0137     		se_mr %r7,%r3
GAS LISTING C:\Users\Shehan\AppData\Local\Temp\cc6hUjm9.s 			page 55


 3079              	.LBB300:
 3080              	.LBB301:
 3081              		.loc 2 36 0
 3082 0022 D243     		se_stw %r4,8(%r3)
 3083 0024 D353     		se_stw %r5,12(%r3)
 3084 0026 D463     		se_stw %r6,16(%r3)
 3085 0028 70C0E000 		e_lis %r6,_ZTV16HeadLight_Module+8@ha
 3086              	.LVL197:
 3087 002c 1CC60000 		e_la %r6,_ZTV16HeadLight_Module+8@l(%r6)
 3088 0030 D063     		se_stw %r6,0(%r3)
 3089              	.LBE301:
 3090              	.LBE300:
 3091              		.loc 12 14 0
 3092 0032 70C0E000 		e_lis %r6,.LANCHOR27@ha
 3093              		.loc 12 15 0
 3094 0036 4903     		se_li %r3,16
 3095              	.LVL198:
 3096              		.loc 12 14 0
 3097 0038 54E60000 		e_stw %r7,.LANCHOR27@l(%r6)
 3098              		.loc 12 15 0
 3099 003c 78000001 		e_bl _Znwj
 3100              	.LVL199:
 3101 0040 C35F     		se_lwz %r5,12(%r31)
 3102 0042 C46F     		se_lwz %r6,16(%r31)
 3103              	.LVL200:
 3104 0044 0137     		se_mr %r7,%r3
 3105              	.LBB302:
 3106              	.LBB303:
 3107              		.loc 2 90 0
 3108 0046 D253     		se_stw %r5,8(%r3)
 3109 0048 D363     		se_stw %r6,12(%r3)
 3110 004a 70C0E000 		e_lis %r6,_ZTV17TurnSignal_Module+8@ha
 3111              	.LVL201:
 3112 004e 1CC60000 		e_la %r6,_ZTV17TurnSignal_Module+8@l(%r6)
 3113 0052 D063     		se_stw %r6,0(%r3)
 3114              	.LBE303:
 3115              	.LBE302:
 3116              		.loc 12 15 0
 3117 0054 70C0E000 		e_lis %r6,.LANCHOR28@ha
 3118              		.loc 12 16 0
 3119 0058 48C3     		se_li %r3,12
 3120              	.LVL202:
 3121              		.loc 12 15 0
 3122 005a 54E60000 		e_stw %r7,.LANCHOR28@l(%r6)
 3123              		.loc 12 16 0
 3124 005e 78000001 		e_bl _Znwj
 3125              	.LVL203:
 3126 0062 50DE0000 		e_lwz %r6,.LANCHOR24@l(%r30)
 3127              	.LVL204:
 3128 0066 0137     		se_mr %r7,%r3
 3129              	.LBB304:
 3130              	.LBB305:
 3131              		.loc 2 118 0
 3132 0068 D263     		se_stw %r6,8(%r3)
 3133 006a 70C0E000 		e_lis %r6,_ZTV11Horn_Module+8@ha
 3134              	.LVL205:
 3135 006e 1CC60000 		e_la %r6,_ZTV11Horn_Module+8@l(%r6)
GAS LISTING C:\Users\Shehan\AppData\Local\Temp\cc6hUjm9.s 			page 56


 3136 0072 D063     		se_stw %r6,0(%r3)
 3137              	.LBE305:
 3138              	.LBE304:
 3139              		.loc 12 16 0
 3140 0074 70C0E000 		e_lis %r6,.LANCHOR29@ha
 3141              		.loc 12 17 0
 3142 0078 48C3     		se_li %r3,12
 3143              	.LVL206:
 3144              		.loc 12 16 0
 3145 007a 54E60000 		e_stw %r7,.LANCHOR29@l(%r6)
 3146              		.loc 12 17 0
 3147 007e 78000001 		e_bl _Znwj
 3148              	.LVL207:
 3149              		.loc 12 18 0
 3150 0082 C501     		se_lwz %r0,20(%r1)
 3151 0084 0090     		se_mtlr %r0
 3152              		.cfi_restore 65
 3153              		.loc 12 17 0
 3154 0086 C67F     		se_lwz %r7,24(%r31)
 3155              	.LVL208:
 3156              		.loc 12 18 0
 3157 0088 1BC10808 		e_lmw %r30,8(%r1)
 3158              	.LBB306:
 3159              	.LBB307:
 3160              		.loc 2 176 0
 3161 008c D273     		se_stw %r7,8(%r3)
 3162 008e 70E0E000 		e_lis %r7,_ZTV14PDU_FAN_Module+8@ha
 3163              	.LVL209:
 3164 0092 1CE70000 		e_la %r7,_ZTV14PDU_FAN_Module+8@l(%r7)
 3165 0096 D073     		se_stw %r7,0(%r3)
 3166              	.LBE307:
 3167              	.LBE306:
 3168              		.loc 12 17 0
 3169 0098 70E0E000 		e_lis %r7,.LANCHOR30@ha
 3170              		.loc 12 18 0
 3171              		.loc 12 17 0
 3172 009c 54670000 		e_stw %r3,.LANCHOR30@l(%r7)
 3173              		.loc 12 18 0
 3174 00a0 20F1     		se_addi %r1,16
 3175              	.LCFI58:
 3176              		.cfi_restore 31
 3177              		.cfi_restore 30
 3178              		.cfi_def_cfa_offset 0
 3179 00a2 0004     		se_blr
 3180              		.cfi_endproc
 3181              	.LFE816:
 3182              		.size	_Z14create_modulesv, .-_Z14create_modulesv
 3183              		.section	.text.CAN_init,"axv",@progbits
 3184              		.align 1
 3185              		.p2align 4,,15
 3186              		.globl CAN_init
 3187              		.type	CAN_init, @function
 3188              	CAN_init:
 3189              	.LFB817:
 3190              		.file 13 "./source/COMMS/can.h"
 3191              		.loc 13 34 0
 3192              		.cfi_startproc
GAS LISTING C:\Users\Shehan\AppData\Local\Temp\cc6hUjm9.s 			page 57


 3193 0000 182106F8 		e_stwu %r1,-8(%r1)
 3194              	.LCFI59:
 3195              		.cfi_def_cfa_offset 8
 3196 0004 0080     		se_mflr %r0
 3197              		.loc 13 35 0
 3198 0006 7060E000 		e_lis %r3,CAND7@ha
 3199              		.loc 13 34 0
 3200 000a D301     		se_stw %r0,12(%r1)
 3201              		.cfi_offset 65, 4
 3202              		.loc 13 35 0
 3203 000c 1C630000 		e_la %r3,CAND7@l(%r3)
 3204 0010 7080E000 		e_lis %r4,can_config_mcanconf_ext@ha
 3205 0014 1C840000 		e_la %r4,can_config_mcanconf_ext@l(%r4)
 3206 0018 78000001 		e_bl can_lld_start
 3207              	.LVL210:
 3208              		.loc 13 37 0
 3209 001c 4806     		se_li %r6,0
 3210 001e 70E0E000 		e_lis %r7,.LANCHOR31@ha
 3211 0022 1CE70000 		e_la %r7,.LANCHOR31@l(%r7)
 3212 0026 9267     		se_stb %r6,2(%r7)
 3213              		.loc 13 38 0
 3214 0028 4D06     		se_li %r6,80
 3215 002a D167     		se_stw %r6,4(%r7)
 3216              		.loc 13 39 0
 3217 002c 4886     		se_li %r6,8
 3218 002e 9867     		se_stb %r6,8(%r7)
 3219              		.loc 13 40 0
 3220 0030 48A6     		se_li %r6,10
 3221 0032 9C67     		se_stb %r6,12(%r7)
 3222              		.loc 13 41 0
 3223 0034 C301     		se_lwz %r0,12(%r1)
 3224 0036 0090     		se_mtlr %r0
 3225              		.cfi_restore 65
 3226 0038 2071     		se_addi %r1,8
 3227              	.LCFI60:
 3228              		.cfi_def_cfa_offset 0
 3229 003a 0004     		se_blr
 3230              		.cfi_endproc
 3231              	.LFE817:
 3232              		.size	CAN_init, .-CAN_init
 3233              		.section	.text.CAN_send,"axv",@progbits
 3234              		.align 1
 3235              		.p2align 4,,15
 3236              		.globl CAN_send
 3237              		.type	CAN_send, @function
 3238              	CAN_send:
 3239              	.LFB818:
 3240              		.loc 13 44 0
 3241              		.cfi_startproc
 3242              		.loc 13 45 0
 3243 0000 7060E000 		e_lis %r3,CAND7@ha
 3244 0004 70A0E000 		e_lis %r5,.LANCHOR31@ha
 3245 0008 1C630000 		e_la %r3,CAND7@l(%r3)
 3246 000c 2C84     		se_bmaski %r4,8
 3247 000e 1CA50000 		e_la %r5,.LANCHOR31@l(%r5)
 3248              		.loc 13 46 0
 3249              		.loc 13 45 0
GAS LISTING C:\Users\Shehan\AppData\Local\Temp\cc6hUjm9.s 			page 58


 3250 0012 78000000 		e_b can_lld_transmit
 3251              	.LVL211:
 3252              		.cfi_endproc
 3253              	.LFE818:
 3254              		.size	CAN_send, .-CAN_send
 3255              		.section	.text.mcanconf_ext_rxcb,"axv",@progbits
 3256              		.align 1
 3257              		.p2align 4,,15
 3258              		.globl mcanconf_ext_rxcb
 3259              		.type	mcanconf_ext_rxcb, @function
 3260              	mcanconf_ext_rxcb:
 3261              	.LFB819:
 3262              		.loc 13 49 0
 3263              		.cfi_startproc
 3264              	.LVL212:
 3265 0000 182106D0 		e_stwu %r1,-48(%r1)
 3266              	.LCFI61:
 3267              		.cfi_def_cfa_offset 48
 3268 0004 0080     		se_mflr %r0
 3269 0006 DD01     		se_stw %r0,52(%r1)
 3270              		.cfi_offset 65, 4
 3271 0008 C264     		se_lwz %r6,8(%r4)
 3272 000a 30640010 		e_lbz %r3,16(%r4)
 3273              	.LVL213:
 3274 000e 8474     		se_lbz %r7,4(%r4)
 3275              	.LVL214:
 3276              		.loc 13 57 0
 3277 0010 7006A832 		e_cmpl16i %r6,50
 3278 0014 7A120086 		e_beq %cr0,.L155
 3279              		.loc 13 61 0
 3280 0018 70A2E0F8 		e_lis %r5,0x10f8
 3281 001c 70A2C09A 		e_or2i %r5,4250
 3282 0020 0C56     		se_cmp %r6,%r5
 3283 0022 7A120022 		e_beq %cr0,.L156
 3284              		.loc 13 69 0
 3285 0026 70A1E4F0 		e_lis %r5,0xcf0
 3286 002a 70A0C121 		e_or2i %r5,289
 3287 002e 0C56     		se_cmp %r6,%r5
 3288 0030 7A0200A8 		e_bne %cr0,.L153
 3289              		.loc 13 69 0 is_stmt 0 discriminator 1
 3290 0034 2207     		se_cmpli %r7,1
 3291 0036 7A1200C8 		e_beq %cr0,.L157
 3292              	.LVL215:
 3293              	.L148:
 3294              		.loc 13 80 0 is_stmt 1
 3295 003a CD01     		se_lwz %r0,52(%r1)
 3296 003c 0090     		se_mtlr %r0
 3297              		.cfi_remember_state
 3298              		.cfi_restore 65
 3299 003e 18218030 		e_addi %r1,%r1,48
 3300              	.LCFI62:
 3301              		.cfi_def_cfa_offset 0
 3302 0042 0004     		se_blr
 3303              	.LVL216:
 3304              	.L156:
 3305              	.LCFI63:
 3306              		.cfi_restore_state
GAS LISTING C:\Users\Shehan\AppData\Local\Temp\cc6hUjm9.s 			page 59


 3307              		.loc 13 61 0 discriminator 1
 3308 0044 2207     		se_cmpli %r7,1
 3309 0046 7A02FFF4 		e_bne %cr0,.L148
 3310              	.LVL217:
 3311              	.LBB308:
 3312              	.LBB309:
 3313              		.loc 3 108 0
 3314 004a 7140E000 		e_lis %r10,.LANCHOR0@ha
 3315 004e 31640011 		e_lbz %r11,17(%r4)
 3316              	.LVL218:
 3317 0052 1CEA0000 		e_la %r7,.LANCHOR0@l(%r10)
 3318 0056 30040012 		e_lbz %r0,18(%r4)
 3319              	.LVL219:
 3320 005a 9237     		se_stb %r3,2(%r7)
 3321 005c 31040013 		e_lbz %r8,19(%r4)
 3322              	.LVL220:
 3323 0060 30640014 		e_lbz %r3,20(%r4)
 3324              	.LVL221:
 3325 0064 30C40016 		e_lbz %r6,22(%r4)
 3326              	.LVL222:
 3327 0068 30A40017 		e_lbz %r5,23(%r4)
 3328 006c 31240015 		e_lbz %r9,21(%r4)
 3329              	.LVL223:
 3330              		.loc 3 109 0
 3331 0070 6C80     		se_slwi %r0, 8
 3332              		.loc 3 111 0
 3333 0072 7D244070 		e_slwi %r4,%r9,8
 3334              	.LVL224:
 3335              		.loc 3 109 0
 3336 0076 7C005B78 		or %r0,%r0,%r11
 3337              		.loc 3 111 0
 3338 007a 4434     		se_or %r4,%r3
 3339              		.loc 3 109 0
 3340 007c 5C0A0000 		e_sth %r0,.LANCHOR0@l(%r10)
 3341              		.loc 3 112 0
 3342 0080 18A584D8 		e_addi %r5,%r5,-40
 3343              	.LVL225:
 3344              		.loc 3 110 0
 3345 0084 35070003 		e_stb %r8,3(%r7)
 3346              		.loc 3 112 0
 3347 0088 00C5     		se_extzb %r5
 3348              	.LVL226:
 3349              		.loc 3 111 0
 3350 008a B247     		se_sth %r4,4(%r7)
 3351              		.loc 3 113 0
 3352 008c 18C684D8 		e_addi %r6,%r6,-40
 3353              	.LVL227:
 3354              		.loc 3 112 0
 3355 0090 9757     		se_stb %r5,7(%r7)
 3356              		.loc 3 113 0
 3357 0092 00C6     		se_extzb %r6
 3358              	.LVL228:
 3359 0094 9667     		se_stb %r6,6(%r7)
 3360 0096 79FFFFA4 		e_b .L148
 3361              	.LVL229:
 3362              	.L155:
 3363              	.LBE309:
GAS LISTING C:\Users\Shehan\AppData\Local\Temp\cc6hUjm9.s 			page 60


 3364              	.LBE308:
 3365              		.loc 13 57 0 discriminator 1
 3366 009a 2A07     		se_cmpi %r7,0
 3367 009c 7A02FF9E 		e_bne %cr0,.L148
 3368              		.loc 13 59 0
 3369 00a0 51240000 		e_lwz %r9,0(%r4)
 3370 00a4 51640004 		e_lwz %r11,4(%r4)
 3371 00a8 C304     		se_lwz %r0,12(%r4)
 3372 00aa C434     		se_lwz %r3,16(%r4)
 3373              		.loc 13 58 0
 3374 00ac 70A0E000 		e_lis %r5,.LANCHOR32@ha
 3375              		.loc 13 59 0
 3376 00b0 C544     		se_lwz %r4,20(%r4)
 3377              	.LVL230:
 3378              		.loc 13 58 0
 3379 00b2 30E50000 		e_lbz %r7,.LANCHOR32@l(%r5)
 3380              	.LVL231:
 3381              		.loc 13 59 0
 3382 00b6 D831     		se_stw %r3,32(%r1)
 3383              		.loc 13 58 0
 3384 00b8 2007     		se_addi %r7,1
 3385              		.loc 13 59 0
 3386 00ba 55210010 		e_stw %r9,16(%r1)
 3387              		.loc 13 58 0
 3388 00be 34E50000 		e_stb %r7,.LANCHOR32@l(%r5)
 3389              		.loc 13 59 0
 3390 00c2 55610014 		e_stw %r11,20(%r1)
 3391 00c6 D661     		se_stw %r6,24(%r1)
 3392 00c8 D701     		se_stw %r0,28(%r1)
 3393 00ca D941     		se_stw %r4,36(%r1)
 3394 00cc 18618010 		e_addi %r3,%r1,16
 3395 00d0 78000001 		e_bl _Z16PDU_getData_read10CANRxFrame
 3396              	.LVL232:
 3397 00d4 79FFFF66 		e_b .L148
 3398              	.LVL233:
 3399              	.L153:
 3400              		.loc 13 74 0
 3401 00d8 70A1E0F0 		e_lis %r5,0x8f0
 3402 00dc 70A0C120 		e_or2i %r5,288
 3403 00e0 0C56     		se_cmp %r6,%r5
 3404 00e2 7A02FF58 		e_bne %cr0,.L148
 3405              		.loc 13 74 0 is_stmt 0 discriminator 1
 3406 00e6 2207     		se_cmpli %r7,1
 3407 00e8 7A02FF52 		e_bne %cr0,.L148
 3408              	.LVL234:
 3409              		.loc 13 80 0 is_stmt 1
 3410 00ec CD01     		se_lwz %r0,52(%r1)
 3411 00ee 0090     		se_mtlr %r0
 3412              		.cfi_remember_state
 3413              		.cfi_restore 65
 3414              	.LBB310:
 3415              	.LBB311:
 3416              		.loc 8 71 0
 3417 00f0 70E0E000 		e_lis %r7,.LANCHOR17@ha
 3418              	.LBE311:
 3419              	.LBE310:
 3420              		.loc 13 80 0
GAS LISTING C:\Users\Shehan\AppData\Local\Temp\cc6hUjm9.s 			page 61


 3421              	.LBB313:
 3422              	.LBB312:
 3423              		.loc 8 71 0
 3424 00f4 34670000 		e_stb %r3,.LANCHOR17@l(%r7)
 3425              	.LBE312:
 3426              	.LBE313:
 3427              		.loc 13 80 0
 3428 00f8 18218030 		e_addi %r1,%r1,48
 3429              	.LCFI64:
 3430              		.cfi_def_cfa_offset 0
 3431 00fc 0004     		se_blr
 3432              	.LVL235:
 3433              	.L157:
 3434              	.LCFI65:
 3435              		.cfi_restore_state
 3436              	.LBB314:
 3437              	.LBB315:
 3438              		.loc 8 75 0
 3439 00fe 70E0E000 		e_lis %r7,.LANCHOR18@ha
 3440 0102 34670000 		e_stb %r3,.LANCHOR18@l(%r7)
 3441 0106 79FFFF34 		e_b .L148
 3442              	.LBE315:
 3443              	.LBE314:
 3444              		.cfi_endproc
 3445              	.LFE819:
 3446              		.size	mcanconf_ext_rxcb, .-mcanconf_ext_rxcb
 3447              		.section	.text._Z12pseudo_delaym,"axv",@progbits
 3448              		.align 1
 3449              		.p2align 4,,15
 3450              		.globl _Z12pseudo_delaym
 3451              		.type	_Z12pseudo_delaym, @function
 3452              	_Z12pseudo_delaym:
 3453              	.LFB820:
 3454              		.file 14 "./source/MCAL/timer.h"
 3455              		.loc 14 7 0
 3456              		.cfi_startproc
 3457              	.LVL236:
 3458 0000 182106F0 		e_stwu %r1,-16(%r1)
 3459              	.LCFI66:
 3460              		.cfi_def_cfa_offset 16
 3461 0004 0080     		se_mflr %r0
 3462 0006 D3F1     		se_stw %r31,12(%r1)
 3463 0008 D501     		se_stw %r0,20(%r1)
 3464              		.cfi_offset 65, 4
 3465              		.cfi_offset 31, -4
 3466              		.loc 14 7 0
 3467 000a 013F     		se_mr %r31,%r3
 3468              	.LBB316:
 3469              		.loc 14 9 0
 3470 000c 78000001 		e_bl osalThreadGetMilliseconds
 3471              	.LVL237:
 3472              		.loc 14 11 0
 3473 0010 70A0E000 		e_lis %r5,.LANCHOR33@ha
 3474              		.loc 14 9 0
 3475 0014 0134     		se_mr %r4,%r3
 3476              	.LVL238:
 3477              		.loc 14 11 0
GAS LISTING C:\Users\Shehan\AppData\Local\Temp\cc6hUjm9.s 			page 62


 3478 0016 50E50000 		e_lwz %r7,.LANCHOR33@l(%r5)
 3479              		.loc 14 15 0
 3480 001a 4803     		se_li %r3,0
 3481              	.LVL239:
 3482              		.loc 14 11 0
 3483 001c 0747     		se_subf %r7, %r4
 3484 001e 0DF7     		se_cmpl %r7,%r31
 3485 0020 7A10000A 		e_blt %cr0,.L159
 3486              		.loc 14 12 0
 3487 0024 54850000 		e_stw %r4,.LANCHOR33@l(%r5)
 3488              		.loc 14 13 0
 3489 0028 4813     		se_li %r3,1
 3490              	.L159:
 3491              	.LBE316:
 3492              		.loc 14 16 0
 3493 002a C501     		se_lwz %r0,20(%r1)
 3494 002c 0090     		se_mtlr %r0
 3495              		.cfi_restore 65
 3496 002e C3F1     		se_lwz %r31,12(%r1)
 3497              	.LVL240:
 3498 0030 20F1     		se_addi %r1,16
 3499              	.LCFI67:
 3500              		.cfi_restore 31
 3501              		.cfi_def_cfa_offset 0
 3502 0032 0004     		se_blr
 3503              		.cfi_endproc
 3504              	.LFE820:
 3505              		.size	_Z12pseudo_delaym, .-_Z12pseudo_delaym
 3506              		.section	.text._Z12pseudo_delaymRm,"axv",@progbits
 3507              		.align 1
 3508              		.p2align 4,,15
 3509              		.globl _Z12pseudo_delaymRm
 3510              		.type	_Z12pseudo_delaymRm, @function
 3511              	_Z12pseudo_delaymRm:
 3512              	.LFB821:
 3513              		.loc 14 18 0
 3514              		.cfi_startproc
 3515              	.LVL241:
 3516 0000 182106F0 		e_stwu %r1,-16(%r1)
 3517              	.LCFI68:
 3518              		.cfi_def_cfa_offset 16
 3519 0004 0080     		se_mflr %r0
 3520 0006 1BC10908 		e_stmw %r30,8(%r1)
 3521 000a D501     		se_stw %r0,20(%r1)
 3522              		.cfi_offset 65, 4
 3523              		.cfi_offset 30, -8
 3524              		.cfi_offset 31, -4
 3525              		.loc 14 18 0
 3526 000c 013E     		se_mr %r30,%r3
 3527 000e 014F     		se_mr %r31,%r4
 3528              	.LBB317:
 3529              		.loc 14 19 0
 3530 0010 78000001 		e_bl osalThreadGetMilliseconds
 3531              	.LVL242:
 3532              		.loc 14 21 0
 3533 0014 C07F     		se_lwz %r7,0(%r31)
 3534              		.loc 14 19 0
GAS LISTING C:\Users\Shehan\AppData\Local\Temp\cc6hUjm9.s 			page 63


 3535 0016 0135     		se_mr %r5,%r3
 3536              	.LVL243:
 3537              		.loc 14 25 0
 3538 0018 4803     		se_li %r3,0
 3539              	.LVL244:
 3540              		.loc 14 21 0
 3541 001a 0757     		se_subf %r7, %r5
 3542 001c 0DE7     		se_cmpl %r7,%r30
 3543 001e 7A100008 		e_blt %cr0,.L162
 3544              		.loc 14 22 0
 3545 0022 D05F     		se_stw %r5,0(%r31)
 3546              		.loc 14 23 0
 3547 0024 4813     		se_li %r3,1
 3548              	.L162:
 3549              	.LBE317:
 3550              		.loc 14 26 0
 3551 0026 C501     		se_lwz %r0,20(%r1)
 3552 0028 0090     		se_mtlr %r0
 3553              		.cfi_restore 65
 3554 002a 1BC10808 		e_lmw %r30,8(%r1)
 3555              	.LVL245:
 3556 002e 20F1     		se_addi %r1,16
 3557              	.LCFI69:
 3558              		.cfi_restore 31
 3559              		.cfi_restore 30
 3560              		.cfi_def_cfa_offset 0
 3561 0030 0004     		se_blr
 3562              		.cfi_endproc
 3563              	.LFE821:
 3564              		.size	_Z12pseudo_delaymRm, .-_Z12pseudo_delaymRm
 3565              		.globl __eabi
 3566              		.section	.text.startup.main,"axv",@progbits
 3567              		.align 1
 3568              		.p2align 4,,15
 3569              		.globl main
 3570              		.type	main, @function
 3571              	main:
 3572              	.LFB822:
 3573              		.file 15 "main.cpp"
 3574              		.loc 15 22 0
 3575              		.cfi_startproc
 3576 0000 182106D0 		e_stwu %r1,-48(%r1)
 3577              	.LCFI70:
 3578              		.cfi_def_cfa_offset 48
 3579 0004 0080     		se_mflr %r0
 3580 0006 1AE1090C 		e_stmw %r23,12(%r1)
 3581 000a DD01     		se_stw %r0,52(%r1)
 3582              		.cfi_offset 65, 4
 3583              		.cfi_offset 23, -36
 3584              		.cfi_offset 24, -32
 3585              		.cfi_offset 25, -28
 3586              		.cfi_offset 26, -24
 3587              		.cfi_offset 27, -20
 3588              		.cfi_offset 28, -16
 3589              		.cfi_offset 29, -12
 3590              		.cfi_offset 30, -8
 3591              		.cfi_offset 31, -4
GAS LISTING C:\Users\Shehan\AppData\Local\Temp\cc6hUjm9.s 			page 64


 3592              		.loc 15 22 0
 3593 000c 78000001 		e_bl __eabi
 3594              	.LVL246:
 3595              		.loc 15 23 0
 3596 0010 78000001 		e_bl componentsInit
 3597              	.LVL247:
 3598              		.loc 15 24 0
 3599              	 # 24 "main.cpp" 1
 3600 0014 7C008146 		wrteei  1
 3601              	 # 0 "" 2
 3602              		.loc 15 25 0
 3603 0018 70C0E000 		e_lis %r6,.LANCHOR34@ha
 3604 001c 30A60000 		e_lbz %r5,.LANCHOR34@l(%r6)
 3605 0020 1CC60000 		e_la %r6,.LANCHOR34@l(%r6)
 3606 0024 8176     		se_lbz %r7,1(%r6)
 3607 0026 4806     		se_li %r6,0
 3608 0028 6C47     		se_slwi %r7, 4
 3609 002a 0457     		se_add %r7,%r5
 3610 002c 73C797FC 		e_add2is %r7,0xf7fc
 3611 0030 34C71300 		e_stb %r6,4864(%r7)
 3612              		.loc 15 26 0
 3613 0034 78000001 		e_bl ADC_init
 3614              	.LVL248:
 3615              		.loc 15 27 0
 3616 0038 78000001 		e_bl CAN_init
 3617              	.LVL249:
 3618 003c 70C0E000 		e_lis %r6,.LANCHOR35@ha
 3619 0040 70E0E000 		e_lis %r7,.LANCHOR23@ha
 3620 0044 1CC60000 		e_la %r6,.LANCHOR35@l(%r6)
 3621 0048 1CE70000 		e_la %r7,.LANCHOR23@l(%r7)
 3622              	.LBB318:
 3623              	.LBB319:
 3624              		.loc 6 154 0
 3625 004c 4805     		se_li %r5,0
 3626 004e 186780F0 		e_addi %r3,%r7,240
 3627 0052 4A84     		se_li %r4,40
 3628              	.LVL250:
 3629              	.L165:
 3630 0054 D067     		se_stw %r6,0(%r7)
 3631 0056 9557     		se_stb %r5,5(%r7)
 3632 0058 9657     		se_stb %r5,6(%r7)
 3633 005a 2096     		se_addi %r6,10
 3634              	.LVL251:
 3635 005c 0447     		se_add %r7,%r4
 3636              	.LVL252:
 3637              		.loc 6 152 0
 3638 005e 0D37     		se_cmpl %r7,%r3
 3639 0060 7A02FFF4 		e_bne %cr0,.L165
 3640              	.LBE319:
 3641              	.LBE318:
 3642              		.loc 15 29 0
 3643 0064 78000001 		e_bl _Z14create_devicesv
 3644              	.LVL253:
 3645              	.LBB320:
 3646              	.LBB321:
 3647              		.loc 14 11 0
 3648 0068 73E0E000 		e_lis %r31,.LANCHOR33@ha
GAS LISTING C:\Users\Shehan\AppData\Local\Temp\cc6hUjm9.s 			page 65


 3649              	.LBE321:
 3650              	.LBE320:
 3651              		.loc 15 34 0
 3652 006c 7300E000 		e_lis %r24,.LANCHOR36@ha
 3653              	.LBB326:
 3654              	.LBB327:
 3655              		.loc 13 45 0
 3656 0070 7320E000 		e_lis %r25,CAND7@ha
 3657 0074 7340E000 		e_lis %r26,.LANCHOR31@ha
 3658              	.LBE327:
 3659              	.LBE326:
 3660              		.loc 15 38 0
 3661 0078 7360E000 		e_lis %r27,.LANCHOR27@ha
 3662              		.loc 15 39 0
 3663 007c 7380E000 		e_lis %r28,.LANCHOR28@ha
 3664              		.loc 15 40 0
 3665 0080 73A0E000 		e_lis %r29,.LANCHOR29@ha
 3666              		.loc 15 41 0
 3667 0084 73C0E000 		e_lis %r30,.LANCHOR30@ha
 3668              		.loc 15 30 0
 3669 0088 78000001 		e_bl _Z14create_modulesv
 3670              	.LVL254:
 3671              	.LBB332:
 3672              	.LBB322:
 3673              		.loc 14 11 0
 3674 008c 1FFF0000 		e_la %r31,.LANCHOR33@l(%r31)
 3675              	.LBE322:
 3676              	.LBE332:
 3677              		.loc 15 34 0
 3678 0090 1F180000 		e_la %r24,.LANCHOR36@l(%r24)
 3679 0094 72FEE7FC 		e_lis %r23,0xf7fc
 3680              	.LBB333:
 3681              	.LBB328:
 3682              		.loc 13 45 0
 3683 0098 1F390000 		e_la %r25,CAND7@l(%r25)
 3684 009c 1F5A0000 		e_la %r26,.LANCHOR31@l(%r26)
 3685              	.LBE328:
 3686              	.LBE333:
 3687              		.loc 15 38 0
 3688 00a0 1F7B0000 		e_la %r27,.LANCHOR27@l(%r27)
 3689              		.loc 15 39 0
 3690 00a4 1F9C0000 		e_la %r28,.LANCHOR28@l(%r28)
 3691              		.loc 15 40 0
 3692 00a8 1FBD0000 		e_la %r29,.LANCHOR29@l(%r29)
 3693              		.loc 15 41 0
 3694 00ac 1FDE0000 		e_la %r30,.LANCHOR30@l(%r30)
 3695              	.L167:
 3696              	.LVL255:
 3697              	.LBB334:
 3698              	.LBB323:
 3699              		.loc 14 9 0
 3700 00b0 78000001 		e_bl osalThreadGetMilliseconds
 3701              	.LVL256:
 3702              		.loc 14 11 0
 3703 00b4 C07F     		se_lwz %r7,0(%r31)
 3704              		.loc 14 9 0
 3705 00b6 0136     		se_mr %r6,%r3
GAS LISTING C:\Users\Shehan\AppData\Local\Temp\cc6hUjm9.s 			page 66


 3706              	.LVL257:
 3707              	.LBE323:
 3708              	.LBE334:
 3709              	.LBB335:
 3710              	.LBB329:
 3711              		.loc 13 45 0
 3712 00b8 2C84     		se_bmaski %r4,8
 3713              	.LBE329:
 3714              	.LBE335:
 3715              	.LBB336:
 3716              	.LBB324:
 3717              		.loc 14 11 0
 3718 00ba 0767     		se_subf %r7, %r6
 3719              	.LBE324:
 3720              	.LBE336:
 3721              	.LBB337:
 3722              	.LBB330:
 3723              		.loc 13 45 0
 3724 00bc 0193     		se_mr %r3,%r25
 3725              	.LVL258:
 3726 00be 01A5     		se_mr %r5,%r26
 3727              	.LBE330:
 3728              	.LBE337:
 3729              	.LBB338:
 3730              	.LBB325:
 3731              		.loc 14 11 0
 3732 00c0 7007A831 		e_cmpl16i %r7,49
 3733 00c4 7A01001E 		e_ble %cr0,.L166
 3734              		.loc 14 12 0
 3735 00c8 D06F     		se_stw %r6,0(%r31)
 3736              	.LBE325:
 3737              	.LBE338:
 3738              		.loc 15 34 0
 3739 00ca 8178     		se_lbz %r7,1(%r24)
 3740 00cc 8068     		se_lbz %r6,0(%r24)
 3741              	.LVL259:
 3742 00ce 6C47     		se_slwi %r7, 4
 3743 00d0 0467     		se_add %r7,%r6
 3744 00d2 7CF73A14 		add %r7,%r23,%r7
 3745 00d6 30C71300 		e_lbz %r6,4864(%r7)
 3746 00da 0026     		se_not %r6
 3747 00dc 00C6     		se_extzb %r6
 3748 00de 34C71300 		e_stb %r6,4864(%r7)
 3749              	.LVL260:
 3750              	.L166:
 3751              	.LBB339:
 3752              	.LBB331:
 3753              		.loc 13 45 0
 3754 00e2 78000001 		e_bl can_lld_transmit
 3755              	.LVL261:
 3756              	.LBE331:
 3757              	.LBE339:
 3758              	.LBB340:
 3759              	.LBB341:
 3760              		.loc 9 49 0
 3761 00e6 78000001 		e_bl can_decode
 3762              	.LVL262:
GAS LISTING C:\Users\Shehan\AppData\Local\Temp\cc6hUjm9.s 			page 67


 3763              	.LBE341:
 3764              	.LBE340:
 3765              		.loc 15 38 0
 3766 00ea C03B     		se_lwz %r3,0(%r27)
 3767 00ec C073     		se_lwz %r7,0(%r3)
 3768 00ee C077     		se_lwz %r7,0(%r7)
 3769 00f0 00B7     		se_mtctr %r7
 3770 00f2 0007     		se_bctrl
 3771              	.LVL263:
 3772              		.loc 15 39 0
 3773 00f4 C03C     		se_lwz %r3,0(%r28)
 3774 00f6 C073     		se_lwz %r7,0(%r3)
 3775 00f8 C077     		se_lwz %r7,0(%r7)
 3776 00fa 00B7     		se_mtctr %r7
 3777 00fc 0007     		se_bctrl
 3778              	.LVL264:
 3779              		.loc 15 40 0
 3780 00fe C03D     		se_lwz %r3,0(%r29)
 3781 0100 C073     		se_lwz %r7,0(%r3)
 3782 0102 C077     		se_lwz %r7,0(%r7)
 3783 0104 00B7     		se_mtctr %r7
 3784 0106 0007     		se_bctrl
 3785              	.LVL265:
 3786              		.loc 15 41 0
 3787 0108 C03E     		se_lwz %r3,0(%r30)
 3788 010a C073     		se_lwz %r7,0(%r3)
 3789 010c C077     		se_lwz %r7,0(%r7)
 3790 010e 00B7     		se_mtctr %r7
 3791 0110 0007     		se_bctrl
 3792              	.LVL266:
 3793              		.loc 15 42 0
 3794 0112 4813     		se_li %r3,1
 3795 0114 78000001 		e_bl osalThreadDelayMicroseconds
 3796              	.LVL267:
 3797              		.loc 15 21 0
 3798 0118 79FFFF98 		e_b .L167
 3799              		.cfi_endproc
 3800              	.LFE822:
 3801              		.size	main, .-main
 3802              		.section	.text.startup._GLOBAL__sub_I_adc_value,"axv",@progbits
 3803              		.align 1
 3804              		.p2align 4,,15
 3805              		.type	_GLOBAL__sub_I_adc_value, @function
 3806              	_GLOBAL__sub_I_adc_value:
 3807              	.LFB830:
 3808              		.loc 15 44 0
 3809              		.cfi_startproc
 3810              	.LVL268:
 3811 0000 70E0E000 		e_lis %r7,.LANCHOR23@ha
 3812              	.LBB342:
 3813              	.LBB343:
 3814              	.LBB344:
 3815              	.LBB345:
 3816              		.loc 6 42 0
 3817 0004 4806     		se_li %r6,0
 3818 0006 1CE70000 		e_la %r7,.LANCHOR23@l(%r7)
 3819 000a 4803     		se_li %r3,0
GAS LISTING C:\Users\Shehan\AppData\Local\Temp\cc6hUjm9.s 			page 68


 3820 000c 188780F0 		e_addi %r4,%r7,240
 3821 0010 4A85     		se_li %r5,40
 3822              	.L170:
 3823              	.LVL269:
 3824 0012 D067     		se_stw %r6,0(%r7)
 3825 0014 9567     		se_stb %r6,5(%r7)
 3826 0016 9637     		se_stb %r3,6(%r7)
 3827 0018 0457     		se_add %r7,%r5
 3828              	.LVL270:
 3829              	.LBE345:
 3830              	.LBE344:
 3831              		.file 16 "./source/APP/output_elements.h"
 3832              		.loc 16 8 0
 3833 001a 0D47     		se_cmpl %r7,%r4
 3834 001c 7A02FFF6 		e_bne %cr0,.L170
 3835              	.LBE343:
 3836              	.LBE342:
 3837              		.loc 15 44 0
 3838 0020 0004     		se_blr
 3839              		.cfi_endproc
 3840              	.LFE830:
 3841              		.size	_GLOBAL__sub_I_adc_value, .-_GLOBAL__sub_I_adc_value
 3842              		.section	.ctors,"aw",@progbits
 3843              		.align 2
 3844 0000 00000000 		.long	_GLOBAL__sub_I_adc_value
 3845              		.weak	_ZTV16momentary_Device
 3846              		.section	.rodata._ZTV16momentary_Device,"aG",@progbits,_ZTV16momentary_Device,comdat
 3847              		.align 3
 3848              		.type	_ZTV16momentary_Device, @object
 3849              		.size	_ZTV16momentary_Device, 20
 3850              	_ZTV16momentary_Device:
 3851 0000 00000000 		.long	0
 3852 0004 00000000 		.long	0
 3853 0008 00000000 		.long	_ZN16momentary_Device8activateEv
 3854 000c 00000000 		.long	_ZN16momentary_Device14evaluate_pressEv
 3855 0010 00000000 		.long	_ZN16momentary_Device14control_signalEb
 3856              		.weak	_ZTV12latch_Device
 3857              		.section	.rodata._ZTV12latch_Device,"aG",@progbits,_ZTV12latch_Device,comdat
 3858              		.align 3
 3859              		.type	_ZTV12latch_Device, @object
 3860              		.size	_ZTV12latch_Device, 20
 3861              	_ZTV12latch_Device:
 3862 0000 00000000 		.long	0
 3863 0004 00000000 		.long	0
 3864 0008 00000000 		.long	_ZN12latch_Device8activateEv
 3865 000c 00000000 		.long	_ZN12latch_Device14evaluate_pressEv
 3866 0010 00000000 		.long	_ZN12latch_Device14control_signalEb
 3867              		.weak	_ZTV13toggle_Device
 3868              		.section	.rodata._ZTV13toggle_Device,"aG",@progbits,_ZTV13toggle_Device,comdat
 3869              		.align 3
 3870              		.type	_ZTV13toggle_Device, @object
 3871              		.size	_ZTV13toggle_Device, 20
 3872              	_ZTV13toggle_Device:
 3873 0000 00000000 		.long	0
 3874 0004 00000000 		.long	0
 3875 0008 00000000 		.long	_ZN13toggle_Device8activateEv
 3876 000c 00000000 		.long	_ZN13toggle_Device14evaluate_pressEv
GAS LISTING C:\Users\Shehan\AppData\Local\Temp\cc6hUjm9.s 			page 69


 3877 0010 00000000 		.long	_ZN13toggle_Device14control_signalEb
 3878              		.weak	_ZTV16HeadLight_Module
 3879              		.section	.rodata._ZTV16HeadLight_Module,"aG",@progbits,_ZTV16HeadLight_Module,comdat
 3880              		.align 3
 3881              		.type	_ZTV16HeadLight_Module, @object
 3882              		.size	_ZTV16HeadLight_Module, 12
 3883              	_ZTV16HeadLight_Module:
 3884 0000 00000000 		.long	0
 3885 0004 00000000 		.long	0
 3886 0008 00000000 		.long	_ZN16HeadLight_Module8activateEv
 3887              		.weak	_ZTV17TurnSignal_Module
 3888              		.section	.rodata._ZTV17TurnSignal_Module,"aG",@progbits,_ZTV17TurnSignal_Module,comdat
 3889              		.align 3
 3890              		.type	_ZTV17TurnSignal_Module, @object
 3891              		.size	_ZTV17TurnSignal_Module, 12
 3892              	_ZTV17TurnSignal_Module:
 3893 0000 00000000 		.long	0
 3894 0004 00000000 		.long	0
 3895 0008 00000000 		.long	_ZN17TurnSignal_Module8activateEv
 3896              		.weak	_ZTV11Horn_Module
 3897              		.section	.rodata._ZTV11Horn_Module,"aG",@progbits,_ZTV11Horn_Module,comdat
 3898              		.align 3
 3899              		.type	_ZTV11Horn_Module, @object
 3900              		.size	_ZTV11Horn_Module, 12
 3901              	_ZTV11Horn_Module:
 3902 0000 00000000 		.long	0
 3903 0004 00000000 		.long	0
 3904 0008 00000000 		.long	_ZN11Horn_Module8activateEv
 3905              		.weak	_ZTV12Wiper_Module
 3906              		.section	.rodata._ZTV12Wiper_Module,"aG",@progbits,_ZTV12Wiper_Module,comdat
 3907              		.align 3
 3908              		.type	_ZTV12Wiper_Module, @object
 3909              		.size	_ZTV12Wiper_Module, 12
 3910              	_ZTV12Wiper_Module:
 3911 0000 00000000 		.long	0
 3912 0004 00000000 		.long	0
 3913 0008 00000000 		.long	_ZN12Wiper_Module8activateEv
 3914              		.weak	_ZTV14PDU_FAN_Module
 3915              		.section	.rodata._ZTV14PDU_FAN_Module,"aG",@progbits,_ZTV14PDU_FAN_Module,comdat
 3916              		.align 3
 3917              		.type	_ZTV14PDU_FAN_Module, @object
 3918              		.size	_ZTV14PDU_FAN_Module, 12
 3919              	_ZTV14PDU_FAN_Module:
 3920 0000 00000000 		.long	0
 3921 0004 00000000 		.long	0
 3922 0008 00000000 		.long	_ZN14PDU_FAN_Module8activateEv
 3923              		.globl timedebug
 3924              		.globl hl
 3925              		.globl can_message
 3926              		.globl txf
 3927              		.globl bms_rx
 3928              		.globl fan_unit
 3929              		.globl horn_unit
 3930              		.globl turnsignal_unit
 3931              		.globl headlight_unit
 3932              		.globl fan_state
 3933              		.globl ctrlr_fan
GAS LISTING C:\Users\Shehan\AppData\Local\Temp\cc6hUjm9.s 			page 70


 3934              		.globl motor_fan
 3935              		.globl bms_fan
 3936              		.globl hbeam_state
 3937              		.globl debug_ctrl_temp
 3938              		.globl debug_mtr_temp
 3939              		.globl debug_spress
 3940              		.globl debug_lpress
 3941              		.globl debug_hbeam
 3942              		.globl debug_pass
 3943              		.globl FD3_MSG2
 3944              		.globl FD3_MSG1
 3945              		.globl PDU_setData_i
 3946              		.globl PDU_getData_i
 3947              		.globl tf
 3948              		.globl devices
 3949              		.globl temp
 3950              		.globl hbeam_btn
 3951              		.globl buttons
 3952              		.globl button_id
 3953              		.globl L_handle_msg
 3954              		.globl R_handle_msg
 3955              		.globl channels
 3956              		.globl debug
 3957              		.globl global_adc
 3958              		.globl pinconfig
 3959              		.globl switcharm
 3960              		.globl onboardLED
 3961              		.globl adc_cb
 3962              		.globl anp
 3963              		.globl adc_value
 3964              		.section	.bss.button_id,"aw",@nobits
 3965              		.align 2
 3966              		.type	button_id, @object
 3967              		.size	button_id, 4
 3968              	button_id:
 3969 0000 00000000 		.zero	4
 3970              		.section	.bss.bms_fan,"aw",@nobits
 3971              		.set	.LANCHOR6,. + 0
 3972              		.type	bms_fan, @object
 3973              		.size	bms_fan, 1
 3974              	bms_fan:
 3975 0000 00       		.zero	1
 3976              		.section	.bss.horn_unit,"aw",@nobits
 3977              		.align 2
 3978              		.set	.LANCHOR29,. + 0
 3979              		.type	horn_unit, @object
 3980              		.size	horn_unit, 4
 3981              	horn_unit:
 3982 0000 00000000 		.zero	4
 3983              		.section	.bss.tf,"aw",@nobits
 3984              		.set	.LANCHOR25,. + 0
 3985              		.type	tf, @object
 3986              		.size	tf, 1
 3987              	tf:
 3988 0000 00       		.zero	1
 3989              		.section	.bss.timedebug,"aw",@nobits
 3990              		.align 2
GAS LISTING C:\Users\Shehan\AppData\Local\Temp\cc6hUjm9.s 			page 71


 3991              		.type	timedebug, @object
 3992              		.size	timedebug, 4
 3993              	timedebug:
 3994 0000 00000000 		.zero	4
 3995              		.section	.bss.global_adc,"aw",@nobits
 3996              		.align 2
 3997              		.set	.LANCHOR11,. + 0
 3998              		.type	global_adc, @object
 3999              		.size	global_adc, 4
 4000              	global_adc:
 4001 0000 00000000 		.zero	4
 4002              		.section	.bss.debug_ctrl_temp,"aw",@nobits
 4003              		.set	.LANCHOR2,. + 0
 4004              		.type	debug_ctrl_temp, @object
 4005              		.size	debug_ctrl_temp, 1
 4006              	debug_ctrl_temp:
 4007 0000 00       		.zero	1
 4008              		.section	.bss.debug,"aw",@nobits
 4009              		.type	debug, @object
 4010              		.size	debug, 1
 4011              	debug:
 4012 0000 00       		.zero	1
 4013              		.section	.bss.debug_mtr_temp,"aw",@nobits
 4014              		.set	.LANCHOR1,. + 0
 4015              		.type	debug_mtr_temp, @object
 4016              		.size	debug_mtr_temp, 1
 4017              	debug_mtr_temp:
 4018 0000 00       		.zero	1
 4019              		.section	.bss.temp,"aw",@nobits
 4020              		.set	.LANCHOR12,. + 0
 4021              		.type	temp, @object
 4022              		.size	temp, 1
 4023              	temp:
 4024 0000 00       		.zero	1
 4025              		.section	.data._ZZ4sbrkE1p,"aw",@progbits
 4026              		.align 2
 4027              		.set	.LANCHOR21,. + 0
 4028              		.type	_ZZ4sbrkE1p, @object
 4029              		.size	_ZZ4sbrkE1p, 4
 4030              	_ZZ4sbrkE1p:
 4031 0000 00000000 		.long	__heap_base__
 4032              		.section	.data.switcharm,"aw",@progbits
 4033              		.set	.LANCHOR34,. + 0
 4034              		.type	switcharm, @object
 4035              		.size	switcharm, 2
 4036              	switcharm:
 4037 0000 02       		.byte	2
 4038 0001 00       		.byte	0
 4039              		.section	.bss.hl,"aw",@nobits
 4040              		.type	hl, @object
 4041              		.size	hl, 1
 4042              	hl:
 4043 0000 00       		.zero	1
 4044              		.section	.bss.PDU_getData_i,"aw",@nobits
 4045              		.align 1
 4046              		.set	.LANCHOR5,. + 0
 4047              		.type	PDU_getData_i, @object
GAS LISTING C:\Users\Shehan\AppData\Local\Temp\cc6hUjm9.s 			page 72


 4048              		.size	PDU_getData_i, 22
 4049              	PDU_getData_i:
 4050 0000 00000000 		.zero	22
 4050      00000000 
 4050      00000000 
 4050      00000000 
 4050      00000000 
 4051              		.section	.bss.buttons,"aw",@nobits
 4052              		.align 2
 4053              		.set	.LANCHOR19,. + 0
 4054              		.type	buttons, @object
 4055              		.size	buttons, 140
 4056              	buttons:
 4057 0000 00000000 		.zero	140
 4057      00000000 
 4057      00000000 
 4057      00000000 
 4057      00000000 
 4058              		.section	.bss.debug_spress,"aw",@nobits
 4059              		.set	.LANCHOR16,. + 0
 4060              		.type	debug_spress, @object
 4061              		.size	debug_spress, 1
 4062              	debug_spress:
 4063 0000 00       		.zero	1
 4064              		.section	.bss.hbeam_btn,"aw",@nobits
 4065              		.align 2
 4066              		.set	.LANCHOR20,. + 0
 4067              		.type	hbeam_btn, @object
 4068              		.size	hbeam_btn, 20
 4069              	hbeam_btn:
 4070 0000 00000000 		.zero	20
 4070      00000000 
 4070      00000000 
 4070      00000000 
 4070      00000000 
 4071              		.section	.bss._ZZ12pseudo_delaymE14previousMillis,"aw",@nobits
 4072              		.align 2
 4073              		.set	.LANCHOR33,. + 0
 4074              		.type	_ZZ12pseudo_delaymE14previousMillis, @object
 4075              		.size	_ZZ12pseudo_delaymE14previousMillis, 4
 4076              	_ZZ12pseudo_delaymE14previousMillis:
 4077 0000 00000000 		.zero	4
 4078              		.section	.bss.devices,"aw",@nobits
 4079              		.align 2
 4080              		.set	.LANCHOR24,. + 0
 4081              		.type	devices, @object
 4082              		.size	devices, 28
 4083              	devices:
 4084 0000 00000000 		.zero	28
 4084      00000000 
 4084      00000000 
 4084      00000000 
 4084      00000000 
 4085              		.section	.bss.adc_cb,"aw",@nobits
 4086              		.set	.LANCHOR10,. + 0
 4087              		.type	adc_cb, @object
 4088              		.size	adc_cb, 1
GAS LISTING C:\Users\Shehan\AppData\Local\Temp\cc6hUjm9.s 			page 73


 4089              	adc_cb:
 4090 0000 00       		.zero	1
 4091              		.section	.bss.ctrlr_fan,"aw",@nobits
 4092              		.set	.LANCHOR4,. + 0
 4093              		.type	ctrlr_fan, @object
 4094              		.size	ctrlr_fan, 1
 4095              	ctrlr_fan:
 4096 0000 00       		.zero	1
 4097              		.section	.bss.debug_hbeam,"aw",@nobits
 4098              		.type	debug_hbeam, @object
 4099              		.size	debug_hbeam, 1
 4100              	debug_hbeam:
 4101 0000 00       		.zero	1
 4102              		.section	.bss.L_handle_msg,"aw",@nobits
 4103              		.set	.LANCHOR18,. + 0
 4104              		.type	L_handle_msg, @object
 4105              		.size	L_handle_msg, 1
 4106              	L_handle_msg:
 4107 0000 00       		.zero	1
 4108              		.section	.bss.headlight_unit,"aw",@nobits
 4109              		.align 2
 4110              		.set	.LANCHOR27,. + 0
 4111              		.type	headlight_unit, @object
 4112              		.size	headlight_unit, 4
 4113              	headlight_unit:
 4114 0000 00000000 		.zero	4
 4115              		.section	.bss.bms_rx,"aw",@nobits
 4116              		.set	.LANCHOR32,. + 0
 4117              		.type	bms_rx, @object
 4118              		.size	bms_rx, 1
 4119              	bms_rx:
 4120 0000 00       		.zero	1
 4121              		.section	.bss.fan_unit,"aw",@nobits
 4122              		.align 2
 4123              		.set	.LANCHOR30,. + 0
 4124              		.type	fan_unit, @object
 4125              		.size	fan_unit, 4
 4126              	fan_unit:
 4127 0000 00000000 		.zero	4
 4128              		.section	.bss.turnsignal_unit,"aw",@nobits
 4129              		.align 2
 4130              		.set	.LANCHOR28,. + 0
 4131              		.type	turnsignal_unit, @object
 4132              		.size	turnsignal_unit, 4
 4133              	turnsignal_unit:
 4134 0000 00000000 		.zero	4
 4135              		.section	.bss.PDU_setData_i,"aw",@nobits
 4136              		.align 1
 4137              		.type	PDU_setData_i, @object
 4138              		.size	PDU_setData_i, 8
 4139              	PDU_setData_i:
 4140 0000 00000000 		.zero	8
 4140      00000000 
 4141              		.section	.bss.channels,"aw",@nobits
 4142              		.align 2
 4143              		.set	.LANCHOR23,. + 0
 4144              		.type	channels, @object
GAS LISTING C:\Users\Shehan\AppData\Local\Temp\cc6hUjm9.s 			page 74


 4145              		.size	channels, 240
 4146              	channels:
 4147 0000 00000000 		.zero	240
 4147      00000000 
 4147      00000000 
 4147      00000000 
 4147      00000000 
 4148              		.section	.data.pinconfig,"aw",@progbits
 4149              		.set	.LANCHOR35,. + 0
 4150              		.type	pinconfig, @object
 4151              		.size	pinconfig, 60
 4152              	pinconfig:
 4153 0000 0D       		.byte	13
 4154 0001 03       		.byte	3
 4155 0002 0C       		.byte	12
 4156 0003 03       		.byte	3
 4157 0004 03       		.byte	3
 4158 0005 02       		.byte	2
 4159 0006 01       		.byte	1
 4160 0007 00       		.byte	0
 4161 0008 00       		.byte	0
 4162 0009 00       		.byte	0
 4163 000a 04       		.byte	4
 4164 000b 02       		.byte	2
 4165 000c 0C       		.byte	12
 4166 000d 03       		.byte	3
 4167 000e 03       		.byte	3
 4168 000f 02       		.byte	2
 4169 0010 01       		.byte	1
 4170 0011 01       		.byte	1
 4171 0012 00       		.byte	0
 4172 0013 00       		.byte	0
 4173 0014 0F       		.byte	15
 4174 0015 03       		.byte	3
 4175 0016 0E       		.byte	14
 4176 0017 03       		.byte	3
 4177 0018 03       		.byte	3
 4178 0019 05       		.byte	5
 4179 001a 01       		.byte	1
 4180 001b 00       		.byte	0
 4181 001c 01       		.byte	1
 4182 001d 00       		.byte	0
 4183 001e 0C       		.byte	12
 4184 001f 02       		.byte	2
 4185 0020 0E       		.byte	14
 4186 0021 03       		.byte	3
 4187 0022 03       		.byte	3
 4188 0023 05       		.byte	5
 4189 0024 01       		.byte	1
 4190 0025 01       		.byte	1
 4191 0026 01       		.byte	1
 4192 0027 00       		.byte	0
 4193 0028 02       		.byte	2
 4194 0029 08       		.byte	8
 4195 002a 01       		.byte	1
 4196 002b 08       		.byte	8
 4197 002c 00       		.byte	0
GAS LISTING C:\Users\Shehan\AppData\Local\Temp\cc6hUjm9.s 			page 75


 4198 002d 00       		.byte	0
 4199 002e 01       		.byte	1
 4200 002f 00       		.byte	0
 4201 0030 02       		.byte	2
 4202 0031 00       		.byte	0
 4203 0032 04       		.byte	4
 4204 0033 07       		.byte	7
 4205 0034 0F       		.byte	15
 4206 0035 02       		.byte	2
 4207 0036 00       		.byte	0
 4208 0037 00       		.byte	0
 4209 0038 01       		.byte	1
 4210 0039 00       		.byte	0
 4211 003a 03       		.byte	3
 4212 003b 00       		.byte	0
 4213              		.section	.bss.can_message,"aw",@nobits
 4214              		.type	can_message, @object
 4215              		.size	can_message, 1
 4216              	can_message:
 4217 0000 00       		.zero	1
 4218              		.section	.bss.motor_fan,"aw",@nobits
 4219              		.set	.LANCHOR3,. + 0
 4220              		.type	motor_fan, @object
 4221              		.size	motor_fan, 1
 4222              	motor_fan:
 4223 0000 00       		.zero	1
 4224              		.section	.bss.hbeam_state,"aw",@nobits
 4225              		.set	.LANCHOR13,. + 0
 4226              		.type	hbeam_state, @object
 4227              		.size	hbeam_state, 1
 4228              	hbeam_state:
 4229 0000 00       		.zero	1
 4230              		.section	.bss.FD3_MSG1,"aw",@nobits
 4231              		.align 1
 4232              		.set	.LANCHOR0,. + 0
 4233              		.type	FD3_MSG1, @object
 4234              		.size	FD3_MSG1, 8
 4235              	FD3_MSG1:
 4236 0000 00000000 		.zero	8
 4236      00000000 
 4237              		.section	.bss.FD3_MSG2,"aw",@nobits
 4238              		.align 1
 4239              		.set	.LANCHOR26,. + 0
 4240              		.type	FD3_MSG2, @object
 4241              		.size	FD3_MSG2, 8
 4242              	FD3_MSG2:
 4243 0000 00000000 		.zero	8
 4243      00000000 
 4244              		.section	.bss.debug_pass,"aw",@nobits
 4245              		.set	.LANCHOR14,. + 0
 4246              		.type	debug_pass, @object
 4247              		.size	debug_pass, 1
 4248              	debug_pass:
 4249 0000 00       		.zero	1
 4250              		.section	.data.anp,"aw",@progbits
 4251              		.align 2
 4252              		.set	.LANCHOR8,. + 0
GAS LISTING C:\Users\Shehan\AppData\Local\Temp\cc6hUjm9.s 			page 76


 4253              		.type	anp, @object
 4254              		.size	anp, 4
 4255              	anp:
 4256 0000 0D       		.byte	13
 4257 0001 31       		.byte	49
 4258 0002 11       		.byte	17
 4259 0003 27       		.byte	39
 4260              		.section	.bss.debug_lpress,"aw",@nobits
 4261              		.set	.LANCHOR15,. + 0
 4262              		.type	debug_lpress, @object
 4263              		.size	debug_lpress, 1
 4264              	debug_lpress:
 4265 0000 00       		.zero	1
 4266              		.section	.data.onboardLED,"aw",@progbits
 4267              		.set	.LANCHOR36,. + 0
 4268              		.type	onboardLED, @object
 4269              		.size	onboardLED, 4
 4270              	onboardLED:
 4271 0000 0E       		.byte	14
 4272 0001 02       		.byte	2
 4273 0002 0D       		.byte	13
 4274 0003 02       		.byte	2
 4275              		.section	.bss._ZZ4sbrkE4newp,"aw",@nobits
 4276              		.align 2
 4277              		.set	.LANCHOR22,. + 0
 4278              		.type	_ZZ4sbrkE4newp, @object
 4279              		.size	_ZZ4sbrkE4newp, 4
 4280              	_ZZ4sbrkE4newp:
 4281 0000 00000000 		.zero	4
 4282              		.section	.bss.fan_state,"aw",@nobits
 4283              		.set	.LANCHOR7,. + 0
 4284              		.type	fan_state, @object
 4285              		.size	fan_state, 1
 4286              	fan_state:
 4287 0000 00       		.zero	1
 4288              		.section	.bss.txf,"aw",@nobits
 4289              		.align 2
 4290              		.set	.LANCHOR31,. + 0
 4291              		.type	txf, @object
 4292              		.size	txf, 20
 4293              	txf:
 4294 0000 00000000 		.zero	20
 4294      00000000 
 4294      00000000 
 4294      00000000 
 4294      00000000 
 4295              		.section	.bss.adc_value,"aw",@nobits
 4296              		.align 2
 4297              		.set	.LANCHOR9,. + 0
 4298              		.type	adc_value, @object
 4299              		.size	adc_value, 16
 4300              	adc_value:
 4301 0000 00000000 		.zero	16
 4301      00000000 
 4301      00000000 
 4301      00000000 
 4302              		.section	.bss.R_handle_msg,"aw",@nobits
GAS LISTING C:\Users\Shehan\AppData\Local\Temp\cc6hUjm9.s 			page 77


 4303              		.set	.LANCHOR17,. + 0
 4304              		.type	R_handle_msg, @object
 4305              		.size	R_handle_msg, 1
 4306              	R_handle_msg:
 4307 0000 00       		.zero	1
 4308              		.section	".text","axv"
 4309              	.Letext0:
 4310              		.file 17 "c:\\spc5studio-6.0\\eclipse\\plugins\\com.st.tools.spc5.tools.gnu.gcc.ppcvle.win32_4.9.4
 4311              		.file 18 "c:\\spc5studio-6.0\\eclipse\\plugins\\com.st.tools.spc5.tools.gnu.gcc.ppcvle.win32_4.9.4
 4312              		.file 19 "c:\\spc5studio-6.0\\eclipse\\plugins\\com.st.tools.spc5.tools.gnu.gcc.ppcvle.win32_4.9.4
 4313              		.file 20 "c:\\spc5studio-6.0\\eclipse\\plugins\\com.st.tools.spc5.tools.gnu.gcc.ppcvle.win32_4.9.4
 4314              		.file 21 "c:\\spc5studio-6.0\\eclipse\\plugins\\com.st.tools.spc5.tools.gnu.gcc.ppcvle.win32_4.9.4
 4315              		.file 22 "c:\\spc5studio-6.0\\eclipse\\plugins\\com.st.tools.spc5.tools.gnu.gcc.ppcvle.win32_4.9.4
 4316              		.file 23 "c:\\spc5studio-6.0\\eclipse\\plugins\\com.st.tools.spc5.tools.gnu.gcc.ppcvle.win32_4.9.4
 4317              		.file 24 "c:\\spc5studio-6.0\\eclipse\\plugins\\com.st.tools.spc5.tools.gnu.gcc.ppcvle.win32_4.9.4
 4318              		.file 25 "c:\\spc5studio-6.0\\eclipse\\plugins\\com.st.tools.spc5.tools.gnu.gcc.ppcvle.win32_4.9.4
 4319              		.file 26 "c:\\spc5studio-6.0\\eclipse\\plugins\\com.st.tools.spc5.tools.gnu.gcc.ppcvle.win32_4.9.4
 4320              		.file 27 "c:\\spc5studio-6.0\\eclipse\\plugins\\com.st.tools.spc5.tools.gnu.gcc.ppcvle.win32_4.9.4
 4321              		.file 28 "./components/spc582bxx_platform_component_rla/lib/include/typedefs.h"
 4322              		.file 29 "./components/spc582bxx_platform_component_rla/lib/include/spc582b.h"
 4323              		.file 30 "./components/spc582bxx_low_level_drivers_component_rla/lib/include/can_lld.h"
 4324              		.file 31 "./components/spc582bxx_low_level_drivers_component_rla/lib/include/saradc_lld.h"
 4325              		.file 32 "./source/MCAL/board_config.h"
 4326              		.file 33 "c:\\spc5studio-6.0\\eclipse\\plugins\\com.st.tools.spc5.tools.gnu.gcc.ppcvle.win32_4.9.4
 4327              		.file 34 "./components/spc582bxx_low_level_drivers_component_rla/cfg/saradc_lld_cfg.h"
 4328              		.file 35 "./components/spc582bxx_low_level_drivers_component_rla/cfg/can_lld_cfg.h"
 4329              		.file 36 "./components/spc582bxx_osal_component_rla/lib/include/osal.h"
 4330              		.file 37 "c:\\spc5studio-6.0\\eclipse\\plugins\\com.st.tools.spc5.tools.gnu.gcc.ppcvle.win32_4.9.4
 4331              		.file 38 "c:\\spc5studio-6.0\\eclipse\\plugins\\com.st.tools.spc5.tools.gnu.gcc.ppcvle.win32_4.9.4
 4332              		.file 39 "./components/components.h"
 4333              		.file 40 "<built-in>"