GAS LISTING C:\Users\Shehan\AppData\Local\Temp\cc5gXvwB.s 			page 1


   1              		.file	"pal.c"
   2              		.section	".text","axv"
   3              	.Ltext0:
   4              		.cfi_sections	.debug_frame
   5              		.section	.text.pal_init,"axv",@progbits
   6              		.align 1
   7              		.p2align 4,,15
   8              		.globl pal_init
   9              		.type	pal_init, @function
  10              	pal_init:
  11              	.LFB2:
  12              		.file 1 "./components/spc582bxx_board_initialization_component_rla/lib/src/pal.c"
  13              		.loc 1 29 0
  14              		.cfi_startproc
  15              	.LVL0:
  16 0000 182106E0 		e_stwu %r1,-32(%r1)
  17              	.LCFI0:
  18              		.cfi_def_cfa_offset 32
  19 0004 0080     		se_mflr %r0
  20 0006 D7F1     		se_stw %r31,28(%r1)
  21 0008 D901     		se_stw %r0,36(%r1)
  22              		.cfi_offset 65, 4
  23              		.cfi_offset 31, -4
  24              		.loc 1 29 0
  25 000a 013F     		se_mr %r31,%r3
  26              		.loc 1 35 0
  27 000c 4924     		se_li %r4,18
  28 000e 48F3     		se_li %r3,15
  29              	.LVL1:
  30 0010 78000001 		e_bl SPCSetPeripheralClockMode
  31              	.LVL2:
  32              		.loc 1 40 0
  33 0014 4807     		se_li %r7,0
  34              		.loc 1 41 0
  35 0016 C04F     		se_lwz %r4,0(%r31)
  36              		.loc 1 40 0
  37 0018 B471     		se_sth %r7,8(%r1)
  38              		.loc 1 42 0
  39 001a 707EE7FC 		e_lis %r3,0xf7fc
  40              		.loc 1 41 0
  41 001e A471     		se_lhz %r7,8(%r1)
  42 0020 2C00     		se_bmaski %r0,0
  43 0022 7CE61070 		e_slwi %r6,%r7,2
  44 0026 6C47     		se_slwi %r7, 4
  45 0028 0667     		se_sub %r7, %r6
  46 002a 7CE43AAE 		lhax %r7,%r4,%r7
  47 002e 73E79FFF 		e_cmp16i %r7,-1
  48 0032 7A120078 		e_beq %cr0,.L6
  49              	.L9:
  50              		.loc 1 42 0
  51 0036 A461     		se_lhz %r6,8(%r1)
  52 0038 A471     		se_lhz %r7,8(%r1)
  53 003a 7CC51070 		e_slwi %r5,%r6,2
  54 003e 7CEB1070 		e_slwi %r11,%r7,2
  55 0042 6C46     		se_slwi %r6, 4
  56 0044 0765     		se_subf %r5, %r6
  57 0046 7CE62070 		e_slwi %r6,%r7,4
GAS LISTING C:\Users\Shehan\AppData\Local\Temp\cc5gXvwB.s 			page 2


  58 004a 7CA42AAE 		lhax %r5,%r4,%r5
  59 004e 7CEB3050 		subf %r7, %r11, %r6
  60 0052 7CC32A14 		add %r6,%r3,%r5
  61 0056 7CE43A14 		add %r7,%r4,%r7
  62 005a 8877     		se_lbz %r7,8(%r7)
  63 005c 34E61300 		e_stb %r7,4864(%r6)
  64              		.loc 1 43 0
  65 0060 A461     		se_lhz %r6,8(%r1)
  66 0062 C05F     		se_lwz %r5,0(%r31)
  67 0064 A471     		se_lhz %r7,8(%r1)
  68 0066 7CCB1070 		e_slwi %r11,%r6,2
  69 006a 7CE41070 		e_slwi %r4,%r7,2
  70 006e 6C46     		se_slwi %r6, 4
  71 0070 6C47     		se_slwi %r7, 4
  72 0072 7CCB3050 		subf %r6, %r11, %r6
  73 0076 0647     		se_sub %r7, %r4
  74 0078 7CC532AE 		lhax %r6,%r5,%r6
  75 007c 7CE53A14 		add %r7,%r5,%r7
  76 0080 18C68090 		e_addi %r6,%r6,144
  77 0084 C177     		se_lwz %r7,4(%r7)
  78 0086 6C26     		se_slwi %r6, 2
  79 0088 7CE3312E 		stwx %r7,%r3,%r6
  80              		.loc 1 44 0
  81 008c A461     		se_lhz %r6,8(%r1)
  82              		.loc 1 41 0
  83 008e C04F     		se_lwz %r4,0(%r31)
  84              		.loc 1 44 0
  85 0090 2006     		se_addi %r6,1
  86 0092 00E6     		se_extzh %r6
  87 0094 B461     		se_sth %r6,8(%r1)
  88              		.loc 1 41 0
  89 0096 A461     		se_lhz %r6,8(%r1)
  90 0098 7CC71070 		e_slwi %r7,%r6,2
  91 009c 6C46     		se_slwi %r6, 4
  92 009e 0676     		se_sub %r6, %r7
  93 00a0 7CE432AE 		lhax %r7,%r4,%r6
  94 00a4 0C07     		se_cmp %r7,%r0
  95 00a6 7A02FF90 		e_bne %cr0,.L9
  96              	.L6:
  97              		.loc 1 48 0
  98 00aa 4806     		se_li %r6,0
  99              		.loc 1 49 0
 100 00ac C17F     		se_lwz %r7,4(%r31)
 101              		.loc 1 48 0
 102 00ae B461     		se_sth %r6,8(%r1)
 103              		.loc 1 50 0
 104 00b0 707EE7FC 		e_lis %r3,0xf7fc
 105              		.loc 1 49 0
 106 00b4 A461     		se_lhz %r6,8(%r1)
 107 00b6 2C04     		se_bmaski %r4,0
 108 00b8 6C36     		se_slwi %r6, 3
 109 00ba 7CC732AE 		lhax %r6,%r7,%r6
 110 00be 73E69FFF 		e_cmp16i %r6,-1
 111 00c2 7A120038 		e_beq %cr0,.L1
 112              	.L8:
 113              		.loc 1 50 0
 114 00c6 A461     		se_lhz %r6,8(%r1)
GAS LISTING C:\Users\Shehan\AppData\Local\Temp\cc5gXvwB.s 			page 3


 115 00c8 A451     		se_lhz %r5,8(%r1)
 116 00ca 6C36     		se_slwi %r6, 3
 117 00cc 6C35     		se_slwi %r5, 3
 118 00ce 7CC732AE 		lhax %r6,%r7,%r6
 119 00d2 0457     		se_add %r7,%r5
 120 00d4 1CC60290 		e_add16i %r6,%r6,656
 121 00d8 C157     		se_lwz %r5,4(%r7)
 122 00da 7CC71070 		e_slwi %r7,%r6,2
 123 00de 7CA3392E 		stwx %r5,%r3,%r7
 124              		.loc 1 51 0
 125 00e2 A461     		se_lhz %r6,8(%r1)
 126              		.loc 1 49 0
 127 00e4 C17F     		se_lwz %r7,4(%r31)
 128              		.loc 1 51 0
 129 00e6 2006     		se_addi %r6,1
 130 00e8 00E6     		se_extzh %r6
 131 00ea B461     		se_sth %r6,8(%r1)
 132              		.loc 1 49 0
 133 00ec A461     		se_lhz %r6,8(%r1)
 134 00ee 6C36     		se_slwi %r6, 3
 135 00f0 7CC732AE 		lhax %r6,%r7,%r6
 136 00f4 0C46     		se_cmp %r6,%r4
 137 00f6 7A02FFD0 		e_bne %cr0,.L8
 138              	.L1:
 139              		.loc 1 53 0
 140 00fa C901     		se_lwz %r0,36(%r1)
 141 00fc 0090     		se_mtlr %r0
 142              		.cfi_restore 65
 143 00fe C7F1     		se_lwz %r31,28(%r1)
 144              	.LVL3:
 145 0100 21F1     		se_addi %r1,32
 146              	.LCFI1:
 147              		.cfi_restore 31
 148              		.cfi_def_cfa_offset 0
 149 0102 0004     		se_blr
 150              		.cfi_endproc
 151              	.LFE2:
 152              		.size	pal_init, .-pal_init
 153              		.section	.text._pal_readgroup,"axv",@progbits
 154              		.align 1
 155              		.p2align 4,,15
 156              		.globl _pal_readgroup
 157              		.type	_pal_readgroup, @function
 158              	_pal_readgroup:
 159              	.LFB3:
 160              		.loc 1 66 0
 161              		.cfi_startproc
 162              	.LVL4:
 163              		.loc 1 72 0
 164 0000 4803     		se_li %r3,0
 165              	.LVL5:
 166 0002 0004     		se_blr
 167              		.cfi_endproc
 168              	.LFE3:
 169              		.size	_pal_readgroup, .-_pal_readgroup
 170              		.section	.text._pal_writegroup,"axv",@progbits
 171              		.align 1
GAS LISTING C:\Users\Shehan\AppData\Local\Temp\cc5gXvwB.s 			page 4


 172              		.p2align 4,,15
 173              		.globl _pal_writegroup
 174              		.type	_pal_writegroup, @function
 175              	_pal_writegroup:
 176              	.LFB4:
 177              		.loc 1 86 0
 178              		.cfi_startproc
 179              	.LVL6:
 180 0000 0004     		se_blr
 181              		.cfi_endproc
 182              	.LFE4:
 183              		.size	_pal_writegroup, .-_pal_writegroup
 184              		.section	.text._pal_setgroupmode,"axv",@progbits
 185              		.align 1
 186              		.p2align 4,,15
 187              		.globl _pal_setgroupmode
 188              		.type	_pal_setgroupmode, @function
 189              	_pal_setgroupmode:
 190              	.LFB5:
 191              		.loc 1 107 0
 192              		.cfi_startproc
 193              	.LVL7:
 194              		.loc 1 112 0
 195 0000 4906     		se_li %r6,16
 196              		.loc 1 108 0
 197 0002 6C43     		se_slwi %r3, 4
 198              	.LVL8:
 199              		.loc 1 109 0
 200 0004 6307     		se_bgeni %r7,16
 201              		.loc 1 112 0
 202 0006 717EE7FC 		e_lis %r11,0xf7fc
 203 000a 00B6     		se_mtctr %r6
 204              	.LVL9:
 205              	.L17:
 206              		.loc 1 111 0
 207 000c 7CE62039 		and. %r6,%r7,%r4
 208 0010 7A12000E 		e_beq %cr0,.L16
 209              		.loc 1 112 0
 210 0014 18C38090 		e_addi %r6,%r3,144
 211 0018 6C26     		se_slwi %r6, 2
 212 001a 7CAB312E 		stwx %r5,%r11,%r6
 213              	.L16:
 214              		.loc 1 114 0
 215 001e 6817     		se_srwi %r7,1
 216              	.LVL10:
 217              		.loc 1 115 0
 218 0020 2003     		se_addi %r3,1
 219              	.LVL11:
 220              		.loc 1 110 0
 221 0022 7A20FFEA 		e_bdnz .L17
 222              		.loc 1 117 0
 223 0026 0004     		se_blr
 224              		.cfi_endproc
 225              	.LFE5:
 226              		.size	_pal_setgroupmode, .-_pal_setgroupmode
 227              		.section	".text","axv"
 228              	.Letext0:
GAS LISTING C:\Users\Shehan\AppData\Local\Temp\cc5gXvwB.s 			page 5


 229              		.file 2 "c:\\users\\shehan\\documents\\environments\\spc5_env\\toolchain\\powerpc-eabivle\\include
 230              		.file 3 "c:\\users\\shehan\\documents\\environments\\spc5_env\\toolchain\\powerpc-eabivle\\include
 231              		.file 4 "./components/spc582bxx_platform_component_rla/lib/include/typedefs.h"
 232              		.file 5 "./components/spc582bxx_platform_component_rla/lib/include/spc582b.h"
 233              		.file 6 "./components/spc582bxx_board_initialization_component_rla/lib/include/pal.h"
 234              		.file 7 "./components/spc582bxx_clock_component_rla/lib/include/clock.h"