GAS LISTING C:\Users\Shehan\AppData\Local\Temp\ccCHLFk3.s 			page 1


   1              		.file	"systimer.c"
   2              		.section	".text","axv"
   3              	.Ltext0:
   4              		.cfi_sections	.debug_frame
   5              		.section	.text.sysTimeSetup,"axv",@progbits
   6              		.align 1
   7              		.p2align 4,,15
   8              		.globl sysTimeSetup
   9              		.type	sysTimeSetup, @function
  10              	sysTimeSetup:
  11              	.LFB2:
  12              		.file 1 "./components/spc582bxx_osal_component_rla/lib/src/systimer.c"
  13              		.loc 1 52 0
  14              		.cfi_startproc
  15              	.LVL0:
  16 0000 182106F0 		e_stwu %r1,-16(%r1)
  17              	.LCFI0:
  18              		.cfi_def_cfa_offset 16
  19 0004 0080     		se_mflr %r0
  20 0006 D3F1     		se_stw %r31,12(%r1)
  21 0008 D501     		se_stw %r0,20(%r1)
  22              		.cfi_offset 65, 4
  23              		.cfi_offset 31, -4
  24              		.loc 1 52 0
  25 000a 013F     		se_mr %r31,%r3
  26              		.loc 1 58 0
  27 000c 70D07804 		e_li %r6,-32764
  28              		.loc 1 59 0
  29 0010 49E3     		se_li %r3,30
  30              	.LVL1:
  31              		.loc 1 58 0
  32 0012 70FEE404 		e_lis %r7,0xf404
  33              		.loc 1 59 0
  34 0016 4924     		se_li %r4,18
  35              		.loc 1 58 0
  36 0018 70E8C224 		e_or2i %r7,16932
  37 001c B067     		se_sth %r6,0(%r7)
  38              		.loc 1 59 0
  39 001e 78000001 		e_bl SPCSetPeripheralClockMode
  40              	.LVL2:
  41              		.loc 1 61 0
  42 0022 4815     		se_li %r5,1
  43 0024 70DEE7F8 		e_lis %r6,0xf7f8
  44              		.loc 1 60 0
  45 0028 70E0E4C4 		e_lis %r7,0x4c4
  46              		.loc 1 61 0
  47 002c 6516     		se_bseti %r6,17
  48              		.loc 1 60 0
  49 002e 18E7D1B4 		e_ori %r7,%r7,46080
  50              		.loc 1 61 0
  51 0032 D056     		se_stw %r5,0(%r6)
  52              		.loc 1 60 0
  53 0034 7C67FB96 		divwu %r3,%r7,%r31
  54              		.loc 1 65 0
  55 0038 4837     		se_li %r7,3
  56              		.loc 1 60 0
  57 003a 186384FF 		e_addi %r3,%r3,-1
GAS LISTING C:\Users\Shehan\AppData\Local\Temp\ccCHLFk3.s 			page 2


  58              	.LVL3:
  59              		.loc 1 62 0
  60 003e 54660100 		e_stw %r3,256(%r6)
  61              		.loc 1 63 0
  62 0042 54660104 		e_stw %r3,260(%r6)
  63              		.loc 1 64 0
  64 0046 54A6010C 		e_stw %r5,268(%r6)
  65              		.loc 1 65 0
  66 004a 54E60108 		e_stw %r7,264(%r6)
  67              		.loc 1 66 0
  68 004e C501     		se_lwz %r0,20(%r1)
  69 0050 0090     		se_mtlr %r0
  70              		.cfi_restore 65
  71 0052 C3F1     		se_lwz %r31,12(%r1)
  72              	.LVL4:
  73 0054 20F1     		se_addi %r1,16
  74              	.LCFI1:
  75              		.cfi_restore 31
  76              		.cfi_def_cfa_offset 0
  77 0056 0004     		se_blr
  78              		.cfi_endproc
  79              	.LFE2:
  80              		.size	sysTimeSetup, .-sysTimeSetup
  81              		.section	.text.sysTimeReset,"axv",@progbits
  82              		.align 1
  83              		.p2align 4,,15
  84              		.globl sysTimeReset
  85              		.type	sysTimeReset, @function
  86              	sysTimeReset:
  87              	.LFB3:
  88              		.loc 1 74 0
  89              		.cfi_startproc
  90              		.loc 1 76 0
  91 0000 70FEE7F8 		e_lis %r7,0xf7f8
  92 0004 6517     		se_bseti %r7,17
  93 0006 50C7010C 		e_lwz %r6,268(%r7)
  94 000a 2206     		se_cmpli %r6,1
  95 000c 7A120006 		e_beq %cr0,.L5
  96 0010 0004     		se_blr
  97              	.L5:
  98              		.loc 1 77 0
  99 0012 54C7010C 		e_stw %r6,268(%r7)
 100 0016 0004     		se_blr
 101              		.cfi_endproc
 102              	.LFE3:
 103              		.size	sysTimeReset, .-sysTimeReset
 104              		.section	".text","axv"
 105              	.Letext0:
 106              		.file 2 "c:\\users\\shehan\\documents\\environments\\spc5_env\\toolchain\\powerpc-eabivle\\include
 107              		.file 3 "c:\\users\\shehan\\documents\\environments\\spc5_env\\toolchain\\powerpc-eabivle\\include
 108              		.file 4 "./components/spc582bxx_platform_component_rla/lib/include/typedefs.h"
 109              		.file 5 "./components/spc582bxx_platform_component_rla/lib/include/spc582b.h"
 110              		.file 6 "./components/spc582bxx_clock_component_rla/lib/include/clock.h"