GAS LISTING C:\Users\shehans\AppData\Local\Temp\ccezVigi.s 			page 1


   1              		.file	"main.c"
   2              		.section	".text","axv"
   3              	.Ltext0:
   4              		.cfi_sections	.debug_frame
   5              		.section	.text.ADC_init,"axv",@progbits
   6              		.align 1
   7              		.p2align 4,,15
   8              		.globl ADC_init
   9              		.type	ADC_init, @function
  10              	ADC_init:
  11              	.LFB2:
  12              		.file 1 "source/adc_driver.h"
  13              		.loc 1 18 0
  14              		.cfi_startproc
  15              	.LVL0:
  16 0000 182106F0 		e_stwu %r1,-16(%r1)
  17              	.LCFI0:
  18              		.cfi_def_cfa_offset 16
  19 0004 0080     		se_mflr %r0
  20 0006 D3F1     		se_stw %r31,12(%r1)
  21 0008 D501     		se_stw %r0,20(%r1)
  22              		.cfi_offset 65, 4
  23              		.cfi_offset 31, -4
  24              		.loc 1 21 0
  25 000a 73E0E000 		e_lis %r31,SARADC12DSV@ha
  26 000e 7080E000 		e_lis %r4,saradc_config_saradcconf@ha
  27 0012 1FFF0000 		e_la %r31,SARADC12DSV@l(%r31)
  28 0016 1C840000 		e_la %r4,saradc_config_saradcconf@l(%r4)
  29 001a 01F3     		se_mr %r3,%r31
  30 001c 78000001 		e_bl saradc_lld_start
  31              	.LVL1:
  32              		.loc 1 23 0
  33 0020 C501     		se_lwz %r0,20(%r1)
  34              		.loc 1 22 0
  35 0022 01F3     		se_mr %r3,%r31
  36              		.loc 1 23 0
  37 0024 0090     		se_mtlr %r0
  38              		.cfi_restore 65
  39 0026 C3F1     		se_lwz %r31,12(%r1)
  40 0028 20F1     		se_addi %r1,16
  41              	.LCFI1:
  42              		.cfi_restore 31
  43              		.cfi_def_cfa_offset 0
  44              		.loc 1 22 0
  45 002a 78000000 		e_b saradc_lld_start_conversion
  46              	.LVL2:
  47              		.cfi_endproc
  48              	.LFE2:
  49              		.size	ADC_init, .-ADC_init
  50              		.section	.text.saradcconf_conv_cb,"axv",@progbits
  51              		.align 1
  52              		.p2align 4,,15
  53              		.globl saradcconf_conv_cb
  54              		.type	saradcconf_conv_cb, @function
  55              	saradcconf_conv_cb:
  56              	.LFB3:
  57              		.loc 1 25 0
GAS LISTING C:\Users\shehans\AppData\Local\Temp\ccezVigi.s 			page 2


  58              		.cfi_startproc
  59              	.LVL3:
  60 0000 182106E8 		e_stwu %r1,-24(%r1)
  61              	.LCFI2:
  62              		.cfi_def_cfa_offset 24
  63 0004 0080     		se_mflr %r0
  64 0006 1B810908 		e_stmw %r28,8(%r1)
  65 000a D701     		se_stw %r0,28(%r1)
  66              		.cfi_offset 65, 4
  67              		.cfi_offset 28, -16
  68              		.cfi_offset 29, -12
  69              		.cfi_offset 30, -8
  70              		.cfi_offset 31, -4
  71 000c 73A0E000 		e_lis %r29,.LANCHOR1@ha
  72 0010 73C0E000 		e_lis %r30,.LANCHOR0@ha
  73 0014 1FBD0000 		e_la %r29,.LANCHOR1@l(%r29)
  74 0018 1FDE0000 		e_la %r30,.LANCHOR0@l(%r30)
  75 001c 1BFD84FC 		e_addi %r31,%r29,-4
  76              		.loc 1 25 0
  77 0020 013C     		se_mr %r28,%r3
  78 0022 1BDE84FF 		e_addi %r30,%r30,-1
  79 0026 20BD     		se_addi %r29,12
  80              	.LVL4:
  81              	.L3:
  82              	.LBB2:
  83              		.loc 1 28 0 discriminator 3
  84 0028 01C3     		se_mr %r3,%r28
  85 002a 189E0001 		e_lbzu %r4,1(%r30)
  86              	.LVL5:
  87 002e 78000001 		e_bl saradc_lld_readchannel
  88              	.LVL6:
  89 0032 187F0604 		e_stwu %r3,4(%r31)
  90              	.LVL7:
  91              		.loc 1 27 0 discriminator 3
  92 0036 0DDF     		se_cmpl %r31,%r29
  93 0038 7A02FFF0 		e_bne %cr0,.L3
  94              	.LBE2:
  95              		.loc 1 30 0
  96 003c C701     		se_lwz %r0,28(%r1)
  97 003e 0090     		se_mtlr %r0
  98              		.cfi_restore 65
  99 0040 1B810808 		e_lmw %r28,8(%r1)
 100              	.LVL8:
 101 0044 2171     		se_addi %r1,24
 102              	.LCFI3:
 103              		.cfi_restore 31
 104              		.cfi_restore 30
 105              		.cfi_restore 29
 106              		.cfi_restore 28
 107              		.cfi_def_cfa_offset 0
 108 0046 0004     		se_blr
 109              		.cfi_endproc
 110              	.LFE3:
 111              		.size	saradcconf_conv_cb, .-saradcconf_conv_cb
 112              		.globl __eabi
 113              		.section	.text.startup.main,"axv",@progbits
 114              		.align 1
GAS LISTING C:\Users\shehans\AppData\Local\Temp\ccezVigi.s 			page 3


 115              		.p2align 4,,15
 116              		.globl main
 117              		.type	main, @function
 118              	main:
 119              	.LFB4:
 120              		.file 2 "main.c"
 121              		.loc 2 11 0
 122              		.cfi_startproc
 123 0000 182106F8 		e_stwu %r1,-8(%r1)
 124              	.LCFI4:
 125              		.cfi_def_cfa_offset 8
 126 0004 0080     		se_mflr %r0
 127 0006 D301     		se_stw %r0,12(%r1)
 128              		.cfi_offset 65, 4
 129              		.loc 2 11 0
 130 0008 78000001 		e_bl __eabi
 131              	.LVL9:
 132              		.loc 2 12 0
 133 000c 78000001 		e_bl componentsInit
 134              	.LVL10:
 135              		.loc 2 13 0
 136              	 # 13 "main.c" 1
 137 0010 7C008146 		wrteei  1
 138              	 # 0 "" 2
 139              		.loc 2 14 0
 140 0014 78000001 		e_bl ADC_init
 141              	.LVL11:
 142              	.L7:
 143              		.loc 2 18 0 discriminator 1
 144 0018 48A3     		se_li %r3,10
 145 001a 78000001 		e_bl osalThreadDelayMilliseconds
 146              	.LVL12:
 147              		.loc 2 19 0 discriminator 1
 148 001e 79FFFFFA 		e_b .L7
 149              		.cfi_endproc
 150              	.LFE4:
 151              		.size	main, .-main
 152              		.globl anp
 153              		.globl value
 154              		.globl IS_6
 155              		.globl IS_5
 156              		.globl IS_3_4
 157              		.globl IS_1_2
 158              		.section	.bss.IS_1_2,"aw",@nobits
 159              		.align 1
 160              		.type	IS_1_2, @object
 161              		.size	IS_1_2, 2
 162              	IS_1_2:
 163 0000 0000     		.zero	2
 164              		.section	.bss.value,"aw",@nobits
 165              		.align 2
 166              		.set	.LANCHOR1,. + 0
 167              		.type	value, @object
 168              		.size	value, 16
 169              	value:
 170 0000 00000000 		.zero	16
 170      00000000 
GAS LISTING C:\Users\shehans\AppData\Local\Temp\ccezVigi.s 			page 4


 170      00000000 
 170      00000000 
 171              		.section	.bss.IS_3_4,"aw",@nobits
 172              		.align 1
 173              		.type	IS_3_4, @object
 174              		.size	IS_3_4, 2
 175              	IS_3_4:
 176 0000 0000     		.zero	2
 177              		.section	.bss.IS_5,"aw",@nobits
 178              		.align 1
 179              		.type	IS_5, @object
 180              		.size	IS_5, 2
 181              	IS_5:
 182 0000 0000     		.zero	2
 183              		.section	.bss.IS_6,"aw",@nobits
 184              		.align 1
 185              		.type	IS_6, @object
 186              		.size	IS_6, 2
 187              	IS_6:
 188 0000 0000     		.zero	2
 189              		.section	.data.anp,"aw",@progbits
 190              		.align 2
 191              		.set	.LANCHOR0,. + 0
 192              		.type	anp, @object
 193              		.size	anp, 4
 194              	anp:
 195 0000 0D       		.byte	13
 196 0001 31       		.byte	49
 197 0002 11       		.byte	17
 198 0003 27       		.byte	39
 199              		.section	".text","axv"
 200              	.Letext0:
 201              		.file 3 "c:\\spc5studio-6.0\\eclipse\\plugins\\com.st.tools.spc5.tools.gnu.gcc.ppcvle.win32_4.9.4.
 202              		.file 4 "c:\\spc5studio-6.0\\eclipse\\plugins\\com.st.tools.spc5.tools.gnu.gcc.ppcvle.win32_4.9.4.
 203              		.file 5 "./components/spc582bxx_platform_component_rla/lib/include/typedefs.h"
 204              		.file 6 "./components/spc582bxx_platform_component_rla/lib/include/spc582b.h"
 205              		.file 7 "./components/spc582bxx_low_level_drivers_component_rla/lib/include/saradc_lld.h"
 206              		.file 8 "source/gpio_hal.h"
 207              		.file 9 "./components/spc582bxx_low_level_drivers_component_rla/cfg/saradc_lld_cfg.h"
 208              		.file 10 "./components/components.h"
 209              		.file 11 "./components/spc582bxx_osal_component_rla/lib/include/osal.h"