GAS LISTING C:\Users\shehans\AppData\Local\Temp\cclmUmtl.s 			page 1


   1              		.file	"osal.c"
   2              		.section	".text","axv"
   3              	.Ltext0:
   4              		.cfi_sections	.debug_frame
   5              		.section	.text.osalSysTimeDelayTicks,"axv",@progbits
   6              		.align 1
   7              		.p2align 4,,15
   8              		.type	osalSysTimeDelayTicks, @function
   9              	osalSysTimeDelayTicks:
  10              	.LFB11:
  11              		.file 1 "./components/spc582bxx_osal_component_rla/lib/src/osal.c"
  12              		.loc 1 229 0
  13              		.cfi_startproc
  14              	.LVL0:
  15              		.loc 1 233 0
  16 0000 70C0E000 		e_lis %r6,.LANCHOR0@ha
  17 0004 50E60000 		e_lwz %r7,.LANCHOR0@l(%r6)
  18              	.LVL1:
  19              		.loc 1 234 0
  20 0008 1CC60000 		e_la %r6,.LANCHOR0@l(%r6)
  21 000c 0473     		se_add %r3,%r7
  22              	.LVL2:
  23              	.L2:
  24              		.loc 1 234 0 is_stmt 0 discriminator 1
  25 000e C076     		se_lwz %r7,0(%r6)
  26 0010 0D37     		se_cmpl %r7,%r3
  27 0012 7A10FFFC 		e_blt %cr0,.L2
  28              		.loc 1 237 0 is_stmt 1
  29 0016 0004     		se_blr
  30              		.cfi_endproc
  31              	.LFE11:
  32              		.size	osalSysTimeDelayTicks, .-osalSysTimeDelayTicks
  33              		.section	.text.osalSysTimeGetTicks,"axv",@progbits
  34              		.align 1
  35              		.p2align 4,,15
  36              		.type	osalSysTimeGetTicks, @function
  37              	osalSysTimeGetTicks:
  38              	.LFB12:
  39              		.loc 1 246 0
  40              		.cfi_startproc
  41              		.loc 1 248 0
  42 0000 70E0E000 		e_lis %r7,.LANCHOR0@ha
  43 0004 50670000 		e_lwz %r3,.LANCHOR0@l(%r7)
  44              		.loc 1 249 0
  45 0008 0004     		se_blr
  46              		.cfi_endproc
  47              	.LFE12:
  48              		.size	osalSysTimeGetTicks, .-osalSysTimeGetTicks
  49              		.section	.text.osalIsrEnable,"axv",@progbits
  50              		.align 1
  51              		.p2align 4,,15
  52              		.type	osalIsrEnable, @function
  53              	osalIsrEnable:
  54              	.LFB14:
  55              		.loc 1 276 0
  56              		.cfi_startproc
  57              		.loc 1 278 0
GAS LISTING C:\Users\shehans\AppData\Local\Temp\cclmUmtl.s 			page 2


  58 0000 70A0E000 		e_lis %r5,.LANCHOR1@ha
  59              		.loc 1 279 0
  60 0004 70C0E000 		e_lis %r6,.LANCHOR2@ha
  61              		.loc 1 278 0
  62 0008 50E50000 		e_lwz %r7,.LANCHOR1@l(%r5)
  63              		.loc 1 279 0
  64 000c 50C60000 		e_lwz %r6,.LANCHOR2@l(%r6)
  65              		.loc 1 278 0
  66 0010 18E784FF 		e_addi %r7,%r7,-1
  67              		.loc 1 279 0
  68 0014 2A06     		se_cmpi %r6,0
  69              		.loc 1 278 0
  70 0016 54E50000 		e_stw %r7,.LANCHOR1@l(%r5)
  71              		.loc 1 279 0
  72 001a 7A12000E 		e_beq %cr0,.L6
  73              		.loc 1 279 0 is_stmt 0 discriminator 1
  74 001e 2A07     		se_cmpi %r7,0
  75 0020 7A020008 		e_bne %cr0,.L6
  76              		.loc 1 280 0 is_stmt 1
  77              	 # 280 "./components/spc582bxx_osal_component_rla/lib/src/osal.c" 1
  78 0024 7C008146 		wrteei  1
  79              	 # 0 "" 2
  80              	.L6:
  81 0028 0004     		se_blr
  82              		.cfi_endproc
  83              	.LFE14:
  84              		.size	osalIsrEnable, .-osalIsrEnable
  85              		.section	.text.osalIsrDisable,"axv",@progbits
  86              		.align 1
  87              		.p2align 4,,15
  88              		.type	osalIsrDisable, @function
  89              	osalIsrDisable:
  90              	.LFB13:
  91              		.loc 1 260 0
  92              		.cfi_startproc
  93              		.loc 1 262 0
  94 0000 70C0E000 		e_lis %r6,.LANCHOR1@ha
  95 0004 50E60000 		e_lwz %r7,.LANCHOR1@l(%r6)
  96 0008 2007     		se_addi %r7,1
  97 000a 54E60000 		e_stw %r7,.LANCHOR1@l(%r6)
  98              		.loc 1 263 0
  99 000e 2207     		se_cmpli %r7,1
 100 0010 7A120006 		e_beq %cr0,.L12
 101              	.L8:
 102 0014 0004     		se_blr
 103              	.L12:
 104              	.LVL3:
 105              	.LBB42:
 106              	.LBB43:
 107              	.LBB44:
 108              	.LBB45:
 109              	.LBB46:
 110              		.file 2 "./components/spc582bxx_irq_component_rla/lib/include/irq.h"
 111              		.loc 2 87 0
 112              	 # 87 "./components/spc582bxx_irq_component_rla/lib/include/irq.h" 1
 113 0016 7CE000A6 		mfmsr %r7
 114              	 # 0 "" 2
GAS LISTING C:\Users\shehans\AppData\Local\Temp\cclmUmtl.s 			page 3


 115              	.LVL4:
 116              	.LBE46:
 117              	.LBE45:
 118              	.LBE44:
 119              	.LBE43:
 120              		.loc 1 264 0
 121 001a 70C0E000 		e_lis %r6,.LANCHOR2@ha
 122              	.LBB48:
 123              	.LBB47:
 124              		.loc 2 104 0
 125 001e 74E78FFF 		e_rlwinm %r7,%r7,17,31,31
 126              	.LVL5:
 127              	.LBE47:
 128              	.LBE48:
 129              		.loc 1 264 0
 130 0022 54E60000 		e_stw %r7,.LANCHOR2@l(%r6)
 131              		.loc 1 265 0
 132 0026 2A07     		se_cmpi %r7,0
 133 0028 7A12FFEC 		e_beq %cr0,.L8
 134              		.loc 1 266 0
 135              	 # 266 "./components/spc582bxx_osal_component_rla/lib/src/osal.c" 1
 136 002c 7C000146 		wrteei  0
 137              	 # 0 "" 2
 138 0030 0004     		se_blr
 139              	.LBE42:
 140              		.cfi_endproc
 141              	.LFE13:
 142              		.size	osalIsrDisable, .-osalIsrDisable
 143              		.section	.text.osalSysTimeSetup,"axv",@progbits
 144              		.align 1
 145              		.p2align 4,,15
 146              		.globl osalSysTimeSetup
 147              		.type	osalSysTimeSetup, @function
 148              	osalSysTimeSetup:
 149              	.LFB2:
 150              		.loc 1 102 0
 151              		.cfi_startproc
 152              	.LVL6:
 153 0000 182106F8 		e_stwu %r1,-8(%r1)
 154              	.LCFI0:
 155              		.cfi_def_cfa_offset 8
 156 0004 0080     		se_mflr %r0
 157              		.loc 1 104 0
 158 0006 70E0E000 		e_lis %r7,.LANCHOR3@ha
 159              		.loc 1 102 0
 160 000a D301     		se_stw %r0,12(%r1)
 161              		.cfi_offset 65, 4
 162              		.loc 1 104 0
 163 000c 54670000 		e_stw %r3,.LANCHOR3@l(%r7)
 164              		.loc 1 106 0
 165 0010 78000001 		e_bl sysTimeSetup
 166              	.LVL7:
 167              		.loc 1 109 0
 168 0014 C301     		se_lwz %r0,12(%r1)
 169 0016 0090     		se_mtlr %r0
 170              		.cfi_restore 65
 171              		.loc 1 108 0
GAS LISTING C:\Users\shehans\AppData\Local\Temp\cclmUmtl.s 			page 4


 172 0018 7060E000 		e_lis %r3,.LANCHOR0@ha
 173              		.loc 1 109 0
 174 001c 1C630000 		e_la %r3,.LANCHOR0@l(%r3)
 175 0020 2071     		se_addi %r1,8
 176              	.LCFI1:
 177              		.cfi_def_cfa_offset 0
 178 0022 0004     		se_blr
 179              		.cfi_endproc
 180              	.LFE2:
 181              		.size	osalSysTimeSetup, .-osalSysTimeSetup
 182              		.section	.text.osalSysTimeReset,"axv",@progbits
 183              		.align 1
 184              		.p2align 4,,15
 185              		.globl osalSysTimeReset
 186              		.type	osalSysTimeReset, @function
 187              	osalSysTimeReset:
 188              	.LFB3:
 189              		.loc 1 117 0
 190              		.cfi_startproc
 191              		.loc 1 120 0
 192              		.loc 1 119 0
 193 0000 78000000 		e_b sysTimeReset
 194              	.LVL8:
 195              		.cfi_endproc
 196              	.LFE3:
 197              		.size	osalSysTimeReset, .-osalSysTimeReset
 198              		.section	.text.vector226,"axv",@progbits
 199              		.align 1
 200              		.p2align 4,,15
 201              		.globl vector226
 202              		.type	vector226, @function
 203              	vector226:
 204              	.LFB15:
 205              		.loc 1 296 0
 206              		.cfi_startproc
 207              		.loc 1 302 0
 208 0000 70C0E000 		e_lis %r6,.LANCHOR0@ha
 209              		.loc 1 309 0
 210              		.loc 1 302 0
 211 0004 50E60000 		e_lwz %r7,.LANCHOR0@l(%r6)
 212 0008 2007     		se_addi %r7,1
 213 000a 54E60000 		e_stw %r7,.LANCHOR0@l(%r6)
 214              	.LBB49:
 215              	.LBB50:
 216              		.loc 1 119 0
 217 000e 78000000 		e_b sysTimeReset
 218              	.LVL9:
 219              	.LBE50:
 220              	.LBE49:
 221              		.cfi_endproc
 222              	.LFE15:
 223              		.size	vector226, .-vector226
 224              		.section	.text.osalThreadDelaySeconds,"axv",@progbits
 225              		.align 1
 226              		.p2align 4,,15
 227              		.globl osalThreadDelaySeconds
 228              		.type	osalThreadDelaySeconds, @function
GAS LISTING C:\Users\shehans\AppData\Local\Temp\cclmUmtl.s 			page 5


 229              	osalThreadDelaySeconds:
 230              	.LFB16:
 231              		.loc 1 328 0
 232              		.cfi_startproc
 233              	.LVL10:
 234              	.LBB51:
 235              	.LBB52:
 236              		.loc 1 133 0
 237 0000 70E0E000 		e_lis %r7,.LANCHOR3@ha
 238              	.LBE52:
 239              	.LBE51:
 240              		.loc 1 330 0
 241              	.LBB54:
 242              	.LBB53:
 243              		.loc 1 133 0
 244 0004 50C70000 		e_lwz %r6,.LANCHOR3@l(%r7)
 245              	.LBE53:
 246              	.LBE54:
 247              		.loc 1 329 0
 248 0008 70E0E000 		e_lis %r7,.LANCHOR4@ha
 249 000c 0563     		se_mullw %r3,%r6
 250              	.LVL11:
 251 000e 50E70000 		e_lwz %r7,.LANCHOR4@l(%r7)
 252 0012 00B7     		se_mtctr %r7
 253 0014 0006     		se_bctr
 254              	.LVL12:
 255              		.cfi_endproc
 256              	.LFE16:
 257              		.size	osalThreadDelaySeconds, .-osalThreadDelaySeconds
 258              		.section	.text.osalThreadDelayMilliseconds,"axv",@progbits
 259              		.align 1
 260              		.p2align 4,,15
 261              		.globl osalThreadDelayMilliseconds
 262              		.type	osalThreadDelayMilliseconds, @function
 263              	osalThreadDelayMilliseconds:
 264              	.LFB17:
 265              		.loc 1 342 0
 266              		.cfi_startproc
 267              	.LVL13:
 268              		.loc 1 343 0
 269 0000 70C0E000 		e_lis %r6,.LANCHOR4@ha
 270              	.LBB55:
 271              	.LBB56:
 272              		.loc 1 147 0
 273 0004 4807     		se_li %r7,0
 274              	.LBE56:
 275              	.LBE55:
 276              		.loc 1 343 0
 277 0006 50A60000 		e_lwz %r5,.LANCHOR4@l(%r6)
 278              	.LVL14:
 279              	.LBB58:
 280              	.LBB57:
 281              		.loc 1 147 0
 282 000a 2A03     		se_cmpi %r3,0
 283 000c 7A120022 		e_beq %cr0,.L18
 284              		.loc 1 148 0
 285 0010 70E0E000 		e_lis %r7,.LANCHOR3@ha
GAS LISTING C:\Users\shehans\AppData\Local\Temp\cclmUmtl.s 			page 6


 286 0014 70C2E062 		e_lis %r6,0x1062
 287 0018 50E70000 		e_lwz %r7,.LANCHOR3@l(%r7)
 288 001c 70C9C5D3 		e_or2i %r6,19923
 289 0020 0537     		se_mullw %r7,%r3
 290 0022 18E784FF 		e_addi %r7,%r7,-1
 291 0026 7CE73016 		mulhwu %r7,%r7,%r6
 292 002a 6867     		se_srwi %r7,6
 293              		.loc 1 147 0
 294 002c 2007     		se_addi %r7,1
 295              	.L18:
 296              	.LBE57:
 297              	.LBE58:
 298              		.loc 1 343 0
 299 002e 0173     		se_mr %r3,%r7
 300              	.LVL15:
 301 0030 00B5     		se_mtctr %r5
 302              		.loc 1 344 0
 303              		.loc 1 343 0
 304 0032 0006     		se_bctr
 305              	.LVL16:
 306              		.cfi_endproc
 307              	.LFE17:
 308              		.size	osalThreadDelayMilliseconds, .-osalThreadDelayMilliseconds
 309              		.section	.text.osalThreadDelayMicroseconds,"axv",@progbits
 310              		.align 1
 311              		.p2align 4,,15
 312              		.globl osalThreadDelayMicroseconds
 313              		.type	osalThreadDelayMicroseconds, @function
 314              	osalThreadDelayMicroseconds:
 315              	.LFB18:
 316              		.loc 1 356 0
 317              		.cfi_startproc
 318              	.LVL17:
 319              		.loc 1 357 0
 320 0000 70C0E000 		e_lis %r6,.LANCHOR4@ha
 321              	.LBB59:
 322              	.LBB60:
 323              		.loc 1 162 0
 324 0004 4807     		se_li %r7,0
 325              	.LBE60:
 326              	.LBE59:
 327              		.loc 1 357 0
 328 0006 50A60000 		e_lwz %r5,.LANCHOR4@l(%r6)
 329              	.LVL18:
 330              	.LBB62:
 331              	.LBB61:
 332              		.loc 1 162 0
 333 000a 2A03     		se_cmpi %r3,0
 334 000c 7A120022 		e_beq %cr0,.L21
 335              		.loc 1 163 0
 336 0010 70E0E000 		e_lis %r7,.LANCHOR3@ha
 337 0014 70C8E31B 		e_lis %r6,0x431b
 338 0018 50E70000 		e_lwz %r7,.LANCHOR3@l(%r7)
 339 001c 70DBC683 		e_or2i %r6,56963
 340 0020 0537     		se_mullw %r7,%r3
 341 0022 18E784FF 		e_addi %r7,%r7,-1
 342 0026 7CE73016 		mulhwu %r7,%r7,%r6
GAS LISTING C:\Users\shehans\AppData\Local\Temp\cclmUmtl.s 			page 7


 343 002a 6927     		se_srwi %r7,18
 344              		.loc 1 162 0
 345 002c 2007     		se_addi %r7,1
 346              	.L21:
 347              	.LBE61:
 348              	.LBE62:
 349              		.loc 1 357 0
 350 002e 0173     		se_mr %r3,%r7
 351              	.LVL19:
 352 0030 00B5     		se_mtctr %r5
 353              		.loc 1 358 0
 354              		.loc 1 357 0
 355 0032 0006     		se_bctr
 356              	.LVL20:
 357              		.cfi_endproc
 358              	.LFE18:
 359              		.size	osalThreadDelayMicroseconds, .-osalThreadDelayMicroseconds
 360              		.section	.text.osalThreadGetSeconds,"axv",@progbits
 361              		.align 1
 362              		.p2align 4,,15
 363              		.globl osalThreadGetSeconds
 364              		.type	osalThreadGetSeconds, @function
 365              	osalThreadGetSeconds:
 366              	.LFB19:
 367              		.loc 1 367 0
 368              		.cfi_startproc
 369 0000 182106F8 		e_stwu %r1,-8(%r1)
 370              	.LCFI2:
 371              		.cfi_def_cfa_offset 8
 372 0004 0080     		se_mflr %r0
 373              		.loc 1 368 0
 374 0006 70E0E000 		e_lis %r7,.LANCHOR4+4@ha
 375              		.loc 1 367 0
 376 000a D301     		se_stw %r0,12(%r1)
 377              		.cfi_offset 65, 4
 378              		.loc 1 368 0
 379 000c 50E70000 		e_lwz %r7,.LANCHOR4+4@l(%r7)
 380 0010 00B7     		se_mtctr %r7
 381 0012 0007     		se_bctrl
 382              	.LVL21:
 383              		.loc 1 369 0
 384 0014 C301     		se_lwz %r0,12(%r1)
 385 0016 0090     		se_mtlr %r0
 386              		.cfi_restore 65
 387              	.LBB63:
 388              	.LBB64:
 389              		.loc 1 177 0
 390 0018 70E0E000 		e_lis %r7,.LANCHOR3@ha
 391              	.LBE64:
 392              	.LBE63:
 393              		.loc 1 369 0
 394              	.LBB66:
 395              	.LBB65:
 396              		.loc 1 177 0
 397 001c 50E70000 		e_lwz %r7,.LANCHOR3@l(%r7)
 398              	.LBE65:
 399              	.LBE66:
GAS LISTING C:\Users\shehans\AppData\Local\Temp\cclmUmtl.s 			page 8


 400              		.loc 1 369 0
 401 0020 2071     		se_addi %r1,8
 402              	.LCFI3:
 403              		.cfi_def_cfa_offset 0
 404 0022 7C633B96 		divwu %r3,%r3,%r7
 405              	.LVL22:
 406 0026 0004     		se_blr
 407              		.cfi_endproc
 408              	.LFE19:
 409              		.size	osalThreadGetSeconds, .-osalThreadGetSeconds
 410              		.section	.text.osalThreadGetMilliseconds,"axv",@progbits
 411              		.align 1
 412              		.p2align 4,,15
 413              		.globl osalThreadGetMilliseconds
 414              		.type	osalThreadGetMilliseconds, @function
 415              	osalThreadGetMilliseconds:
 416              	.LFB20:
 417              		.loc 1 378 0
 418              		.cfi_startproc
 419 0000 182106F8 		e_stwu %r1,-8(%r1)
 420              	.LCFI4:
 421              		.cfi_def_cfa_offset 8
 422 0004 0080     		se_mflr %r0
 423              		.loc 1 379 0
 424 0006 70E0E000 		e_lis %r7,.LANCHOR4+4@ha
 425              		.loc 1 378 0
 426 000a D301     		se_stw %r0,12(%r1)
 427              		.cfi_offset 65, 4
 428              		.loc 1 379 0
 429 000c 50E70000 		e_lwz %r7,.LANCHOR4+4@l(%r7)
 430 0010 00B7     		se_mtctr %r7
 431 0012 0007     		se_bctrl
 432              	.LVL23:
 433              		.loc 1 380 0
 434 0014 C301     		se_lwz %r0,12(%r1)
 435 0016 0090     		se_mtlr %r0
 436              		.cfi_restore 65
 437              	.LBB67:
 438              	.LBB68:
 439              		.loc 1 191 0
 440 0018 7003A3E8 		e_mull2i %r3,1000
 441              	.LVL24:
 442 001c 70E0E000 		e_lis %r7,.LANCHOR3@ha
 443              	.LBE68:
 444              	.LBE67:
 445              		.loc 1 380 0
 446              	.LBB70:
 447              	.LBB69:
 448              		.loc 1 191 0
 449 0020 50E70000 		e_lwz %r7,.LANCHOR3@l(%r7)
 450              	.LBE69:
 451              	.LBE70:
 452              		.loc 1 380 0
 453 0024 2071     		se_addi %r1,8
 454              	.LCFI5:
 455              		.cfi_def_cfa_offset 0
 456 0026 7C633B96 		divwu %r3,%r3,%r7
GAS LISTING C:\Users\shehans\AppData\Local\Temp\cclmUmtl.s 			page 9


 457 002a 0004     		se_blr
 458              		.cfi_endproc
 459              	.LFE20:
 460              		.size	osalThreadGetMilliseconds, .-osalThreadGetMilliseconds
 461              		.section	.text.osalThreadGetMicroseconds,"axv",@progbits
 462              		.align 1
 463              		.p2align 4,,15
 464              		.globl osalThreadGetMicroseconds
 465              		.type	osalThreadGetMicroseconds, @function
 466              	osalThreadGetMicroseconds:
 467              	.LFB21:
 468              		.loc 1 389 0
 469              		.cfi_startproc
 470 0000 182106F8 		e_stwu %r1,-8(%r1)
 471              	.LCFI6:
 472              		.cfi_def_cfa_offset 8
 473 0004 0080     		se_mflr %r0
 474              		.loc 1 390 0
 475 0006 70E0E000 		e_lis %r7,.LANCHOR4+4@ha
 476              		.loc 1 389 0
 477 000a D301     		se_stw %r0,12(%r1)
 478              		.cfi_offset 65, 4
 479              		.loc 1 390 0
 480 000c 50E70000 		e_lwz %r7,.LANCHOR4+4@l(%r7)
 481 0010 00B7     		se_mtctr %r7
 482 0012 0007     		se_bctrl
 483              	.LVL25:
 484              		.loc 1 391 0
 485 0014 C301     		se_lwz %r0,12(%r1)
 486 0016 0090     		se_mtlr %r0
 487              		.cfi_restore 65
 488              	.LBB71:
 489              	.LBB72:
 490              		.loc 1 205 0
 491 0018 70E0E000 		e_lis %r7,.LANCHOR3@ha
 492              	.LBE72:
 493              	.LBE71:
 494              		.loc 1 391 0
 495              	.LBB75:
 496              	.LBB73:
 497              		.loc 1 205 0
 498 001c 50C70000 		e_lwz %r6,.LANCHOR3@l(%r7)
 499              	.LBE73:
 500              	.LBE75:
 501              		.loc 1 391 0
 502 0020 2071     		se_addi %r1,8
 503              	.LCFI7:
 504              		.cfi_def_cfa_offset 0
 505              	.LBB76:
 506              	.LBB74:
 507              		.loc 1 205 0
 508 0022 70E0E00F 		e_lis %r7,0xf
 509 0026 70E8C240 		e_or2i %r7,16960
 510 002a 0573     		se_mullw %r3,%r7
 511              	.LVL26:
 512              	.LBE74:
 513              	.LBE76:
GAS LISTING C:\Users\shehans\AppData\Local\Temp\cclmUmtl.s 			page 10


 514              		.loc 1 391 0
 515 002c 7C633396 		divwu %r3,%r3,%r6
 516 0030 0004     		se_blr
 517              		.cfi_endproc
 518              	.LFE21:
 519              		.size	osalThreadGetMicroseconds, .-osalThreadGetMicroseconds
 520              		.section	.text.osalEnterCritical,"axv",@progbits
 521              		.align 1
 522              		.p2align 4,,15
 523              		.globl osalEnterCritical
 524              		.type	osalEnterCritical, @function
 525              	osalEnterCritical:
 526              	.LFB22:
 527              		.loc 1 399 0
 528              		.cfi_startproc
 529              		.loc 1 400 0
 530 0000 70E0E000 		e_lis %r7,.LANCHOR4+8@ha
 531              		.loc 1 401 0
 532              		.loc 1 400 0
 533 0004 50E70000 		e_lwz %r7,.LANCHOR4+8@l(%r7)
 534 0008 00B7     		se_mtctr %r7
 535 000a 0006     		se_bctr
 536              	.LVL27:
 537              		.cfi_endproc
 538              	.LFE22:
 539              		.size	osalEnterCritical, .-osalEnterCritical
 540              		.section	.text.osalExitCritical,"axv",@progbits
 541              		.align 1
 542              		.p2align 4,,15
 543              		.globl osalExitCritical
 544              		.type	osalExitCritical, @function
 545              	osalExitCritical:
 546              	.LFB23:
 547              		.loc 1 408 0
 548              		.cfi_startproc
 549              		.loc 1 409 0
 550 0000 70E0E000 		e_lis %r7,.LANCHOR4+12@ha
 551              		.loc 1 410 0
 552              		.loc 1 409 0
 553 0004 50E70000 		e_lwz %r7,.LANCHOR4+12@l(%r7)
 554 0008 00B7     		se_mtctr %r7
 555 000a 0006     		se_bctr
 556              	.LVL28:
 557              		.cfi_endproc
 558              	.LFE23:
 559              		.size	osalExitCritical, .-osalExitCritical
 560              		.section	.text.osalEnterCriticalFromISR,"axv",@progbits
 561              		.align 1
 562              		.p2align 4,,15
 563              		.globl osalEnterCriticalFromISR
 564              		.type	osalEnterCriticalFromISR, @function
 565              	osalEnterCriticalFromISR:
 566              	.LFB24:
 567              		.loc 1 417 0
 568              		.cfi_startproc
 569 0000 0004     		se_blr
 570              		.cfi_endproc
GAS LISTING C:\Users\shehans\AppData\Local\Temp\cclmUmtl.s 			page 11


 571              	.LFE24:
 572              		.size	osalEnterCriticalFromISR, .-osalEnterCriticalFromISR
 573              		.section	.text.osalExitCriticalFromISR,"axv",@progbits
 574              		.align 1
 575              		.p2align 4,,15
 576              		.globl osalExitCriticalFromISR
 577              		.type	osalExitCriticalFromISR, @function
 578              	osalExitCriticalFromISR:
 579              	.LFB25:
 580              		.loc 1 429 0
 581              		.cfi_startproc
 582 0000 0004     		se_blr
 583              		.cfi_endproc
 584              	.LFE25:
 585              		.size	osalExitCriticalFromISR, .-osalExitCriticalFromISR
 586              		.section	.text.osalInit,"axv",@progbits
 587              		.align 1
 588              		.p2align 4,,15
 589              		.globl osalInit
 590              		.type	osalInit, @function
 591              	osalInit:
 592              	.LFB26:
 593              		.loc 1 442 0
 594              		.cfi_startproc
 595              		.loc 1 442 0
 596 0000 182106F0 		e_stwu %r1,-16(%r1)
 597              	.LCFI8:
 598              		.cfi_def_cfa_offset 16
 599 0004 0080     		se_mflr %r0
 600 0006 1BC10908 		e_stmw %r30,8(%r1)
 601 000a D501     		se_stw %r0,20(%r1)
 602              		.cfi_offset 65, 4
 603              		.cfi_offset 30, -8
 604              		.cfi_offset 31, -4
 605              		.loc 1 452 0
 606 000c 73C0E000 		e_lis %r30,.LANCHOR4@ha
 607 0010 4804     		se_li %r4,0
 608 0012 1FFE0000 		e_la %r31,.LANCHOR4@l(%r30)
 609 0016 4B05     		se_li %r5,48
 610 0018 01F3     		se_mr %r3,%r31
 611 001a 78000001 		e_bl memset
 612              	.LVL29:
 613              		.loc 1 582 0
 614 001e C501     		se_lwz %r0,20(%r1)
 615              	.LBB77:
 616              	.LBB78:
 617              	.LBB79:
 618              	.LBB80:
 619              		.loc 1 104 0
 620 0020 706003E8 		e_li %r3,1000
 621              	.LBE80:
 622              	.LBE79:
 623              	.LBE78:
 624              	.LBE77:
 625              		.loc 1 553 0
 626 0024 70E0E000 		e_lis %r7,osalSysTimeDelayTicks@ha
 627              	.LBB90:
GAS LISTING C:\Users\shehans\AppData\Local\Temp\cclmUmtl.s 			page 12


 628              	.LBB85:
 629              		.loc 1 217 0
 630 0028 4806     		se_li %r6,0
 631              	.LBE85:
 632              	.LBE90:
 633              		.loc 1 553 0
 634 002a 1CE70000 		e_la %r7,osalSysTimeDelayTicks@l(%r7)
 635              		.loc 1 582 0
 636 002e 0090     		se_mtlr %r0
 637              		.cfi_restore 65
 638              		.loc 1 553 0
 639 0030 54FE0000 		e_stw %r7,.LANCHOR4@l(%r30)
 640              		.loc 1 554 0
 641 0034 70E0E000 		e_lis %r7,osalSysTimeGetTicks@ha
 642 0038 1CE70000 		e_la %r7,osalSysTimeGetTicks@l(%r7)
 643 003c D17F     		se_stw %r7,4(%r31)
 644              		.loc 1 556 0
 645 003e 70E0E000 		e_lis %r7,osalIsrDisable@ha
 646 0042 1CE70000 		e_la %r7,osalIsrDisable@l(%r7)
 647 0046 D27F     		se_stw %r7,8(%r31)
 648              		.loc 1 557 0
 649 0048 70E0E000 		e_lis %r7,osalIsrEnable@ha
 650 004c 1CE70000 		e_la %r7,osalIsrEnable@l(%r7)
 651 0050 D37F     		se_stw %r7,12(%r31)
 652              	.LBB91:
 653              	.LBB86:
 654              		.loc 1 217 0
 655 0052 70E0E000 		e_lis %r7,.LANCHOR0@ha
 656              	.LBE86:
 657              	.LBE91:
 658              		.loc 1 582 0
 659 0056 1BC10808 		e_lmw %r30,8(%r1)
 660              	.LBB92:
 661              	.LBB87:
 662              		.loc 1 217 0
 663 005a 54C70000 		e_stw %r6,.LANCHOR0@l(%r7)
 664              	.LVL30:
 665              	.LBE87:
 666              	.LBE92:
 667              		.loc 1 582 0
 668              	.LBB93:
 669              	.LBB88:
 670              	.LBB83:
 671              	.LBB81:
 672              		.loc 1 104 0
 673 005e 70E0E000 		e_lis %r7,.LANCHOR3@ha
 674              	.LBE81:
 675              	.LBE83:
 676              	.LBE88:
 677              	.LBE93:
 678              		.loc 1 582 0
 679 0062 20F1     		se_addi %r1,16
 680              	.LCFI9:
 681              		.cfi_restore 31
 682              		.cfi_restore 30
 683              		.cfi_def_cfa_offset 0
 684              	.LBB94:
GAS LISTING C:\Users\shehans\AppData\Local\Temp\cclmUmtl.s 			page 13


 685              	.LBB89:
 686              	.LBB84:
 687              	.LBB82:
 688              		.loc 1 104 0
 689 0064 54670000 		e_stw %r3,.LANCHOR3@l(%r7)
 690              		.loc 1 106 0
 691 0068 78000000 		e_b sysTimeSetup
 692              	.LVL31:
 693              	.LBE82:
 694              	.LBE84:
 695              	.LBE89:
 696              	.LBE94:
 697              		.cfi_endproc
 698              	.LFE26:
 699              		.size	osalInit, .-osalInit
 700              		.section	.bss.osalIsExtIntEnable,"aw",@nobits
 701              		.align 2
 702              		.set	.LANCHOR2,. + 0
 703              		.type	osalIsExtIntEnable, @object
 704              		.size	osalIsExtIntEnable, 4
 705              	osalIsExtIntEnable:
 706 0000 00000000 		.zero	4
 707              		.section	.bss.osalsystime,"aw",@nobits
 708              		.align 2
 709              		.set	.LANCHOR0,. + 0
 710              		.type	osalsystime, @object
 711              		.size	osalsystime, 4
 712              	osalsystime:
 713 0000 00000000 		.zero	4
 714              		.section	.bss.osal_ticks_per_sec,"aw",@nobits
 715              		.align 2
 716              		.set	.LANCHOR3,. + 0
 717              		.type	osal_ticks_per_sec, @object
 718              		.size	osal_ticks_per_sec, 4
 719              	osal_ticks_per_sec:
 720 0000 00000000 		.zero	4
 721              		.section	.bss.osalTimeOps,"aw",@nobits
 722              		.align 2
 723              		.set	.LANCHOR4,. + 0
 724              		.type	osalTimeOps, @object
 725              		.size	osalTimeOps, 48
 726              	osalTimeOps:
 727 0000 00000000 		.zero	48
 727      00000000 
 727      00000000 
 727      00000000 
 727      00000000 
 728              		.section	.bss.osalIsrCnt,"aw",@nobits
 729              		.align 2
 730              		.set	.LANCHOR1,. + 0
 731              		.type	osalIsrCnt, @object
 732              		.size	osalIsrCnt, 4
 733              	osalIsrCnt:
 734 0000 00000000 		.zero	4
 735              		.section	".text","axv"
 736              	.Letext0:
 737              		.file 3 "c:\\spc5studio-6.0\\eclipse\\plugins\\com.st.tools.spc5.tools.gnu.gcc.ppcvle.win32_4.9.4.
GAS LISTING C:\Users\shehans\AppData\Local\Temp\cclmUmtl.s 			page 14


 738              		.file 4 "c:\\spc5studio-6.0\\eclipse\\plugins\\com.st.tools.spc5.tools.gnu.gcc.ppcvle.win32_4.9.4.
 739              		.file 5 "./components/spc582bxx_osal_component_rla/lib/include/osal.h"
 740              		.file 6 "./components/spc582bxx_osal_component_rla/lib/include/systimer.h"