Archive member included to satisfy reference by file (symbol)

c:/users/shehan/documents/environments/spc5_env/toolchain/bin/../lib/gcc/powerpc-eabivle/4.9.4/../../../../powerpc-eabivle/lib/e200z2\libc.a(lib_a-errno.o)
                              build/obj/main.o (__errno)
c:/users/shehan/documents/environments/spc5_env/toolchain/bin/../lib/gcc/powerpc-eabivle/4.9.4/../../../../powerpc-eabivle/lib/e200z2\libc.a(lib_a-impure.o)
                              c:/users/shehan/documents/environments/spc5_env/toolchain/bin/../lib/gcc/powerpc-eabivle/4.9.4/../../../../powerpc-eabivle/lib/e200z2\libc.a(lib_a-errno.o) (_impure_ptr)
c:/users/shehan/documents/environments/spc5_env/toolchain/bin/../lib/gcc/powerpc-eabivle/4.9.4/../../../../powerpc-eabivle/lib/e200z2\libc.a(lib_a-memset.o)
                              build/obj/osal.o (memset)
c:/users/shehan/documents/environments/spc5_env/toolchain/bin/../lib/gcc/powerpc-eabivle/4.9.4/../../../../powerpc-eabivle/lib/e200z2\libstdc++.a(new_op.o)
                              build/obj/main.o (operator new(unsigned int))
c:/users/shehan/documents/environments/spc5_env/toolchain/bin/../lib/gcc/powerpc-eabivle/4.9.4/../../../../powerpc-eabivle/lib/e200z2\libstdc++.a(bad_alloc.o)
                              c:/users/shehan/documents/environments/spc5_env/toolchain/bin/../lib/gcc/powerpc-eabivle/4.9.4/../../../../powerpc-eabivle/lib/e200z2\libstdc++.a(new_op.o) (vtable for std::bad_alloc)
c:/users/shehan/documents/environments/spc5_env/toolchain/bin/../lib/gcc/powerpc-eabivle/4.9.4/../../../../powerpc-eabivle/lib/e200z2\libstdc++.a(eh_exception.o)
                              c:/users/shehan/documents/environments/spc5_env/toolchain/bin/../lib/gcc/powerpc-eabivle/4.9.4/../../../../powerpc-eabivle/lib/e200z2\libstdc++.a(bad_alloc.o) (std::exception::~exception())
c:/users/shehan/documents/environments/spc5_env/toolchain/bin/../lib/gcc/powerpc-eabivle/4.9.4/../../../../powerpc-eabivle/lib/e200z2\libstdc++.a(eh_alloc.o)
                              c:/users/shehan/documents/environments/spc5_env/toolchain/bin/../lib/gcc/powerpc-eabivle/4.9.4/../../../../powerpc-eabivle/lib/e200z2\libstdc++.a(new_op.o) (__cxa_allocate_exception)
c:/users/shehan/documents/environments/spc5_env/toolchain/bin/../lib/gcc/powerpc-eabivle/4.9.4/../../../../powerpc-eabivle/lib/e200z2\libstdc++.a(pure.o)
                              c:/users/shehan/documents/environments/spc5_env/toolchain/bin/../lib/gcc/powerpc-eabivle/4.9.4/../../../../powerpc-eabivle/lib/e200z2\libstdc++.a(eh_exception.o) (__cxa_pure_virtual)
c:/users/shehan/documents/environments/spc5_env/toolchain/bin/../lib/gcc/powerpc-eabivle/4.9.4/../../../../powerpc-eabivle/lib/e200z2\libstdc++.a(del_op.o)
                              c:/users/shehan/documents/environments/spc5_env/toolchain/bin/../lib/gcc/powerpc-eabivle/4.9.4/../../../../powerpc-eabivle/lib/e200z2\libstdc++.a(bad_alloc.o) (operator delete(void*))
c:/users/shehan/documents/environments/spc5_env/toolchain/bin/../lib/gcc/powerpc-eabivle/4.9.4/../../../../powerpc-eabivle/lib/e200z2\libstdc++.a(eh_throw.o)
                              c:/users/shehan/documents/environments/spc5_env/toolchain/bin/../lib/gcc/powerpc-eabivle/4.9.4/../../../../powerpc-eabivle/lib/e200z2\libstdc++.a(new_op.o) (__cxa_throw)
c:/users/shehan/documents/environments/spc5_env/toolchain/bin/../lib/gcc/powerpc-eabivle/4.9.4/../../../../powerpc-eabivle/lib/e200z2\libstdc++.a(class_type_info.o)
                              c:/users/shehan/documents/environments/spc5_env/toolchain/bin/../lib/gcc/powerpc-eabivle/4.9.4/../../../../powerpc-eabivle/lib/e200z2\libstdc++.a(eh_exception.o) (vtable for __cxxabiv1::__class_type_info)
c:/users/shehan/documents/environments/spc5_env/toolchain/bin/../lib/gcc/powerpc-eabivle/4.9.4/../../../../powerpc-eabivle/lib/e200z2\libstdc++.a(new_handler.o)
                              c:/users/shehan/documents/environments/spc5_env/toolchain/bin/../lib/gcc/powerpc-eabivle/4.9.4/../../../../powerpc-eabivle/lib/e200z2\libstdc++.a(new_op.o) (std::get_new_handler())
c:/users/shehan/documents/environments/spc5_env/toolchain/bin/../lib/gcc/powerpc-eabivle/4.9.4/../../../../powerpc-eabivle/lib/e200z2\libstdc++.a(si_class_type_info.o)
                              c:/users/shehan/documents/environments/spc5_env/toolchain/bin/../lib/gcc/powerpc-eabivle/4.9.4/../../../../powerpc-eabivle/lib/e200z2\libstdc++.a(bad_alloc.o) (vtable for __cxxabiv1::__si_class_type_info)
c:/users/shehan/documents/environments/spc5_env/toolchain/bin/../lib/gcc/powerpc-eabivle/4.9.4/../../../../powerpc-eabivle/lib/e200z2\libstdc++.a(eh_globals.o)
                              c:/users/shehan/documents/environments/spc5_env/toolchain/bin/../lib/gcc/powerpc-eabivle/4.9.4/../../../../powerpc-eabivle/lib/e200z2\libstdc++.a(eh_throw.o) (__cxa_get_globals)
c:/users/shehan/documents/environments/spc5_env/toolchain/bin/../lib/gcc/powerpc-eabivle/4.9.4/../../../../powerpc-eabivle/lib/e200z2\libstdc++.a(eh_terminate.o)
                              c:/users/shehan/documents/environments/spc5_env/toolchain/bin/../lib/gcc/powerpc-eabivle/4.9.4/../../../../powerpc-eabivle/lib/e200z2\libstdc++.a(eh_throw.o) (__cxxabiv1::__terminate(void (*)()))
c:/users/shehan/documents/environments/spc5_env/toolchain/bin/../lib/gcc/powerpc-eabivle/4.9.4/../../../../powerpc-eabivle/lib/e200z2\libstdc++.a(eh_personality.o)
                              c:/users/shehan/documents/environments/spc5_env/toolchain/bin/../lib/gcc/powerpc-eabivle/4.9.4/../../../../powerpc-eabivle/lib/e200z2\libstdc++.a(eh_terminate.o) (__gxx_personality_v0)
c:/users/shehan/documents/environments/spc5_env/toolchain/bin/../lib/gcc/powerpc-eabivle/4.9.4/../../../../powerpc-eabivle/lib/e200z2\libstdc++.a(eh_unex_handler.o)
                              c:/users/shehan/documents/environments/spc5_env/toolchain/bin/../lib/gcc/powerpc-eabivle/4.9.4/../../../../powerpc-eabivle/lib/e200z2\libstdc++.a(eh_terminate.o) (__cxxabiv1::__unexpected_handler)
c:/users/shehan/documents/environments/spc5_env/toolchain/bin/../lib/gcc/powerpc-eabivle/4.9.4/../../../../powerpc-eabivle/lib/e200z2\libstdc++.a(eh_term_handler.o)
                              c:/users/shehan/documents/environments/spc5_env/toolchain/bin/../lib/gcc/powerpc-eabivle/4.9.4/../../../../powerpc-eabivle/lib/e200z2\libstdc++.a(eh_terminate.o) (__cxxabiv1::__terminate_handler)
c:/users/shehan/documents/environments/spc5_env/toolchain/bin/../lib/gcc/powerpc-eabivle/4.9.4/../../../../powerpc-eabivle/lib/e200z2\libstdc++.a(eh_catch.o)
                              c:/users/shehan/documents/environments/spc5_env/toolchain/bin/../lib/gcc/powerpc-eabivle/4.9.4/../../../../powerpc-eabivle/lib/e200z2\libstdc++.a(eh_throw.o) (__cxa_begin_catch)
c:/users/shehan/documents/environments/spc5_env/toolchain/bin/../lib/gcc/powerpc-eabivle/4.9.4/../../../../powerpc-eabivle/lib/e200z2\libstdc++.a(tinfo.o)
                              c:/users/shehan/documents/environments/spc5_env/toolchain/bin/../lib/gcc/powerpc-eabivle/4.9.4/../../../../powerpc-eabivle/lib/e200z2\libstdc++.a(class_type_info.o) (std::type_info::~type_info())
c:/users/shehan/documents/environments/spc5_env/toolchain/bin/../lib/gcc/powerpc-eabivle/4.9.4/../../../../powerpc-eabivle/lib/e200z2\libstdc++.a(eh_call.o)
                              c:/users/shehan/documents/environments/spc5_env/toolchain/bin/../lib/gcc/powerpc-eabivle/4.9.4/../../../../powerpc-eabivle/lib/e200z2\libstdc++.a(eh_personality.o) (__cxa_call_terminate)
c:/users/shehan/documents/environments/spc5_env/toolchain/bin/../lib/gcc/powerpc-eabivle/4.9.4/e200z2\libgcc.a(_fixunssfsi.o)
                              build/obj/saradc_lld.o (__fixunssfsi)
c:/users/shehan/documents/environments/spc5_env/toolchain/bin/../lib/gcc/powerpc-eabivle/4.9.4/e200z2\libgcc.a(_addsub_sf.o)
                              c:/users/shehan/documents/environments/spc5_env/toolchain/bin/../lib/gcc/powerpc-eabivle/4.9.4/e200z2\libgcc.a(_fixunssfsi.o) (__subsf3)
c:/users/shehan/documents/environments/spc5_env/toolchain/bin/../lib/gcc/powerpc-eabivle/4.9.4/e200z2\libgcc.a(_mul_sf.o)
                              build/obj/saradc_lld.o (__mulsf3)
c:/users/shehan/documents/environments/spc5_env/toolchain/bin/../lib/gcc/powerpc-eabivle/4.9.4/e200z2\libgcc.a(_div_sf.o)
                              build/obj/saradc_lld.o (__divsf3)
c:/users/shehan/documents/environments/spc5_env/toolchain/bin/../lib/gcc/powerpc-eabivle/4.9.4/e200z2\libgcc.a(_gt_sf.o)
                              build/obj/main.o (__gtsf2)
c:/users/shehan/documents/environments/spc5_env/toolchain/bin/../lib/gcc/powerpc-eabivle/4.9.4/e200z2\libgcc.a(_ge_sf.o)
                              build/obj/main.o (__gesf2)
c:/users/shehan/documents/environments/spc5_env/toolchain/bin/../lib/gcc/powerpc-eabivle/4.9.4/e200z2\libgcc.a(_le_sf.o)
                              build/obj/saradc_lld.o (__lesf2)
c:/users/shehan/documents/environments/spc5_env/toolchain/bin/../lib/gcc/powerpc-eabivle/4.9.4/e200z2\libgcc.a(_si_to_sf.o)
                              build/obj/main.o (__floatsisf)
c:/users/shehan/documents/environments/spc5_env/toolchain/bin/../lib/gcc/powerpc-eabivle/4.9.4/e200z2\libgcc.a(_sf_to_si.o)
                              c:/users/shehan/documents/environments/spc5_env/toolchain/bin/../lib/gcc/powerpc-eabivle/4.9.4/e200z2\libgcc.a(_fixunssfsi.o) (__fixsfsi)
c:/users/shehan/documents/environments/spc5_env/toolchain/bin/../lib/gcc/powerpc-eabivle/4.9.4/e200z2\libgcc.a(_sf_to_df.o)
                              build/obj/main.o (__extendsfdf2)
c:/users/shehan/documents/environments/spc5_env/toolchain/bin/../lib/gcc/powerpc-eabivle/4.9.4/e200z2\libgcc.a(_thenan_sf.o)
                              c:/users/shehan/documents/environments/spc5_env/toolchain/bin/../lib/gcc/powerpc-eabivle/4.9.4/e200z2\libgcc.a(_addsub_sf.o) (__thenan_sf)
c:/users/shehan/documents/environments/spc5_env/toolchain/bin/../lib/gcc/powerpc-eabivle/4.9.4/e200z2\libgcc.a(_usi_to_sf.o)
                              build/obj/main.o (__floatunsisf)
c:/users/shehan/documents/environments/spc5_env/toolchain/bin/../lib/gcc/powerpc-eabivle/4.9.4/e200z2\libgcc.a(_addsub_df.o)
                              build/obj/main.o (__subdf3)
c:/users/shehan/documents/environments/spc5_env/toolchain/bin/../lib/gcc/powerpc-eabivle/4.9.4/e200z2\libgcc.a(_mul_df.o)
                              build/obj/main.o (__muldf3)
c:/users/shehan/documents/environments/spc5_env/toolchain/bin/../lib/gcc/powerpc-eabivle/4.9.4/e200z2\libgcc.a(_make_df.o)
                              c:/users/shehan/documents/environments/spc5_env/toolchain/bin/../lib/gcc/powerpc-eabivle/4.9.4/e200z2\libgcc.a(_sf_to_df.o) (__make_dp)
c:/users/shehan/documents/environments/spc5_env/toolchain/bin/../lib/gcc/powerpc-eabivle/4.9.4/e200z2\libgcc.a(_df_to_sf.o)
                              build/obj/main.o (__truncdfsf2)
c:/users/shehan/documents/environments/spc5_env/toolchain/bin/../lib/gcc/powerpc-eabivle/4.9.4/e200z2\libgcc.a(_thenan_df.o)
                              c:/users/shehan/documents/environments/spc5_env/toolchain/bin/../lib/gcc/powerpc-eabivle/4.9.4/e200z2\libgcc.a(_addsub_df.o) (__thenan_df)
c:/users/shehan/documents/environments/spc5_env/toolchain/bin/../lib/gcc/powerpc-eabivle/4.9.4/e200z2\libgcc.a(unwind-dw2.o)
                              c:/users/shehan/documents/environments/spc5_env/toolchain/bin/../lib/gcc/powerpc-eabivle/4.9.4/../../../../powerpc-eabivle/lib/e200z2\libstdc++.a(eh_personality.o) (_Unwind_SetGR)
c:/users/shehan/documents/environments/spc5_env/toolchain/bin/../lib/gcc/powerpc-eabivle/4.9.4/e200z2\libgcc.a(unwind-dw2-fde.o)
                              c:/users/shehan/documents/environments/spc5_env/toolchain/bin/../lib/gcc/powerpc-eabivle/4.9.4/e200z2\libgcc.a(unwind-dw2.o) (_Unwind_Find_FDE)
c:/users/shehan/documents/environments/spc5_env/toolchain/bin/../lib/gcc/powerpc-eabivle/4.9.4/e200z2\libgcc.a(_pack_sf.o)
                              c:/users/shehan/documents/environments/spc5_env/toolchain/bin/../lib/gcc/powerpc-eabivle/4.9.4/e200z2\libgcc.a(_addsub_sf.o) (__pack_f)
c:/users/shehan/documents/environments/spc5_env/toolchain/bin/../lib/gcc/powerpc-eabivle/4.9.4/e200z2\libgcc.a(_unpack_sf.o)
                              c:/users/shehan/documents/environments/spc5_env/toolchain/bin/../lib/gcc/powerpc-eabivle/4.9.4/e200z2\libgcc.a(_addsub_sf.o) (__unpack_f)
c:/users/shehan/documents/environments/spc5_env/toolchain/bin/../lib/gcc/powerpc-eabivle/4.9.4/e200z2\libgcc.a(_fpcmp_parts_sf.o)
                              c:/users/shehan/documents/environments/spc5_env/toolchain/bin/../lib/gcc/powerpc-eabivle/4.9.4/e200z2\libgcc.a(_gt_sf.o) (__fpcmp_parts_f)
c:/users/shehan/documents/environments/spc5_env/toolchain/bin/../lib/gcc/powerpc-eabivle/4.9.4/e200z2\libgcc.a(_make_sf.o)
                              c:/users/shehan/documents/environments/spc5_env/toolchain/bin/../lib/gcc/powerpc-eabivle/4.9.4/e200z2\libgcc.a(_df_to_sf.o) (__make_fp)
c:/users/shehan/documents/environments/spc5_env/toolchain/bin/../lib/gcc/powerpc-eabivle/4.9.4/e200z2\libgcc.a(_pack_df.o)
                              c:/users/shehan/documents/environments/spc5_env/toolchain/bin/../lib/gcc/powerpc-eabivle/4.9.4/e200z2\libgcc.a(_addsub_df.o) (__pack_d)
c:/users/shehan/documents/environments/spc5_env/toolchain/bin/../lib/gcc/powerpc-eabivle/4.9.4/e200z2\libgcc.a(_unpack_df.o)
                              c:/users/shehan/documents/environments/spc5_env/toolchain/bin/../lib/gcc/powerpc-eabivle/4.9.4/e200z2\libgcc.a(_addsub_df.o) (__unpack_d)
c:/users/shehan/documents/environments/spc5_env/toolchain/bin/../lib/gcc/powerpc-eabivle/4.9.4/../../../../powerpc-eabivle/lib/e200z2\libc.a(lib_a-abort.o)
                              c:/users/shehan/documents/environments/spc5_env/toolchain/bin/../lib/gcc/powerpc-eabivle/4.9.4/../../../../powerpc-eabivle/lib/e200z2\libstdc++.a(eh_terminate.o) (abort)
c:/users/shehan/documents/environments/spc5_env/toolchain/bin/../lib/gcc/powerpc-eabivle/4.9.4/../../../../powerpc-eabivle/lib/e200z2\libc.a(lib_a-malloc.o)
                              c:/users/shehan/documents/environments/spc5_env/toolchain/bin/../lib/gcc/powerpc-eabivle/4.9.4/../../../../powerpc-eabivle/lib/e200z2\libstdc++.a(new_op.o) (malloc)
c:/users/shehan/documents/environments/spc5_env/toolchain/bin/../lib/gcc/powerpc-eabivle/4.9.4/../../../../powerpc-eabivle/lib/e200z2\libc.a(lib_a-mallocr.o)
                              c:/users/shehan/documents/environments/spc5_env/toolchain/bin/../lib/gcc/powerpc-eabivle/4.9.4/../../../../powerpc-eabivle/lib/e200z2\libc.a(lib_a-malloc.o) (_malloc_r)
c:/users/shehan/documents/environments/spc5_env/toolchain/bin/../lib/gcc/powerpc-eabivle/4.9.4/../../../../powerpc-eabivle/lib/e200z2\libc.a(lib_a-memcpy.o)
                              c:/users/shehan/documents/environments/spc5_env/toolchain/bin/../lib/gcc/powerpc-eabivle/4.9.4/e200z2\libgcc.a(unwind-dw2.o) (memcpy)
c:/users/shehan/documents/environments/spc5_env/toolchain/bin/../lib/gcc/powerpc-eabivle/4.9.4/../../../../powerpc-eabivle/lib/e200z2\libc.a(lib_a-mlock.o)
                              c:/users/shehan/documents/environments/spc5_env/toolchain/bin/../lib/gcc/powerpc-eabivle/4.9.4/../../../../powerpc-eabivle/lib/e200z2\libc.a(lib_a-mallocr.o) (__malloc_lock)
c:/users/shehan/documents/environments/spc5_env/toolchain/bin/../lib/gcc/powerpc-eabivle/4.9.4/../../../../powerpc-eabivle/lib/e200z2\libc.a(lib_a-sbrkr.o)
                              c:/users/shehan/documents/environments/spc5_env/toolchain/bin/../lib/gcc/powerpc-eabivle/4.9.4/../../../../powerpc-eabivle/lib/e200z2\libc.a(lib_a-mallocr.o) (_sbrk_r)
c:/users/shehan/documents/environments/spc5_env/toolchain/bin/../lib/gcc/powerpc-eabivle/4.9.4/../../../../powerpc-eabivle/lib/e200z2\libc.a(lib_a-signal.o)
                              c:/users/shehan/documents/environments/spc5_env/toolchain/bin/../lib/gcc/powerpc-eabivle/4.9.4/../../../../powerpc-eabivle/lib/e200z2\libc.a(lib_a-abort.o) (raise)
c:/users/shehan/documents/environments/spc5_env/toolchain/bin/../lib/gcc/powerpc-eabivle/4.9.4/../../../../powerpc-eabivle/lib/e200z2\libc.a(lib_a-signalr.o)
                              c:/users/shehan/documents/environments/spc5_env/toolchain/bin/../lib/gcc/powerpc-eabivle/4.9.4/../../../../powerpc-eabivle/lib/e200z2\libc.a(lib_a-signal.o) (_kill_r)
c:/users/shehan/documents/environments/spc5_env/toolchain/bin/../lib/gcc/powerpc-eabivle/4.9.4/../../../../powerpc-eabivle/lib/e200z2\libc.a(lib_a-strcmp.o)
                              c:/users/shehan/documents/environments/spc5_env/toolchain/bin/../lib/gcc/powerpc-eabivle/4.9.4/../../../../powerpc-eabivle/lib/e200z2\libstdc++.a(class_type_info.o) (strcmp)
c:/users/shehan/documents/environments/spc5_env/toolchain/bin/../lib/gcc/powerpc-eabivle/4.9.4/../../../../powerpc-eabivle/lib/e200z2\libc.a(lib_a-strlen.o)
                              c:/users/shehan/documents/environments/spc5_env/toolchain/bin/../lib/gcc/powerpc-eabivle/4.9.4/e200z2\libgcc.a(unwind-dw2.o) (strlen)
c:/users/shehan/documents/environments/spc5_env/toolchain/bin/../lib/gcc/powerpc-eabivle/4.9.4/../../../../powerpc-eabivle/lib/e200z2\libc.a(lib_a-freer.o)
                              c:/users/shehan/documents/environments/spc5_env/toolchain/bin/../lib/gcc/powerpc-eabivle/4.9.4/../../../../powerpc-eabivle/lib/e200z2\libc.a(lib_a-malloc.o) (_free_r)
c:/users/shehan/documents/environments/spc5_env/toolchain/bin/../lib/gcc/powerpc-eabivle/4.9.4/../../../../powerpc-eabivle/lib/e200z2\libc.a(lib_a-reent.o)
                              c:/users/shehan/documents/environments/spc5_env/toolchain/bin/../lib/gcc/powerpc-eabivle/4.9.4/../../../../powerpc-eabivle/lib/e200z2\libc.a(lib_a-sbrkr.o) (errno)
c:/users/shehan/documents/environments/spc5_env/toolchain/bin/../lib/gcc/powerpc-eabivle/4.9.4/e200z2\libgcc.a(e200crtresxgpr.o)
                              c:/users/shehan/documents/environments/spc5_env/toolchain/bin/../lib/gcc/powerpc-eabivle/4.9.4/../../../../powerpc-eabivle/lib/e200z2\libc.a(lib_a-mallocr.o) (_restgpr_22_x)

Allocating common symbols
Common symbol       size              file

errno               0x4               c:/users/shehan/documents/environments/spc5_env/toolchain/bin/../lib/gcc/powerpc-eabivle/4.9.4/../../../../powerpc-eabivle/lib/e200z2\libc.a(lib_a-reent.o)

Discarded input sections

 .text          0x00000000        0x0 build/obj/boot.o
 .data          0x00000000        0x0 build/obj/boot.o
 .bss           0x00000000        0x0 build/obj/boot.o
 .text          0x00000000        0x0 build/obj/crt0.o
 .data          0x00000000        0x0 build/obj/crt0.o
 .bss           0x00000000        0x0 build/obj/crt0.o
 .text          0x00000000        0x0 build/obj/vectors.o
 .data          0x00000000        0x0 build/obj/vectors.o
 .bss           0x00000000        0x0 build/obj/vectors.o
 .text          0x00000000        0x0 build/obj/ivor.o
 .data          0x00000000        0x0 build/obj/ivor.o
 .bss           0x00000000        0x0 build/obj/ivor.o
 .text          0x00000000        0x0 build/obj/spc5_lld.o
 .data          0x00000000        0x0 build/obj/spc5_lld.o
 .bss           0x00000000        0x0 build/obj/spc5_lld.o
 .text          0x00000000        0x0 build/obj/spc5_edma.o
 .data          0x00000000        0x0 build/obj/spc5_edma.o
 .bss           0x00000000        0x0 build/obj/spc5_edma.o
 .text.edmaChannelAllocate
                0x00000000       0x72 build/obj/spc5_edma.o
 .text.edmaChannelRelease
                0x00000000       0x44 build/obj/spc5_edma.o
 .text          0x00000000        0x0 build/obj/can_lld.o
 .data          0x00000000        0x0 build/obj/can_lld.o
 .bss           0x00000000        0x0 build/obj/can_lld.o
 .text.can_lld_stop
                0x00000000       0x76 build/obj/can_lld.o
 .text.can_lld_receive
                0x00000000      0x1b4 build/obj/can_lld.o
 .text          0x00000000        0x0 build/obj/saradc_lld.o
 .data          0x00000000        0x0 build/obj/saradc_lld.o
 .bss           0x00000000        0x0 build/obj/saradc_lld.o
 .text.saradc_lld_stop
                0x00000000       0xb6 build/obj/saradc_lld.o
 .text.saradc_lld_stop_conversion
                0x00000000        0xe build/obj/saradc_lld.o
 .text          0x00000000        0x0 build/obj/pal.o
 .data          0x00000000        0x0 build/obj/pal.o
 .bss           0x00000000        0x0 build/obj/pal.o
 .text._pal_readgroup
                0x00000000        0x4 build/obj/pal.o
 .text._pal_writegroup
                0x00000000        0x2 build/obj/pal.o
 .text._pal_setgroupmode
                0x00000000       0x28 build/obj/pal.o
 .text          0x00000000        0x0 build/obj/clock.o
 .data          0x00000000        0x0 build/obj/clock.o
 .bss           0x00000000        0x0 build/obj/clock.o
 .text.SPCSetRunMode
                0x00000000       0x2e build/obj/clock.o
 .text.SPCGetSystemClock
                0x00000000       0x80 build/obj/clock.o
 .rodata.SPCGetSystemClock
                0x00000000       0x14 build/obj/clock.o
 .text          0x00000000        0x0 build/obj/irq.o
 .data          0x00000000        0x0 build/obj/irq.o
 .bss           0x00000000        0x0 build/obj/irq.o
 .text          0x00000000        0x0 build/obj/eirq.o
 .data          0x00000000        0x0 build/obj/eirq.o
 .bss           0x00000000        0x0 build/obj/eirq.o
 .text.manage_eirq_interrupt
                0x00000000       0x80 build/obj/eirq.o
 .text          0x00000000        0x0 build/obj/swirq.o
 .data          0x00000000        0x0 build/obj/swirq.o
 .bss           0x00000000        0x0 build/obj/swirq.o
 .text.swirqInit
                0x00000000        0x4 build/obj/swirq.o
 .text.swirq_enable
                0x00000000       0x18 build/obj/swirq.o
 .text.swirq_disable
                0x00000000       0x16 build/obj/swirq.o
 .text.swirq_set
                0x00000000       0x12 build/obj/swirq.o
 .text.swirq_clear
                0x00000000       0x12 build/obj/swirq.o
 .text          0x00000000        0x0 build/obj/osal.o
 .data          0x00000000        0x0 build/obj/osal.o
 .bss           0x00000000        0x0 build/obj/osal.o
 .text.osalSysTimeSetup
                0x00000000       0x24 build/obj/osal.o
 .text.osalSysTimeReset
                0x00000000        0x4 build/obj/osal.o
 .text.osalThreadDelaySeconds
                0x00000000       0x16 build/obj/osal.o
 .text.osalThreadDelayMilliseconds
                0x00000000       0x34 build/obj/osal.o
 .text.osalThreadGetSeconds
                0x00000000       0x28 build/obj/osal.o
 .text.osalEnterCritical
                0x00000000        0xc build/obj/osal.o
 .text.osalExitCritical
                0x00000000        0xc build/obj/osal.o
 .text.osalEnterCriticalFromISR
                0x00000000        0x2 build/obj/osal.o
 .text.osalExitCriticalFromISR
                0x00000000        0x2 build/obj/osal.o
 .text          0x00000000        0x0 build/obj/systimer.o
 .data          0x00000000        0x0 build/obj/systimer.o
 .bss           0x00000000        0x0 build/obj/systimer.o
 .text          0x00000000        0x0 build/obj/can_lld_cfg.o
 .data          0x00000000        0x0 build/obj/can_lld_cfg.o
 .bss           0x00000000        0x0 build/obj/can_lld_cfg.o
 .data.can_config_mcanconf
                0x00000000       0xc4 build/obj/can_lld_cfg.o
 .text          0x00000000        0x0 build/obj/saradc_lld_cfg.o
 .data          0x00000000        0x0 build/obj/saradc_lld_cfg.o
 .bss           0x00000000        0x0 build/obj/saradc_lld_cfg.o
 .data.saradc_config_saradcconf_oneshot
                0x00000000       0x3c build/obj/saradc_lld_cfg.o
 .data._saradcconf_oneshot_ch_configs
                0x00000000       0x30 build/obj/saradc_lld_cfg.o
 .text          0x00000000        0x0 build/obj/board.o
 .data          0x00000000        0x0 build/obj/board.o
 .bss           0x00000000        0x0 build/obj/board.o
 .text          0x00000000        0x0 build/obj/irq_cfg.o
 .data          0x00000000        0x0 build/obj/irq_cfg.o
 .bss           0x00000000        0x0 build/obj/irq_cfg.o
 .text          0x00000000        0x0 build/obj/eirq_cfg.o
 .data          0x00000000        0x0 build/obj/eirq_cfg.o
 .bss           0x00000000        0x0 build/obj/eirq_cfg.o
 .text          0x00000000        0x0 build/obj/swirq_cfg.o
 .data          0x00000000        0x0 build/obj/swirq_cfg.o
 .bss           0x00000000        0x0 build/obj/swirq_cfg.o
 .text.swirq_init_prio
                0x00000000        0x2 build/obj/swirq_cfg.o
 .text          0x00000000        0x0 build/obj/components.o
 .data          0x00000000        0x0 build/obj/components.o
 .bss           0x00000000        0x0 build/obj/components.o
 .group         0x00000000        0x8 build/obj/main.o
 .group         0x00000000        0x8 build/obj/main.o
 .group         0x00000000        0x8 build/obj/main.o
 .group         0x00000000        0x8 build/obj/main.o
 .group         0x00000000        0x8 build/obj/main.o
 .group         0x00000000        0x8 build/obj/main.o
 .group         0x00000000        0x8 build/obj/main.o
 .group         0x00000000        0x8 build/obj/main.o
 .group         0x00000000        0x8 build/obj/main.o
 .group         0x00000000        0x8 build/obj/main.o
 .group         0x00000000        0x8 build/obj/main.o
 .group         0x00000000        0x8 build/obj/main.o
 .group         0x00000000        0x8 build/obj/main.o
 .group         0x00000000        0x8 build/obj/main.o
 .group         0x00000000        0x8 build/obj/main.o
 .group         0x00000000        0x8 build/obj/main.o
 .group         0x00000000        0x8 build/obj/main.o
 .text          0x00000000        0x0 build/obj/main.o
 .data          0x00000000        0x0 build/obj/main.o
 .bss           0x00000000        0x0 build/obj/main.o
 .text._ZN12Wiper_Module8activateEv
                0x00000000       0x42 build/obj/main.o
 .text._ZN7Channel16channel_off_implEv
                0x00000000       0x1c build/obj/main.o
 .text._ZN7Channel16latch_reset_implEv
                0x00000000        0x8 build/obj/main.o
 .text._ZN7Channel16diagnose_en_implEv
                0x00000000       0x68 build/obj/main.o
 .text._ZN7Channel11get_currentEv
                0x00000000       0xa6 build/obj/main.o
 .text._ZN7Channel14evaluate_faultEv
                0x00000000       0x6c build/obj/main.o
 .text._Z31initialize_channels_from_configP13pinconfigTypeP7Channel
                0x00000000       0x1e build/obj/main.o
 .text._Z16Right_handle_msg10CANRxFrame
                0x00000000        0xe build/obj/main.o
 .text._Z15Left_handle_msg10CANRxFrame
                0x00000000        0xe build/obj/main.o
 .text.inputs   0x00000000        0x4 build/obj/main.o
 .text._Z20evaluate_short_pressP13buttonInput_t
                0x00000000       0x3a build/obj/main.o
 .text._Z19evaluate_long_pressP13buttonInput_t
                0x00000000       0x3a build/obj/main.o
 .text._Z17get_bms_fan_statev
                0x00000000        0xe build/obj/main.o
 .text._Z11get_FD3MSG110CANRxFrame
                0x00000000       0x4e build/obj/main.o
 .text._Z11get_FD3MSG210CANRxFrame
                0x00000000       0x46 build/obj/main.o
 .text._Z14get_motor_tempv
                0x00000000       0x14 build/obj/main.o
 .text.CAN_send
                0x00000000       0x16 build/obj/main.o
 .text._Z12pseudo_delaym
                0x00000000       0x34 build/obj/main.o
 .text._Z12pseudo_delaymRm
                0x00000000       0x32 build/obj/main.o
 .text.startup._GLOBAL__sub_I_adc_value
                0x00000000       0x22 build/obj/main.o
 .ctors         0x00000000        0x4 build/obj/main.o
 .rodata._ZTV12Wiper_Module
                0x00000000        0xc build/obj/main.o
 .bss.button_id
                0x00000000        0x4 build/obj/main.o
 .bss.timedebug
                0x00000000        0x4 build/obj/main.o
 .bss.global_adc
                0x00000000        0x4 build/obj/main.o
 .bss.debug     0x00000000        0x1 build/obj/main.o
 .bss.hl        0x00000000        0x1 build/obj/main.o
 .bss.debug_hbeam
                0x00000000        0x1 build/obj/main.o
 .bss.PDU_setData_i
                0x00000000        0x8 build/obj/main.o
 .bss.can_message
                0x00000000        0x1 build/obj/main.o
 .bss.FD3_MSG2  0x00000000        0x8 build/obj/main.o
 .text          0x00000000        0x0 c:/users/shehan/documents/environments/spc5_env/toolchain/bin/../lib/gcc/powerpc-eabivle/4.9.4/../../../../powerpc-eabivle/lib/e200z2\libc.a(lib_a-errno.o)
 .data          0x00000000        0x0 c:/users/shehan/documents/environments/spc5_env/toolchain/bin/../lib/gcc/powerpc-eabivle/4.9.4/../../../../powerpc-eabivle/lib/e200z2\libc.a(lib_a-errno.o)
 .bss           0x00000000        0x0 c:/users/shehan/documents/environments/spc5_env/toolchain/bin/../lib/gcc/powerpc-eabivle/4.9.4/../../../../powerpc-eabivle/lib/e200z2\libc.a(lib_a-errno.o)
 .text          0x00000000        0x0 c:/users/shehan/documents/environments/spc5_env/toolchain/bin/../lib/gcc/powerpc-eabivle/4.9.4/../../../../powerpc-eabivle/lib/e200z2\libc.a(lib_a-impure.o)
 .data          0x00000000        0x0 c:/users/shehan/documents/environments/spc5_env/toolchain/bin/../lib/gcc/powerpc-eabivle/4.9.4/../../../../powerpc-eabivle/lib/e200z2\libc.a(lib_a-impure.o)
 .bss           0x00000000        0x0 c:/users/shehan/documents/environments/spc5_env/toolchain/bin/../lib/gcc/powerpc-eabivle/4.9.4/../../../../powerpc-eabivle/lib/e200z2\libc.a(lib_a-impure.o)
 .text          0x00000000        0x0 c:/users/shehan/documents/environments/spc5_env/toolchain/bin/../lib/gcc/powerpc-eabivle/4.9.4/../../../../powerpc-eabivle/lib/e200z2\libc.a(lib_a-memset.o)
 .data          0x00000000        0x0 c:/users/shehan/documents/environments/spc5_env/toolchain/bin/../lib/gcc/powerpc-eabivle/4.9.4/../../../../powerpc-eabivle/lib/e200z2\libc.a(lib_a-memset.o)
 .bss           0x00000000        0x0 c:/users/shehan/documents/environments/spc5_env/toolchain/bin/../lib/gcc/powerpc-eabivle/4.9.4/../../../../powerpc-eabivle/lib/e200z2\libc.a(lib_a-memset.o)
 .text          0x00000000        0x0 c:/users/shehan/documents/environments/spc5_env/toolchain/bin/../lib/gcc/powerpc-eabivle/4.9.4/../../../../powerpc-eabivle/lib/e200z2\libstdc++.a(new_op.o)
 .data          0x00000000        0x0 c:/users/shehan/documents/environments/spc5_env/toolchain/bin/../lib/gcc/powerpc-eabivle/4.9.4/../../../../powerpc-eabivle/lib/e200z2\libstdc++.a(new_op.o)
 .bss           0x00000000        0x0 c:/users/shehan/documents/environments/spc5_env/toolchain/bin/../lib/gcc/powerpc-eabivle/4.9.4/../../../../powerpc-eabivle/lib/e200z2\libstdc++.a(new_op.o)
 .eh_frame      0x00000000       0x3c c:/users/shehan/documents/environments/spc5_env/toolchain/bin/../lib/gcc/powerpc-eabivle/4.9.4/../../../../powerpc-eabivle/lib/e200z2\libstdc++.a(new_op.o)
 .group         0x00000000        0x8 c:/users/shehan/documents/environments/spc5_env/toolchain/bin/../lib/gcc/powerpc-eabivle/4.9.4/../../../../powerpc-eabivle/lib/e200z2\libstdc++.a(bad_alloc.o)
 .group         0x00000000        0x8 c:/users/shehan/documents/environments/spc5_env/toolchain/bin/../lib/gcc/powerpc-eabivle/4.9.4/../../../../powerpc-eabivle/lib/e200z2\libstdc++.a(bad_alloc.o)
 .group         0x00000000        0x8 c:/users/shehan/documents/environments/spc5_env/toolchain/bin/../lib/gcc/powerpc-eabivle/4.9.4/../../../../powerpc-eabivle/lib/e200z2\libstdc++.a(bad_alloc.o)
 .text          0x00000000        0x0 c:/users/shehan/documents/environments/spc5_env/toolchain/bin/../lib/gcc/powerpc-eabivle/4.9.4/../../../../powerpc-eabivle/lib/e200z2\libstdc++.a(bad_alloc.o)
 .data          0x00000000        0x0 c:/users/shehan/documents/environments/spc5_env/toolchain/bin/../lib/gcc/powerpc-eabivle/4.9.4/../../../../powerpc-eabivle/lib/e200z2\libstdc++.a(bad_alloc.o)
 .bss           0x00000000        0x0 c:/users/shehan/documents/environments/spc5_env/toolchain/bin/../lib/gcc/powerpc-eabivle/4.9.4/../../../../powerpc-eabivle/lib/e200z2\libstdc++.a(bad_alloc.o)
 .eh_frame      0x00000000       0x60 c:/users/shehan/documents/environments/spc5_env/toolchain/bin/../lib/gcc/powerpc-eabivle/4.9.4/../../../../powerpc-eabivle/lib/e200z2\libstdc++.a(bad_alloc.o)
 .group         0x00000000        0x8 c:/users/shehan/documents/environments/spc5_env/toolchain/bin/../lib/gcc/powerpc-eabivle/4.9.4/../../../../powerpc-eabivle/lib/e200z2\libstdc++.a(eh_exception.o)
 .group         0x00000000        0x8 c:/users/shehan/documents/environments/spc5_env/toolchain/bin/../lib/gcc/powerpc-eabivle/4.9.4/../../../../powerpc-eabivle/lib/e200z2\libstdc++.a(eh_exception.o)
 .group         0x00000000        0x8 c:/users/shehan/documents/environments/spc5_env/toolchain/bin/../lib/gcc/powerpc-eabivle/4.9.4/../../../../powerpc-eabivle/lib/e200z2\libstdc++.a(eh_exception.o)
 .group         0x00000000        0x8 c:/users/shehan/documents/environments/spc5_env/toolchain/bin/../lib/gcc/powerpc-eabivle/4.9.4/../../../../powerpc-eabivle/lib/e200z2\libstdc++.a(eh_exception.o)
 .group         0x00000000        0x8 c:/users/shehan/documents/environments/spc5_env/toolchain/bin/../lib/gcc/powerpc-eabivle/4.9.4/../../../../powerpc-eabivle/lib/e200z2\libstdc++.a(eh_exception.o)
 .group         0x00000000        0x8 c:/users/shehan/documents/environments/spc5_env/toolchain/bin/../lib/gcc/powerpc-eabivle/4.9.4/../../../../powerpc-eabivle/lib/e200z2\libstdc++.a(eh_exception.o)
 .group         0x00000000        0x8 c:/users/shehan/documents/environments/spc5_env/toolchain/bin/../lib/gcc/powerpc-eabivle/4.9.4/../../../../powerpc-eabivle/lib/e200z2\libstdc++.a(eh_exception.o)
 .group         0x00000000        0x8 c:/users/shehan/documents/environments/spc5_env/toolchain/bin/../lib/gcc/powerpc-eabivle/4.9.4/../../../../powerpc-eabivle/lib/e200z2\libstdc++.a(eh_exception.o)
 .group         0x00000000        0x8 c:/users/shehan/documents/environments/spc5_env/toolchain/bin/../lib/gcc/powerpc-eabivle/4.9.4/../../../../powerpc-eabivle/lib/e200z2\libstdc++.a(eh_exception.o)
 .group         0x00000000        0x8 c:/users/shehan/documents/environments/spc5_env/toolchain/bin/../lib/gcc/powerpc-eabivle/4.9.4/../../../../powerpc-eabivle/lib/e200z2\libstdc++.a(eh_exception.o)
 .group         0x00000000        0x8 c:/users/shehan/documents/environments/spc5_env/toolchain/bin/../lib/gcc/powerpc-eabivle/4.9.4/../../../../powerpc-eabivle/lib/e200z2\libstdc++.a(eh_exception.o)
 .group         0x00000000        0x8 c:/users/shehan/documents/environments/spc5_env/toolchain/bin/../lib/gcc/powerpc-eabivle/4.9.4/../../../../powerpc-eabivle/lib/e200z2\libstdc++.a(eh_exception.o)
 .text          0x00000000        0x0 c:/users/shehan/documents/environments/spc5_env/toolchain/bin/../lib/gcc/powerpc-eabivle/4.9.4/../../../../powerpc-eabivle/lib/e200z2\libstdc++.a(eh_exception.o)
 .data          0x00000000        0x0 c:/users/shehan/documents/environments/spc5_env/toolchain/bin/../lib/gcc/powerpc-eabivle/4.9.4/../../../../powerpc-eabivle/lib/e200z2\libstdc++.a(eh_exception.o)
 .bss           0x00000000        0x0 c:/users/shehan/documents/environments/spc5_env/toolchain/bin/../lib/gcc/powerpc-eabivle/4.9.4/../../../../powerpc-eabivle/lib/e200z2\libstdc++.a(eh_exception.o)
 .text._ZNKSt9exception4whatEv
                0x00000000        0xa c:/users/shehan/documents/environments/spc5_env/toolchain/bin/../lib/gcc/powerpc-eabivle/4.9.4/../../../../powerpc-eabivle/lib/e200z2\libstdc++.a(eh_exception.o)
 .text._ZNSt9exceptionD0Ev
                0x00000000        0x4 c:/users/shehan/documents/environments/spc5_env/toolchain/bin/../lib/gcc/powerpc-eabivle/4.9.4/../../../../powerpc-eabivle/lib/e200z2\libstdc++.a(eh_exception.o)
 .text._ZN10__cxxabiv115__forced_unwindD2Ev
                0x00000000        0x2 c:/users/shehan/documents/environments/spc5_env/toolchain/bin/../lib/gcc/powerpc-eabivle/4.9.4/../../../../powerpc-eabivle/lib/e200z2\libstdc++.a(eh_exception.o)
 .text._ZN10__cxxabiv115__forced_unwindD0Ev
                0x00000000        0x4 c:/users/shehan/documents/environments/spc5_env/toolchain/bin/../lib/gcc/powerpc-eabivle/4.9.4/../../../../powerpc-eabivle/lib/e200z2\libstdc++.a(eh_exception.o)
 .text._ZN10__cxxabiv119__foreign_exceptionD2Ev
                0x00000000        0x2 c:/users/shehan/documents/environments/spc5_env/toolchain/bin/../lib/gcc/powerpc-eabivle/4.9.4/../../../../powerpc-eabivle/lib/e200z2\libstdc++.a(eh_exception.o)
 .text._ZN10__cxxabiv119__foreign_exceptionD0Ev
                0x00000000        0x4 c:/users/shehan/documents/environments/spc5_env/toolchain/bin/../lib/gcc/powerpc-eabivle/4.9.4/../../../../powerpc-eabivle/lib/e200z2\libstdc++.a(eh_exception.o)
 .rodata._ZTVSt9exception
                0x00000000       0x14 c:/users/shehan/documents/environments/spc5_env/toolchain/bin/../lib/gcc/powerpc-eabivle/4.9.4/../../../../powerpc-eabivle/lib/e200z2\libstdc++.a(eh_exception.o)
 .rodata._ZTVN10__cxxabiv115__forced_unwindE
                0x00000000       0x14 c:/users/shehan/documents/environments/spc5_env/toolchain/bin/../lib/gcc/powerpc-eabivle/4.9.4/../../../../powerpc-eabivle/lib/e200z2\libstdc++.a(eh_exception.o)
 .rodata._ZTVN10__cxxabiv119__foreign_exceptionE
                0x00000000       0x14 c:/users/shehan/documents/environments/spc5_env/toolchain/bin/../lib/gcc/powerpc-eabivle/4.9.4/../../../../powerpc-eabivle/lib/e200z2\libstdc++.a(eh_exception.o)
 .eh_frame      0x00000000       0xdc c:/users/shehan/documents/environments/spc5_env/toolchain/bin/../lib/gcc/powerpc-eabivle/4.9.4/../../../../powerpc-eabivle/lib/e200z2\libstdc++.a(eh_exception.o)
 .text          0x00000000        0x0 c:/users/shehan/documents/environments/spc5_env/toolchain/bin/../lib/gcc/powerpc-eabivle/4.9.4/../../../../powerpc-eabivle/lib/e200z2\libstdc++.a(eh_alloc.o)
 .data          0x00000000        0x0 c:/users/shehan/documents/environments/spc5_env/toolchain/bin/../lib/gcc/powerpc-eabivle/4.9.4/../../../../powerpc-eabivle/lib/e200z2\libstdc++.a(eh_alloc.o)
 .bss           0x00000000        0x0 c:/users/shehan/documents/environments/spc5_env/toolchain/bin/../lib/gcc/powerpc-eabivle/4.9.4/../../../../powerpc-eabivle/lib/e200z2\libstdc++.a(eh_alloc.o)
 .text.__cxa_allocate_dependent_exception
                0x00000000       0x74 c:/users/shehan/documents/environments/spc5_env/toolchain/bin/../lib/gcc/powerpc-eabivle/4.9.4/../../../../powerpc-eabivle/lib/e200z2\libstdc++.a(eh_alloc.o)
 .text.__cxa_free_dependent_exception
                0x00000000       0x44 c:/users/shehan/documents/environments/spc5_env/toolchain/bin/../lib/gcc/powerpc-eabivle/4.9.4/../../../../powerpc-eabivle/lib/e200z2\libstdc++.a(eh_alloc.o)
 .bss._ZL15dependents_used
                0x00000000        0x4 c:/users/shehan/documents/environments/spc5_env/toolchain/bin/../lib/gcc/powerpc-eabivle/4.9.4/../../../../powerpc-eabivle/lib/e200z2\libstdc++.a(eh_alloc.o)
 .bss._ZL17dependents_buffer
                0x00000000      0x140 c:/users/shehan/documents/environments/spc5_env/toolchain/bin/../lib/gcc/powerpc-eabivle/4.9.4/../../../../powerpc-eabivle/lib/e200z2\libstdc++.a(eh_alloc.o)
 .eh_frame      0x00000000       0x88 c:/users/shehan/documents/environments/spc5_env/toolchain/bin/../lib/gcc/powerpc-eabivle/4.9.4/../../../../powerpc-eabivle/lib/e200z2\libstdc++.a(eh_alloc.o)
 .text          0x00000000        0x0 c:/users/shehan/documents/environments/spc5_env/toolchain/bin/../lib/gcc/powerpc-eabivle/4.9.4/../../../../powerpc-eabivle/lib/e200z2\libstdc++.a(pure.o)
 .data          0x00000000        0x0 c:/users/shehan/documents/environments/spc5_env/toolchain/bin/../lib/gcc/powerpc-eabivle/4.9.4/../../../../powerpc-eabivle/lib/e200z2\libstdc++.a(pure.o)
 .bss           0x00000000        0x0 c:/users/shehan/documents/environments/spc5_env/toolchain/bin/../lib/gcc/powerpc-eabivle/4.9.4/../../../../powerpc-eabivle/lib/e200z2\libstdc++.a(pure.o)
 .text.__cxa_pure_virtual
                0x00000000        0xc c:/users/shehan/documents/environments/spc5_env/toolchain/bin/../lib/gcc/powerpc-eabivle/4.9.4/../../../../powerpc-eabivle/lib/e200z2\libstdc++.a(pure.o)
 .text.__cxa_deleted_virtual
                0x00000000        0xc c:/users/shehan/documents/environments/spc5_env/toolchain/bin/../lib/gcc/powerpc-eabivle/4.9.4/../../../../powerpc-eabivle/lib/e200z2\libstdc++.a(pure.o)
 .eh_frame      0x00000000       0x44 c:/users/shehan/documents/environments/spc5_env/toolchain/bin/../lib/gcc/powerpc-eabivle/4.9.4/../../../../powerpc-eabivle/lib/e200z2\libstdc++.a(pure.o)
 .text          0x00000000        0x0 c:/users/shehan/documents/environments/spc5_env/toolchain/bin/../lib/gcc/powerpc-eabivle/4.9.4/../../../../powerpc-eabivle/lib/e200z2\libstdc++.a(del_op.o)
 .data          0x00000000        0x0 c:/users/shehan/documents/environments/spc5_env/toolchain/bin/../lib/gcc/powerpc-eabivle/4.9.4/../../../../powerpc-eabivle/lib/e200z2\libstdc++.a(del_op.o)
 .bss           0x00000000        0x0 c:/users/shehan/documents/environments/spc5_env/toolchain/bin/../lib/gcc/powerpc-eabivle/4.9.4/../../../../powerpc-eabivle/lib/e200z2\libstdc++.a(del_op.o)
 .eh_frame      0x00000000       0x28 c:/users/shehan/documents/environments/spc5_env/toolchain/bin/../lib/gcc/powerpc-eabivle/4.9.4/../../../../powerpc-eabivle/lib/e200z2\libstdc++.a(del_op.o)
 .text          0x00000000        0x0 c:/users/shehan/documents/environments/spc5_env/toolchain/bin/../lib/gcc/powerpc-eabivle/4.9.4/../../../../powerpc-eabivle/lib/e200z2\libstdc++.a(eh_throw.o)
 .data          0x00000000        0x0 c:/users/shehan/documents/environments/spc5_env/toolchain/bin/../lib/gcc/powerpc-eabivle/4.9.4/../../../../powerpc-eabivle/lib/e200z2\libstdc++.a(eh_throw.o)
 .bss           0x00000000        0x0 c:/users/shehan/documents/environments/spc5_env/toolchain/bin/../lib/gcc/powerpc-eabivle/4.9.4/../../../../powerpc-eabivle/lib/e200z2\libstdc++.a(eh_throw.o)
 .eh_frame      0x00000000       0x80 c:/users/shehan/documents/environments/spc5_env/toolchain/bin/../lib/gcc/powerpc-eabivle/4.9.4/../../../../powerpc-eabivle/lib/e200z2\libstdc++.a(eh_throw.o)
 .group         0x00000000        0x8 c:/users/shehan/documents/environments/spc5_env/toolchain/bin/../lib/gcc/powerpc-eabivle/4.9.4/../../../../powerpc-eabivle/lib/e200z2\libstdc++.a(class_type_info.o)
 .group         0x00000000        0x8 c:/users/shehan/documents/environments/spc5_env/toolchain/bin/../lib/gcc/powerpc-eabivle/4.9.4/../../../../powerpc-eabivle/lib/e200z2\libstdc++.a(class_type_info.o)
 .group         0x00000000        0x8 c:/users/shehan/documents/environments/spc5_env/toolchain/bin/../lib/gcc/powerpc-eabivle/4.9.4/../../../../powerpc-eabivle/lib/e200z2\libstdc++.a(class_type_info.o)
 .text          0x00000000        0x0 c:/users/shehan/documents/environments/spc5_env/toolchain/bin/../lib/gcc/powerpc-eabivle/4.9.4/../../../../powerpc-eabivle/lib/e200z2\libstdc++.a(class_type_info.o)
 .data          0x00000000        0x0 c:/users/shehan/documents/environments/spc5_env/toolchain/bin/../lib/gcc/powerpc-eabivle/4.9.4/../../../../powerpc-eabivle/lib/e200z2\libstdc++.a(class_type_info.o)
 .bss           0x00000000        0x0 c:/users/shehan/documents/environments/spc5_env/toolchain/bin/../lib/gcc/powerpc-eabivle/4.9.4/../../../../powerpc-eabivle/lib/e200z2\libstdc++.a(class_type_info.o)
 .eh_frame      0x00000000      0x134 c:/users/shehan/documents/environments/spc5_env/toolchain/bin/../lib/gcc/powerpc-eabivle/4.9.4/../../../../powerpc-eabivle/lib/e200z2\libstdc++.a(class_type_info.o)
 .text          0x00000000        0x0 c:/users/shehan/documents/environments/spc5_env/toolchain/bin/../lib/gcc/powerpc-eabivle/4.9.4/../../../../powerpc-eabivle/lib/e200z2\libstdc++.a(new_handler.o)
 .data          0x00000000        0x0 c:/users/shehan/documents/environments/spc5_env/toolchain/bin/../lib/gcc/powerpc-eabivle/4.9.4/../../../../powerpc-eabivle/lib/e200z2\libstdc++.a(new_handler.o)
 .bss           0x00000000        0x0 c:/users/shehan/documents/environments/spc5_env/toolchain/bin/../lib/gcc/powerpc-eabivle/4.9.4/../../../../powerpc-eabivle/lib/e200z2\libstdc++.a(new_handler.o)
 .text._ZSt15set_new_handlerPFvvE
                0x00000000       0x1e c:/users/shehan/documents/environments/spc5_env/toolchain/bin/../lib/gcc/powerpc-eabivle/4.9.4/../../../../powerpc-eabivle/lib/e200z2\libstdc++.a(new_handler.o)
 .sdata._ZSt7nothrow
                0x00000000        0x1 c:/users/shehan/documents/environments/spc5_env/toolchain/bin/../lib/gcc/powerpc-eabivle/4.9.4/../../../../powerpc-eabivle/lib/e200z2\libstdc++.a(new_handler.o)
 .eh_frame      0x00000000       0x3c c:/users/shehan/documents/environments/spc5_env/toolchain/bin/../lib/gcc/powerpc-eabivle/4.9.4/../../../../powerpc-eabivle/lib/e200z2\libstdc++.a(new_handler.o)
 .group         0x00000000        0x8 c:/users/shehan/documents/environments/spc5_env/toolchain/bin/../lib/gcc/powerpc-eabivle/4.9.4/../../../../powerpc-eabivle/lib/e200z2\libstdc++.a(si_class_type_info.o)
 .group         0x00000000        0x8 c:/users/shehan/documents/environments/spc5_env/toolchain/bin/../lib/gcc/powerpc-eabivle/4.9.4/../../../../powerpc-eabivle/lib/e200z2\libstdc++.a(si_class_type_info.o)
 .group         0x00000000        0x8 c:/users/shehan/documents/environments/spc5_env/toolchain/bin/../lib/gcc/powerpc-eabivle/4.9.4/../../../../powerpc-eabivle/lib/e200z2\libstdc++.a(si_class_type_info.o)
 .text          0x00000000        0x0 c:/users/shehan/documents/environments/spc5_env/toolchain/bin/../lib/gcc/powerpc-eabivle/4.9.4/../../../../powerpc-eabivle/lib/e200z2\libstdc++.a(si_class_type_info.o)
 .data          0x00000000        0x0 c:/users/shehan/documents/environments/spc5_env/toolchain/bin/../lib/gcc/powerpc-eabivle/4.9.4/../../../../powerpc-eabivle/lib/e200z2\libstdc++.a(si_class_type_info.o)
 .bss           0x00000000        0x0 c:/users/shehan/documents/environments/spc5_env/toolchain/bin/../lib/gcc/powerpc-eabivle/4.9.4/../../../../powerpc-eabivle/lib/e200z2\libstdc++.a(si_class_type_info.o)
 .eh_frame      0x00000000      0x108 c:/users/shehan/documents/environments/spc5_env/toolchain/bin/../lib/gcc/powerpc-eabivle/4.9.4/../../../../powerpc-eabivle/lib/e200z2\libstdc++.a(si_class_type_info.o)
 .text          0x00000000        0x0 c:/users/shehan/documents/environments/spc5_env/toolchain/bin/../lib/gcc/powerpc-eabivle/4.9.4/../../../../powerpc-eabivle/lib/e200z2\libstdc++.a(eh_globals.o)
 .data          0x00000000        0x0 c:/users/shehan/documents/environments/spc5_env/toolchain/bin/../lib/gcc/powerpc-eabivle/4.9.4/../../../../powerpc-eabivle/lib/e200z2\libstdc++.a(eh_globals.o)
 .bss           0x00000000        0x0 c:/users/shehan/documents/environments/spc5_env/toolchain/bin/../lib/gcc/powerpc-eabivle/4.9.4/../../../../powerpc-eabivle/lib/e200z2\libstdc++.a(eh_globals.o)
 .eh_frame      0x00000000       0x3c c:/users/shehan/documents/environments/spc5_env/toolchain/bin/../lib/gcc/powerpc-eabivle/4.9.4/../../../../powerpc-eabivle/lib/e200z2\libstdc++.a(eh_globals.o)
 .text          0x00000000        0x0 c:/users/shehan/documents/environments/spc5_env/toolchain/bin/../lib/gcc/powerpc-eabivle/4.9.4/../../../../powerpc-eabivle/lib/e200z2\libstdc++.a(eh_terminate.o)
 .data          0x00000000        0x0 c:/users/shehan/documents/environments/spc5_env/toolchain/bin/../lib/gcc/powerpc-eabivle/4.9.4/../../../../powerpc-eabivle/lib/e200z2\libstdc++.a(eh_terminate.o)
 .bss           0x00000000        0x0 c:/users/shehan/documents/environments/spc5_env/toolchain/bin/../lib/gcc/powerpc-eabivle/4.9.4/../../../../powerpc-eabivle/lib/e200z2\libstdc++.a(eh_terminate.o)
 .text._ZSt13set_terminatePFvvE
                0x00000000       0x1e c:/users/shehan/documents/environments/spc5_env/toolchain/bin/../lib/gcc/powerpc-eabivle/4.9.4/../../../../powerpc-eabivle/lib/e200z2\libstdc++.a(eh_terminate.o)
 .text._ZSt14set_unexpectedPFvvE
                0x00000000       0x1e c:/users/shehan/documents/environments/spc5_env/toolchain/bin/../lib/gcc/powerpc-eabivle/4.9.4/../../../../powerpc-eabivle/lib/e200z2\libstdc++.a(eh_terminate.o)
 .eh_frame      0x00000000       0xe8 c:/users/shehan/documents/environments/spc5_env/toolchain/bin/../lib/gcc/powerpc-eabivle/4.9.4/../../../../powerpc-eabivle/lib/e200z2\libstdc++.a(eh_terminate.o)
 .text          0x00000000        0x0 c:/users/shehan/documents/environments/spc5_env/toolchain/bin/../lib/gcc/powerpc-eabivle/4.9.4/../../../../powerpc-eabivle/lib/e200z2\libstdc++.a(eh_personality.o)
 .data          0x00000000        0x0 c:/users/shehan/documents/environments/spc5_env/toolchain/bin/../lib/gcc/powerpc-eabivle/4.9.4/../../../../powerpc-eabivle/lib/e200z2\libstdc++.a(eh_personality.o)
 .bss           0x00000000        0x0 c:/users/shehan/documents/environments/spc5_env/toolchain/bin/../lib/gcc/powerpc-eabivle/4.9.4/../../../../powerpc-eabivle/lib/e200z2\libstdc++.a(eh_personality.o)
 .eh_frame      0x00000000      0x230 c:/users/shehan/documents/environments/spc5_env/toolchain/bin/../lib/gcc/powerpc-eabivle/4.9.4/../../../../powerpc-eabivle/lib/e200z2\libstdc++.a(eh_personality.o)
 .text          0x00000000        0x0 c:/users/shehan/documents/environments/spc5_env/toolchain/bin/../lib/gcc/powerpc-eabivle/4.9.4/../../../../powerpc-eabivle/lib/e200z2\libstdc++.a(eh_unex_handler.o)
 .data          0x00000000        0x0 c:/users/shehan/documents/environments/spc5_env/toolchain/bin/../lib/gcc/powerpc-eabivle/4.9.4/../../../../powerpc-eabivle/lib/e200z2\libstdc++.a(eh_unex_handler.o)
 .bss           0x00000000        0x0 c:/users/shehan/documents/environments/spc5_env/toolchain/bin/../lib/gcc/powerpc-eabivle/4.9.4/../../../../powerpc-eabivle/lib/e200z2\libstdc++.a(eh_unex_handler.o)
 .text          0x00000000        0x0 c:/users/shehan/documents/environments/spc5_env/toolchain/bin/../lib/gcc/powerpc-eabivle/4.9.4/../../../../powerpc-eabivle/lib/e200z2\libstdc++.a(eh_term_handler.o)
 .data          0x00000000        0x0 c:/users/shehan/documents/environments/spc5_env/toolchain/bin/../lib/gcc/powerpc-eabivle/4.9.4/../../../../powerpc-eabivle/lib/e200z2\libstdc++.a(eh_term_handler.o)
 .bss           0x00000000        0x0 c:/users/shehan/documents/environments/spc5_env/toolchain/bin/../lib/gcc/powerpc-eabivle/4.9.4/../../../../powerpc-eabivle/lib/e200z2\libstdc++.a(eh_term_handler.o)
 .text          0x00000000        0x0 c:/users/shehan/documents/environments/spc5_env/toolchain/bin/../lib/gcc/powerpc-eabivle/4.9.4/../../../../powerpc-eabivle/lib/e200z2\libstdc++.a(eh_catch.o)
 .data          0x00000000        0x0 c:/users/shehan/documents/environments/spc5_env/toolchain/bin/../lib/gcc/powerpc-eabivle/4.9.4/../../../../powerpc-eabivle/lib/e200z2\libstdc++.a(eh_catch.o)
 .bss           0x00000000        0x0 c:/users/shehan/documents/environments/spc5_env/toolchain/bin/../lib/gcc/powerpc-eabivle/4.9.4/../../../../powerpc-eabivle/lib/e200z2\libstdc++.a(eh_catch.o)
 .text.__cxa_get_exception_ptr
                0x00000000        0x6 c:/users/shehan/documents/environments/spc5_env/toolchain/bin/../lib/gcc/powerpc-eabivle/4.9.4/../../../../powerpc-eabivle/lib/e200z2\libstdc++.a(eh_catch.o)
 .text._ZSt18uncaught_exceptionv
                0x00000000       0x26 c:/users/shehan/documents/environments/spc5_env/toolchain/bin/../lib/gcc/powerpc-eabivle/4.9.4/../../../../powerpc-eabivle/lib/e200z2\libstdc++.a(eh_catch.o)
 .eh_frame      0x00000000       0xa4 c:/users/shehan/documents/environments/spc5_env/toolchain/bin/../lib/gcc/powerpc-eabivle/4.9.4/../../../../powerpc-eabivle/lib/e200z2\libstdc++.a(eh_catch.o)
 .group         0x00000000        0x8 c:/users/shehan/documents/environments/spc5_env/toolchain/bin/../lib/gcc/powerpc-eabivle/4.9.4/../../../../powerpc-eabivle/lib/e200z2\libstdc++.a(tinfo.o)
 .group         0x00000000        0x8 c:/users/shehan/documents/environments/spc5_env/toolchain/bin/../lib/gcc/powerpc-eabivle/4.9.4/../../../../powerpc-eabivle/lib/e200z2\libstdc++.a(tinfo.o)
 .group         0x00000000        0x8 c:/users/shehan/documents/environments/spc5_env/toolchain/bin/../lib/gcc/powerpc-eabivle/4.9.4/../../../../powerpc-eabivle/lib/e200z2\libstdc++.a(tinfo.o)
 .text          0x00000000        0x0 c:/users/shehan/documents/environments/spc5_env/toolchain/bin/../lib/gcc/powerpc-eabivle/4.9.4/../../../../powerpc-eabivle/lib/e200z2\libstdc++.a(tinfo.o)
 .data          0x00000000        0x0 c:/users/shehan/documents/environments/spc5_env/toolchain/bin/../lib/gcc/powerpc-eabivle/4.9.4/../../../../powerpc-eabivle/lib/e200z2\libstdc++.a(tinfo.o)
 .bss           0x00000000        0x0 c:/users/shehan/documents/environments/spc5_env/toolchain/bin/../lib/gcc/powerpc-eabivle/4.9.4/../../../../powerpc-eabivle/lib/e200z2\libstdc++.a(tinfo.o)
 .text._ZNKSt9type_info11__do_upcastEPKN10__cxxabiv117__class_type_infoEPPv
                0x00000000        0x4 c:/users/shehan/documents/environments/spc5_env/toolchain/bin/../lib/gcc/powerpc-eabivle/4.9.4/../../../../powerpc-eabivle/lib/e200z2\libstdc++.a(tinfo.o)
 .text._ZNSt9type_infoD0Ev
                0x00000000        0x4 c:/users/shehan/documents/environments/spc5_env/toolchain/bin/../lib/gcc/powerpc-eabivle/4.9.4/../../../../powerpc-eabivle/lib/e200z2\libstdc++.a(tinfo.o)
 .text._ZNKSt9type_info10__do_catchEPKS_PPvj
                0x00000000       0x3c c:/users/shehan/documents/environments/spc5_env/toolchain/bin/../lib/gcc/powerpc-eabivle/4.9.4/../../../../powerpc-eabivle/lib/e200z2\libstdc++.a(tinfo.o)
 .rodata._ZTVSt9type_info
                0x00000000       0x20 c:/users/shehan/documents/environments/spc5_env/toolchain/bin/../lib/gcc/powerpc-eabivle/4.9.4/../../../../powerpc-eabivle/lib/e200z2\libstdc++.a(tinfo.o)
 .eh_frame      0x00000000       0xa0 c:/users/shehan/documents/environments/spc5_env/toolchain/bin/../lib/gcc/powerpc-eabivle/4.9.4/../../../../powerpc-eabivle/lib/e200z2\libstdc++.a(tinfo.o)
 .text          0x00000000        0x0 c:/users/shehan/documents/environments/spc5_env/toolchain/bin/../lib/gcc/powerpc-eabivle/4.9.4/../../../../powerpc-eabivle/lib/e200z2\libstdc++.a(eh_call.o)
 .data          0x00000000        0x0 c:/users/shehan/documents/environments/spc5_env/toolchain/bin/../lib/gcc/powerpc-eabivle/4.9.4/../../../../powerpc-eabivle/lib/e200z2\libstdc++.a(eh_call.o)
 .bss           0x00000000        0x0 c:/users/shehan/documents/environments/spc5_env/toolchain/bin/../lib/gcc/powerpc-eabivle/4.9.4/../../../../powerpc-eabivle/lib/e200z2\libstdc++.a(eh_call.o)
 .eh_frame      0x00000000       0x30 c:/users/shehan/documents/environments/spc5_env/toolchain/bin/../lib/gcc/powerpc-eabivle/4.9.4/../../../../powerpc-eabivle/lib/e200z2\libstdc++.a(eh_call.o)
 .data          0x00000000        0x0 c:/users/shehan/documents/environments/spc5_env/toolchain/bin/../lib/gcc/powerpc-eabivle/4.9.4/e200z2\libgcc.a(_fixunssfsi.o)
 .bss           0x00000000        0x0 c:/users/shehan/documents/environments/spc5_env/toolchain/bin/../lib/gcc/powerpc-eabivle/4.9.4/e200z2\libgcc.a(_fixunssfsi.o)
 .data          0x00000000        0x0 c:/users/shehan/documents/environments/spc5_env/toolchain/bin/../lib/gcc/powerpc-eabivle/4.9.4/e200z2\libgcc.a(_addsub_sf.o)
 .bss           0x00000000        0x0 c:/users/shehan/documents/environments/spc5_env/toolchain/bin/../lib/gcc/powerpc-eabivle/4.9.4/e200z2\libgcc.a(_addsub_sf.o)
 .data          0x00000000        0x0 c:/users/shehan/documents/environments/spc5_env/toolchain/bin/../lib/gcc/powerpc-eabivle/4.9.4/e200z2\libgcc.a(_mul_sf.o)
 .bss           0x00000000        0x0 c:/users/shehan/documents/environments/spc5_env/toolchain/bin/../lib/gcc/powerpc-eabivle/4.9.4/e200z2\libgcc.a(_mul_sf.o)
 .data          0x00000000        0x0 c:/users/shehan/documents/environments/spc5_env/toolchain/bin/../lib/gcc/powerpc-eabivle/4.9.4/e200z2\libgcc.a(_div_sf.o)
 .bss           0x00000000        0x0 c:/users/shehan/documents/environments/spc5_env/toolchain/bin/../lib/gcc/powerpc-eabivle/4.9.4/e200z2\libgcc.a(_div_sf.o)
 .text          0x00000000       0x5a c:/users/shehan/documents/environments/spc5_env/toolchain/bin/../lib/gcc/powerpc-eabivle/4.9.4/e200z2\libgcc.a(_gt_sf.o)
 .data          0x00000000        0x0 c:/users/shehan/documents/environments/spc5_env/toolchain/bin/../lib/gcc/powerpc-eabivle/4.9.4/e200z2\libgcc.a(_gt_sf.o)
 .bss           0x00000000        0x0 c:/users/shehan/documents/environments/spc5_env/toolchain/bin/../lib/gcc/powerpc-eabivle/4.9.4/e200z2\libgcc.a(_gt_sf.o)
 .data          0x00000000        0x0 c:/users/shehan/documents/environments/spc5_env/toolchain/bin/../lib/gcc/powerpc-eabivle/4.9.4/e200z2\libgcc.a(_ge_sf.o)
 .bss           0x00000000        0x0 c:/users/shehan/documents/environments/spc5_env/toolchain/bin/../lib/gcc/powerpc-eabivle/4.9.4/e200z2\libgcc.a(_ge_sf.o)
 .data          0x00000000        0x0 c:/users/shehan/documents/environments/spc5_env/toolchain/bin/../lib/gcc/powerpc-eabivle/4.9.4/e200z2\libgcc.a(_le_sf.o)
 .bss           0x00000000        0x0 c:/users/shehan/documents/environments/spc5_env/toolchain/bin/../lib/gcc/powerpc-eabivle/4.9.4/e200z2\libgcc.a(_le_sf.o)
 .text          0x00000000       0x6a c:/users/shehan/documents/environments/spc5_env/toolchain/bin/../lib/gcc/powerpc-eabivle/4.9.4/e200z2\libgcc.a(_si_to_sf.o)
 .data          0x00000000        0x0 c:/users/shehan/documents/environments/spc5_env/toolchain/bin/../lib/gcc/powerpc-eabivle/4.9.4/e200z2\libgcc.a(_si_to_sf.o)
 .bss           0x00000000        0x0 c:/users/shehan/documents/environments/spc5_env/toolchain/bin/../lib/gcc/powerpc-eabivle/4.9.4/e200z2\libgcc.a(_si_to_sf.o)
 .data          0x00000000        0x0 c:/users/shehan/documents/environments/spc5_env/toolchain/bin/../lib/gcc/powerpc-eabivle/4.9.4/e200z2\libgcc.a(_sf_to_si.o)
 .bss           0x00000000        0x0 c:/users/shehan/documents/environments/spc5_env/toolchain/bin/../lib/gcc/powerpc-eabivle/4.9.4/e200z2\libgcc.a(_sf_to_si.o)
 .text          0x00000000       0x38 c:/users/shehan/documents/environments/spc5_env/toolchain/bin/../lib/gcc/powerpc-eabivle/4.9.4/e200z2\libgcc.a(_sf_to_df.o)
 .data          0x00000000        0x0 c:/users/shehan/documents/environments/spc5_env/toolchain/bin/../lib/gcc/powerpc-eabivle/4.9.4/e200z2\libgcc.a(_sf_to_df.o)
 .bss           0x00000000        0x0 c:/users/shehan/documents/environments/spc5_env/toolchain/bin/../lib/gcc/powerpc-eabivle/4.9.4/e200z2\libgcc.a(_sf_to_df.o)
 .text          0x00000000        0x0 c:/users/shehan/documents/environments/spc5_env/toolchain/bin/../lib/gcc/powerpc-eabivle/4.9.4/e200z2\libgcc.a(_thenan_sf.o)
 .data          0x00000000        0x0 c:/users/shehan/documents/environments/spc5_env/toolchain/bin/../lib/gcc/powerpc-eabivle/4.9.4/e200z2\libgcc.a(_thenan_sf.o)
 .bss           0x00000000        0x0 c:/users/shehan/documents/environments/spc5_env/toolchain/bin/../lib/gcc/powerpc-eabivle/4.9.4/e200z2\libgcc.a(_thenan_sf.o)
 .text          0x00000000       0x84 c:/users/shehan/documents/environments/spc5_env/toolchain/bin/../lib/gcc/powerpc-eabivle/4.9.4/e200z2\libgcc.a(_usi_to_sf.o)
 .data          0x00000000        0x0 c:/users/shehan/documents/environments/spc5_env/toolchain/bin/../lib/gcc/powerpc-eabivle/4.9.4/e200z2\libgcc.a(_usi_to_sf.o)
 .bss           0x00000000        0x0 c:/users/shehan/documents/environments/spc5_env/toolchain/bin/../lib/gcc/powerpc-eabivle/4.9.4/e200z2\libgcc.a(_usi_to_sf.o)
 .text          0x00000000      0x376 c:/users/shehan/documents/environments/spc5_env/toolchain/bin/../lib/gcc/powerpc-eabivle/4.9.4/e200z2\libgcc.a(_addsub_df.o)
 .data          0x00000000        0x0 c:/users/shehan/documents/environments/spc5_env/toolchain/bin/../lib/gcc/powerpc-eabivle/4.9.4/e200z2\libgcc.a(_addsub_df.o)
 .bss           0x00000000        0x0 c:/users/shehan/documents/environments/spc5_env/toolchain/bin/../lib/gcc/powerpc-eabivle/4.9.4/e200z2\libgcc.a(_addsub_df.o)
 .text          0x00000000      0x264 c:/users/shehan/documents/environments/spc5_env/toolchain/bin/../lib/gcc/powerpc-eabivle/4.9.4/e200z2\libgcc.a(_mul_df.o)
 .data          0x00000000        0x0 c:/users/shehan/documents/environments/spc5_env/toolchain/bin/../lib/gcc/powerpc-eabivle/4.9.4/e200z2\libgcc.a(_mul_df.o)
 .bss           0x00000000        0x0 c:/users/shehan/documents/environments/spc5_env/toolchain/bin/../lib/gcc/powerpc-eabivle/4.9.4/e200z2\libgcc.a(_mul_df.o)
 .text          0x00000000       0x26 c:/users/shehan/documents/environments/spc5_env/toolchain/bin/../lib/gcc/powerpc-eabivle/4.9.4/e200z2\libgcc.a(_make_df.o)
 .data          0x00000000        0x0 c:/users/shehan/documents/environments/spc5_env/toolchain/bin/../lib/gcc/powerpc-eabivle/4.9.4/e200z2\libgcc.a(_make_df.o)
 .bss           0x00000000        0x0 c:/users/shehan/documents/environments/spc5_env/toolchain/bin/../lib/gcc/powerpc-eabivle/4.9.4/e200z2\libgcc.a(_make_df.o)
 .text          0x00000000       0x46 c:/users/shehan/documents/environments/spc5_env/toolchain/bin/../lib/gcc/powerpc-eabivle/4.9.4/e200z2\libgcc.a(_df_to_sf.o)
 .data          0x00000000        0x0 c:/users/shehan/documents/environments/spc5_env/toolchain/bin/../lib/gcc/powerpc-eabivle/4.9.4/e200z2\libgcc.a(_df_to_sf.o)
 .bss           0x00000000        0x0 c:/users/shehan/documents/environments/spc5_env/toolchain/bin/../lib/gcc/powerpc-eabivle/4.9.4/e200z2\libgcc.a(_df_to_sf.o)
 .text          0x00000000        0x0 c:/users/shehan/documents/environments/spc5_env/toolchain/bin/../lib/gcc/powerpc-eabivle/4.9.4/e200z2\libgcc.a(_thenan_df.o)
 .data          0x00000000        0x0 c:/users/shehan/documents/environments/spc5_env/toolchain/bin/../lib/gcc/powerpc-eabivle/4.9.4/e200z2\libgcc.a(_thenan_df.o)
 .bss           0x00000000        0x0 c:/users/shehan/documents/environments/spc5_env/toolchain/bin/../lib/gcc/powerpc-eabivle/4.9.4/e200z2\libgcc.a(_thenan_df.o)
 .rodata        0x00000000       0x18 c:/users/shehan/documents/environments/spc5_env/toolchain/bin/../lib/gcc/powerpc-eabivle/4.9.4/e200z2\libgcc.a(_thenan_df.o)
 .data          0x00000000        0x0 c:/users/shehan/documents/environments/spc5_env/toolchain/bin/../lib/gcc/powerpc-eabivle/4.9.4/e200z2\libgcc.a(unwind-dw2.o)
 .eh_frame      0x00000000      0x628 c:/users/shehan/documents/environments/spc5_env/toolchain/bin/../lib/gcc/powerpc-eabivle/4.9.4/e200z2\libgcc.a(unwind-dw2.o)
 .data          0x00000000        0x0 c:/users/shehan/documents/environments/spc5_env/toolchain/bin/../lib/gcc/powerpc-eabivle/4.9.4/e200z2\libgcc.a(unwind-dw2-fde.o)
 .eh_frame      0x00000000      0x4a8 c:/users/shehan/documents/environments/spc5_env/toolchain/bin/../lib/gcc/powerpc-eabivle/4.9.4/e200z2\libgcc.a(unwind-dw2-fde.o)
 .data          0x00000000        0x0 c:/users/shehan/documents/environments/spc5_env/toolchain/bin/../lib/gcc/powerpc-eabivle/4.9.4/e200z2\libgcc.a(_pack_sf.o)
 .bss           0x00000000        0x0 c:/users/shehan/documents/environments/spc5_env/toolchain/bin/../lib/gcc/powerpc-eabivle/4.9.4/e200z2\libgcc.a(_pack_sf.o)
 .data          0x00000000        0x0 c:/users/shehan/documents/environments/spc5_env/toolchain/bin/../lib/gcc/powerpc-eabivle/4.9.4/e200z2\libgcc.a(_unpack_sf.o)
 .bss           0x00000000        0x0 c:/users/shehan/documents/environments/spc5_env/toolchain/bin/../lib/gcc/powerpc-eabivle/4.9.4/e200z2\libgcc.a(_unpack_sf.o)
 .data          0x00000000        0x0 c:/users/shehan/documents/environments/spc5_env/toolchain/bin/../lib/gcc/powerpc-eabivle/4.9.4/e200z2\libgcc.a(_fpcmp_parts_sf.o)
 .bss           0x00000000        0x0 c:/users/shehan/documents/environments/spc5_env/toolchain/bin/../lib/gcc/powerpc-eabivle/4.9.4/e200z2\libgcc.a(_fpcmp_parts_sf.o)
 .text          0x00000000       0x20 c:/users/shehan/documents/environments/spc5_env/toolchain/bin/../lib/gcc/powerpc-eabivle/4.9.4/e200z2\libgcc.a(_make_sf.o)
 .data          0x00000000        0x0 c:/users/shehan/documents/environments/spc5_env/toolchain/bin/../lib/gcc/powerpc-eabivle/4.9.4/e200z2\libgcc.a(_make_sf.o)
 .bss           0x00000000        0x0 c:/users/shehan/documents/environments/spc5_env/toolchain/bin/../lib/gcc/powerpc-eabivle/4.9.4/e200z2\libgcc.a(_make_sf.o)
 .text          0x00000000      0x1fc c:/users/shehan/documents/environments/spc5_env/toolchain/bin/../lib/gcc/powerpc-eabivle/4.9.4/e200z2\libgcc.a(_pack_df.o)
 .data          0x00000000        0x0 c:/users/shehan/documents/environments/spc5_env/toolchain/bin/../lib/gcc/powerpc-eabivle/4.9.4/e200z2\libgcc.a(_pack_df.o)
 .bss           0x00000000        0x0 c:/users/shehan/documents/environments/spc5_env/toolchain/bin/../lib/gcc/powerpc-eabivle/4.9.4/e200z2\libgcc.a(_pack_df.o)
 .text          0x00000000       0xb0 c:/users/shehan/documents/environments/spc5_env/toolchain/bin/../lib/gcc/powerpc-eabivle/4.9.4/e200z2\libgcc.a(_unpack_df.o)
 .data          0x00000000        0x0 c:/users/shehan/documents/environments/spc5_env/toolchain/bin/../lib/gcc/powerpc-eabivle/4.9.4/e200z2\libgcc.a(_unpack_df.o)
 .bss           0x00000000        0x0 c:/users/shehan/documents/environments/spc5_env/toolchain/bin/../lib/gcc/powerpc-eabivle/4.9.4/e200z2\libgcc.a(_unpack_df.o)
 .text          0x00000000        0x0 c:/users/shehan/documents/environments/spc5_env/toolchain/bin/../lib/gcc/powerpc-eabivle/4.9.4/../../../../powerpc-eabivle/lib/e200z2\libc.a(lib_a-abort.o)
 .data          0x00000000        0x0 c:/users/shehan/documents/environments/spc5_env/toolchain/bin/../lib/gcc/powerpc-eabivle/4.9.4/../../../../powerpc-eabivle/lib/e200z2\libc.a(lib_a-abort.o)
 .bss           0x00000000        0x0 c:/users/shehan/documents/environments/spc5_env/toolchain/bin/../lib/gcc/powerpc-eabivle/4.9.4/../../../../powerpc-eabivle/lib/e200z2\libc.a(lib_a-abort.o)
 .text          0x00000000        0x0 c:/users/shehan/documents/environments/spc5_env/toolchain/bin/../lib/gcc/powerpc-eabivle/4.9.4/../../../../powerpc-eabivle/lib/e200z2\libc.a(lib_a-malloc.o)
 .data          0x00000000        0x0 c:/users/shehan/documents/environments/spc5_env/toolchain/bin/../lib/gcc/powerpc-eabivle/4.9.4/../../../../powerpc-eabivle/lib/e200z2\libc.a(lib_a-malloc.o)
 .bss           0x00000000        0x0 c:/users/shehan/documents/environments/spc5_env/toolchain/bin/../lib/gcc/powerpc-eabivle/4.9.4/../../../../powerpc-eabivle/lib/e200z2\libc.a(lib_a-malloc.o)
 .text          0x00000000        0x0 c:/users/shehan/documents/environments/spc5_env/toolchain/bin/../lib/gcc/powerpc-eabivle/4.9.4/../../../../powerpc-eabivle/lib/e200z2\libc.a(lib_a-mallocr.o)
 .data          0x00000000        0x0 c:/users/shehan/documents/environments/spc5_env/toolchain/bin/../lib/gcc/powerpc-eabivle/4.9.4/../../../../powerpc-eabivle/lib/e200z2\libc.a(lib_a-mallocr.o)
 .bss           0x00000000        0x0 c:/users/shehan/documents/environments/spc5_env/toolchain/bin/../lib/gcc/powerpc-eabivle/4.9.4/../../../../powerpc-eabivle/lib/e200z2\libc.a(lib_a-mallocr.o)
 .text          0x00000000        0x0 c:/users/shehan/documents/environments/spc5_env/toolchain/bin/../lib/gcc/powerpc-eabivle/4.9.4/../../../../powerpc-eabivle/lib/e200z2\libc.a(lib_a-memcpy.o)
 .data          0x00000000        0x0 c:/users/shehan/documents/environments/spc5_env/toolchain/bin/../lib/gcc/powerpc-eabivle/4.9.4/../../../../powerpc-eabivle/lib/e200z2\libc.a(lib_a-memcpy.o)
 .bss           0x00000000        0x0 c:/users/shehan/documents/environments/spc5_env/toolchain/bin/../lib/gcc/powerpc-eabivle/4.9.4/../../../../powerpc-eabivle/lib/e200z2\libc.a(lib_a-memcpy.o)
 .text          0x00000000        0x0 c:/users/shehan/documents/environments/spc5_env/toolchain/bin/../lib/gcc/powerpc-eabivle/4.9.4/../../../../powerpc-eabivle/lib/e200z2\libc.a(lib_a-mlock.o)
 .data          0x00000000        0x0 c:/users/shehan/documents/environments/spc5_env/toolchain/bin/../lib/gcc/powerpc-eabivle/4.9.4/../../../../powerpc-eabivle/lib/e200z2\libc.a(lib_a-mlock.o)
 .bss           0x00000000        0x0 c:/users/shehan/documents/environments/spc5_env/toolchain/bin/../lib/gcc/powerpc-eabivle/4.9.4/../../../../powerpc-eabivle/lib/e200z2\libc.a(lib_a-mlock.o)
 .text          0x00000000        0x0 c:/users/shehan/documents/environments/spc5_env/toolchain/bin/../lib/gcc/powerpc-eabivle/4.9.4/../../../../powerpc-eabivle/lib/e200z2\libc.a(lib_a-sbrkr.o)
 .data          0x00000000        0x0 c:/users/shehan/documents/environments/spc5_env/toolchain/bin/../lib/gcc/powerpc-eabivle/4.9.4/../../../../powerpc-eabivle/lib/e200z2\libc.a(lib_a-sbrkr.o)
 .bss           0x00000000        0x0 c:/users/shehan/documents/environments/spc5_env/toolchain/bin/../lib/gcc/powerpc-eabivle/4.9.4/../../../../powerpc-eabivle/lib/e200z2\libc.a(lib_a-sbrkr.o)
 .text          0x00000000        0x0 c:/users/shehan/documents/environments/spc5_env/toolchain/bin/../lib/gcc/powerpc-eabivle/4.9.4/../../../../powerpc-eabivle/lib/e200z2\libc.a(lib_a-signal.o)
 .data          0x00000000        0x0 c:/users/shehan/documents/environments/spc5_env/toolchain/bin/../lib/gcc/powerpc-eabivle/4.9.4/../../../../powerpc-eabivle/lib/e200z2\libc.a(lib_a-signal.o)
 .bss           0x00000000        0x0 c:/users/shehan/documents/environments/spc5_env/toolchain/bin/../lib/gcc/powerpc-eabivle/4.9.4/../../../../powerpc-eabivle/lib/e200z2\libc.a(lib_a-signal.o)
 .text._init_signal_r
                0x00000000       0x52 c:/users/shehan/documents/environments/spc5_env/toolchain/bin/../lib/gcc/powerpc-eabivle/4.9.4/../../../../powerpc-eabivle/lib/e200z2\libc.a(lib_a-signal.o)
 .text._signal_r
                0x00000000       0x52 c:/users/shehan/documents/environments/spc5_env/toolchain/bin/../lib/gcc/powerpc-eabivle/4.9.4/../../../../powerpc-eabivle/lib/e200z2\libc.a(lib_a-signal.o)
 .text.__sigtramp_r
                0x00000000       0x74 c:/users/shehan/documents/environments/spc5_env/toolchain/bin/../lib/gcc/powerpc-eabivle/4.9.4/../../../../powerpc-eabivle/lib/e200z2\libc.a(lib_a-signal.o)
 .text.signal   0x00000000       0x12 c:/users/shehan/documents/environments/spc5_env/toolchain/bin/../lib/gcc/powerpc-eabivle/4.9.4/../../../../powerpc-eabivle/lib/e200z2\libc.a(lib_a-signal.o)
 .text._init_signal
                0x00000000        0xc c:/users/shehan/documents/environments/spc5_env/toolchain/bin/../lib/gcc/powerpc-eabivle/4.9.4/../../../../powerpc-eabivle/lib/e200z2\libc.a(lib_a-signal.o)
 .text.__sigtramp
                0x00000000        0xe c:/users/shehan/documents/environments/spc5_env/toolchain/bin/../lib/gcc/powerpc-eabivle/4.9.4/../../../../powerpc-eabivle/lib/e200z2\libc.a(lib_a-signal.o)
 .text          0x00000000        0x0 c:/users/shehan/documents/environments/spc5_env/toolchain/bin/../lib/gcc/powerpc-eabivle/4.9.4/../../../../powerpc-eabivle/lib/e200z2\libc.a(lib_a-signalr.o)
 .data          0x00000000        0x0 c:/users/shehan/documents/environments/spc5_env/toolchain/bin/../lib/gcc/powerpc-eabivle/4.9.4/../../../../powerpc-eabivle/lib/e200z2\libc.a(lib_a-signalr.o)
 .bss           0x00000000        0x0 c:/users/shehan/documents/environments/spc5_env/toolchain/bin/../lib/gcc/powerpc-eabivle/4.9.4/../../../../powerpc-eabivle/lib/e200z2\libc.a(lib_a-signalr.o)
 .text          0x00000000        0x0 c:/users/shehan/documents/environments/spc5_env/toolchain/bin/../lib/gcc/powerpc-eabivle/4.9.4/../../../../powerpc-eabivle/lib/e200z2\libc.a(lib_a-strcmp.o)
 .data          0x00000000        0x0 c:/users/shehan/documents/environments/spc5_env/toolchain/bin/../lib/gcc/powerpc-eabivle/4.9.4/../../../../powerpc-eabivle/lib/e200z2\libc.a(lib_a-strcmp.o)
 .bss           0x00000000        0x0 c:/users/shehan/documents/environments/spc5_env/toolchain/bin/../lib/gcc/powerpc-eabivle/4.9.4/../../../../powerpc-eabivle/lib/e200z2\libc.a(lib_a-strcmp.o)
 .text          0x00000000        0x0 c:/users/shehan/documents/environments/spc5_env/toolchain/bin/../lib/gcc/powerpc-eabivle/4.9.4/../../../../powerpc-eabivle/lib/e200z2\libc.a(lib_a-strlen.o)
 .data          0x00000000        0x0 c:/users/shehan/documents/environments/spc5_env/toolchain/bin/../lib/gcc/powerpc-eabivle/4.9.4/../../../../powerpc-eabivle/lib/e200z2\libc.a(lib_a-strlen.o)
 .bss           0x00000000        0x0 c:/users/shehan/documents/environments/spc5_env/toolchain/bin/../lib/gcc/powerpc-eabivle/4.9.4/../../../../powerpc-eabivle/lib/e200z2\libc.a(lib_a-strlen.o)
 .text          0x00000000        0x0 c:/users/shehan/documents/environments/spc5_env/toolchain/bin/../lib/gcc/powerpc-eabivle/4.9.4/../../../../powerpc-eabivle/lib/e200z2\libc.a(lib_a-freer.o)
 .data          0x00000000        0x0 c:/users/shehan/documents/environments/spc5_env/toolchain/bin/../lib/gcc/powerpc-eabivle/4.9.4/../../../../powerpc-eabivle/lib/e200z2\libc.a(lib_a-freer.o)
 .bss           0x00000000        0x0 c:/users/shehan/documents/environments/spc5_env/toolchain/bin/../lib/gcc/powerpc-eabivle/4.9.4/../../../../powerpc-eabivle/lib/e200z2\libc.a(lib_a-freer.o)
 .text          0x00000000        0x0 c:/users/shehan/documents/environments/spc5_env/toolchain/bin/../lib/gcc/powerpc-eabivle/4.9.4/../../../../powerpc-eabivle/lib/e200z2\libc.a(lib_a-reent.o)
 .data          0x00000000        0x0 c:/users/shehan/documents/environments/spc5_env/toolchain/bin/../lib/gcc/powerpc-eabivle/4.9.4/../../../../powerpc-eabivle/lib/e200z2\libc.a(lib_a-reent.o)
 .bss           0x00000000        0x0 c:/users/shehan/documents/environments/spc5_env/toolchain/bin/../lib/gcc/powerpc-eabivle/4.9.4/../../../../powerpc-eabivle/lib/e200z2\libc.a(lib_a-reent.o)
 .text.cleanup_glue
                0x00000000       0x2e c:/users/shehan/documents/environments/spc5_env/toolchain/bin/../lib/gcc/powerpc-eabivle/4.9.4/../../../../powerpc-eabivle/lib/e200z2\libc.a(lib_a-reent.o)
 .text._reclaim_reent
                0x00000000       0xd0 c:/users/shehan/documents/environments/spc5_env/toolchain/bin/../lib/gcc/powerpc-eabivle/4.9.4/../../../../powerpc-eabivle/lib/e200z2\libc.a(lib_a-reent.o)
 .data          0x00000000        0x0 c:/users/shehan/documents/environments/spc5_env/toolchain/bin/../lib/gcc/powerpc-eabivle/4.9.4/e200z2\libgcc.a(e200crtresxgpr.o)
 .bss           0x00000000        0x0 c:/users/shehan/documents/environments/spc5_env/toolchain/bin/../lib/gcc/powerpc-eabivle/4.9.4/e200z2\libgcc.a(e200crtresxgpr.o)
 .eh_frame      0x00000000       0x7c c:/users/shehan/documents/environments/spc5_env/toolchain/bin/../lib/gcc/powerpc-eabivle/4.9.4/e200z2\libgcc.a(e200crtresxgpr.o)

Memory Configuration

Name             Origin             Length             Attributes
dataflash        0x00800000         0x00020000
flash            0x00fc0000         0x00100000
ram              0x400a8000         0x00018000
*default*        0x00000000         0xffffffff

Linker script and memory map

LOAD build/obj/boot.o
LOAD build/obj/crt0.o
LOAD build/obj/vectors.o
LOAD build/obj/ivor.o
LOAD build/obj/spc5_lld.o
LOAD build/obj/spc5_edma.o
LOAD build/obj/can_lld.o
LOAD build/obj/saradc_lld.o
LOAD build/obj/pal.o
LOAD build/obj/clock.o
LOAD build/obj/irq.o
LOAD build/obj/eirq.o
LOAD build/obj/swirq.o
LOAD build/obj/osal.o
LOAD build/obj/systimer.o
LOAD build/obj/can_lld_cfg.o
LOAD build/obj/saradc_lld_cfg.o
LOAD build/obj/board.o
LOAD build/obj/irq_cfg.o
LOAD build/obj/eirq_cfg.o
LOAD build/obj/swirq_cfg.o
LOAD build/obj/components.o
LOAD build/obj/main.o
LOAD c:/users/shehan/documents/environments/spc5_env/toolchain/bin/../lib/gcc/powerpc-eabivle/4.9.4/../../../../powerpc-eabivle/lib/e200z2\libm.a
LOAD c:/users/shehan/documents/environments/spc5_env/toolchain/bin/../lib/gcc/powerpc-eabivle/4.9.4/../../../../powerpc-eabivle/lib/e200z2\libc.a
                0x00000000                __irq_stack_size__ = 0x0
                0x00001000                __process_stack_size__ = 0x1000
                0x00100000                __flash_size__ = LENGTH (flash)
                0x00fc0000                __flash_start__ = ORIGIN (flash)
                0x010c0000                __flash_end__ = (ORIGIN (flash) + LENGTH (flash))
                0x00018000                __ram_size__ = LENGTH (ram)
                0x400a8000                __ram_start__ = ORIGIN (ram)
                0x400c0000                __ram_end__ = (ORIGIN (ram) + LENGTH (ram))
                0x00fc0000                . = ORIGIN (flash)

.boot0          0x00fc0000      0x1f2
 *(.boot)
 .boot          0x00fc0000      0x10a build/obj/boot.o
                0x00fc0008                _reset_address
 *(.handlers)
 *fill*         0x00fc010a        0x6 
 .handlers      0x00fc0110        0x4 build/obj/boot.o
                0x00fc0110                _IVOR1
                0x00fc0110                _IVOR11
                0x00fc0110                _IVOR15
                0x00fc0110                _IVOR0
                0x00fc0110                _IVOR14
                0x00fc0110                _unhandled_exception
                0x00fc0110                _IVOR9
                0x00fc0110                _IVOR2
                0x00fc0110                _IVOR7
                0x00fc0110                _IVOR12
                0x00fc0110                _IVOR8
                0x00fc0110                _IVOR3
                0x00fc0110                _IVOR6
                0x00fc0110                _IVOR5
                0x00fc0110                _IVOR13
                0x00fc0110                _IVOR10
 *fill*         0x00fc0114        0xc 
 .handlers      0x00fc0120       0x4a build/obj/ivor.o
                0x00fc0120                _IVOR4
 *(.crt0)
 *fill*         0x00fc016a        0x6 
 .crt0          0x00fc0170       0x82 build/obj/crt0.o
                0x00fc0170                _boot_address
                0x00fc01e8                _main_exit_handler
                0x00fc01ee                __late_init
                0x00fc01f0                __eabi

.boot1          0x00fc0200     0x1e02
                0x00fc0200                . = ALIGN (0x100)
                0x00fc0200                __ivpr_base__ = .
 *(.ivors)
 .ivors         0x00fc0200       0xf4 build/obj/boot.o
                0x00fc0200                IVORS
                0x00fc1000                . = ALIGN (0x1000)
 *fill*         0x00fc02f4      0xd0c 
 *(.vectors)
 .vectors       0x00fc1000     0x1002 build/obj/vectors.o
                0x00fc1000                _vectors
                0x00fc2000                vector723
                0x00fc2000                vector646
                0x00fc2000                vector276
                0x00fc2000                vector827
                0x00fc2000                vector403
                0x00fc2000                vector444
                0x00fc2000                vector120
                0x00fc2000                vector971
                0x00fc2000                vector198
                0x00fc2000                vector689
                0x00fc2000                vector25
                0x00fc2000                vector710
                0x00fc2000                vector548
                0x00fc2000                vector464
                0x00fc2000                vector837
                0x00fc2000                vector937
                0x00fc2000                vector83
                0x00fc2000                vector89
                0x00fc2000                vector88
                0x00fc2000                vector722
                0x00fc2000                vector769
                0x00fc2000                vector569
                0x00fc2000                vector725
                0x00fc2000                vector487
                0x00fc2000                vector50
                0x00fc2000                vector15
                0x00fc2000                vector848
                0x00fc2000                vector1017
                0x00fc2000                vector501
                0x00fc2000                vector151
                0x00fc2000                vector234
                0x00fc2000                vector604
                0x00fc2000                vector387
                0x00fc2000                vector933
                0x00fc2000                vector602
                0x00fc2000                vector232
                0x00fc2000                vector635
                0x00fc2000                vector878
                0x00fc2000                vector407
                0x00fc2000                vector149
                0x00fc2000                vector393
                0x00fc2000                vector757
                0x00fc2000                vector772
                0x00fc2000                vector729
                0x00fc2000                vector342
                0x00fc2000                vector265
                0x00fc2000                vector880
                0x00fc2000                vector106
                0x00fc2000                vector163
                0x00fc2000                vector1003
                0x00fc2000                vector759
                0x00fc2000                vector982
                0x00fc2000                vector774
                0x00fc2000                vector513
                0x00fc2000                vector90
                0x00fc2000                vector421
                0x00fc2000                vector401
                0x00fc2000                vector351
                0x00fc2000                vector481
                0x00fc2000                vector220
                0x00fc2000                vector835
                0x00fc2000                vector664
                0x00fc2000                vector294
                0x00fc2000                vector909
                0x00fc2000                vector308
                0x00fc2000                vector537
                0x00fc2000                vector187
                0x00fc2000                vector1015
                0x00fc2000                vector886
                0x00fc2000                vector225
                0x00fc2000                vector680
                0x00fc2000                vector494
                0x00fc2000                vector599
                0x00fc2000                vector424
                0x00fc2000                vector843
                0x00fc2000                vector467
                0x00fc2000                vector804
                0x00fc2000                vector370
                0x00fc2000                vector337
                0x00fc2000                vector1009
                0x00fc2000                vector814
                0x00fc2000                vector542
                0x00fc2000                vector192
                0x00fc2000                vector516
                0x00fc2000                vector551
                0x00fc2000                vector127
                0x00fc2000                vector883
                0x00fc2000                vector739
                0x00fc2000                vector302
                0x00fc2000                vector30
                0x00fc2000                vector841
                0x00fc2000                vector382
                0x00fc2000                vector556
                0x00fc2000                vector386
                0x00fc2000                vector367
                0x00fc2000                vector34
                0x00fc2000                vector46
                0x00fc2000                vector988
                0x00fc2000                vector743
                0x00fc2000                vector437
                0x00fc2000                vector268
                0x00fc2000                vector638
                0x00fc2000                vector794
                0x00fc2000                vector529
                0x00fc2000                vector179
                0x00fc2000                vector764
                0x00fc2000                vector990
                0x00fc2000                vector786
                0x00fc2000                vector1023
                0x00fc2000                vector134
                0x00fc2000                vector223
                0x00fc2000                vector218
                0x00fc2000                vector994
                0x00fc2000                vector662
                0x00fc2000                vector292
                0x00fc2000                vector325
                0x00fc2000                vector341
                0x00fc2000                vector713
                0x00fc2000                vector888
                0x00fc2000                vector881
                0x00fc2000                vector945
                0x00fc2000                vector892
                0x00fc2000                vector410
                0x00fc2000                vector322
                0x00fc2000                vector8
                0x00fc2000                vector582
                0x00fc2000                vector264
                0x00fc2000                vector916
                0x00fc2000                vector71
                0x00fc2000                vector842
                0x00fc2000                vector510
                0x00fc2000                vector634
                0x00fc2000                vector887
                0x00fc2000                vector927
                0x00fc2000                vector511
                0x00fc2000                vector161
                0x00fc2000                vector472
                0x00fc2000                vector628
                0x00fc2000                vector258
                0x00fc2000                vector160
                0x00fc2000                vector344
                0x00fc2000                vector559
                0x00fc2000                vector112
                0x00fc2000                vector727
                0x00fc2000                vector423
                0x00fc2000                vector995
                0x00fc2000                vector826
                0x00fc2000                vector490
                0x00fc2000                vector416
                0x00fc2000                vector157
                0x00fc2000                vector215
                0x00fc2000                vector352
                0x00fc2000                vector347
                0x00fc2000                vector389
                0x00fc2000                vector507
                0x00fc2000                vector908
                0x00fc2000                vector205
                0x00fc2000                vector596
                0x00fc2000                vector555
                0x00fc2000                vector681
                0x00fc2000                vector904
                0x00fc2000                vector850
                0x00fc2000                vector197
                0x00fc2000                vector547
                0x00fc2000                vector920
                0x00fc2000                vector6
                0x00fc2000                vector893
                0x00fc2000                vector553
                0x00fc2000                vector129
                0x00fc2000                vector455
                0x00fc2000                vector502
                0x00fc2000                vector152
                0x00fc2000                vector838
                0x00fc2000                vector823
                0x00fc2000                vector868
                0x00fc2000                vector37
                0x00fc2000                vector690
                0x00fc2000                vector364
                0x00fc2000                vector459
                0x00fc2000                vector339
                0x00fc2000                vector415
                0x00fc2000                vector972
                0x00fc2000                vector598
                0x00fc2000                vector600
                0x00fc2000                vector230
                0x00fc2000                vector761
                0x00fc2000                vector532
                0x00fc2000                vector182
                0x00fc2000                vector466
                0x00fc2000                vector469
                0x00fc2000                vector273
                0x00fc2000                vector523
                0x00fc2000                vector173
                0x00fc2000                vector637
                0x00fc2000                vector643
                0x00fc2000                vector78
                0x00fc2000                vector44
                0x00fc2000                vector731
                0x00fc2000                vector830
                0x00fc2000                vector991
                0x00fc2000                vector670
                0x00fc2000                vector49
                0x00fc2000                vector267
                0x00fc2000                vector117
                0x00fc2000                vector566
                0x00fc2000                vector485
                0x00fc2000                vector675
                0x00fc2000                vector704
                0x00fc2000                vector222
                0x00fc2000                vector978
                0x00fc2000                vector426
                0x00fc2000                vector379
                0x00fc2000                vector82
                0x00fc2000                vector956
                0x00fc2000                vector442
                0x00fc2000                vector911
                0x00fc2000                vector336
                0x00fc2000                vector686
                0x00fc2000                vector95
                0x00fc2000                vector943
                0x00fc2000                vector575
                0x00fc2000                vector1002
                0x00fc2000                vector109
                0x00fc2000                vector383
                0x00fc2000                vector20
                0x00fc2000                vector321
                0x00fc2000                vector712
                0x00fc2000                vector309
                0x00fc2000                vector950
                0x00fc2000                vector1000
                0x00fc2000                vector12
                0x00fc2000                vector1007
                0x00fc2000                vector719
                0x00fc2000                vector986
                0x00fc2000                vector863
                0x00fc2000                vector319
                0x00fc2000                vector776
                0x00fc2000                vector491
                0x00fc2000                vector456
                0x00fc2000                vector572
                0x00fc2000                vector818
                0x00fc2000                vector366
                0x00fc2000                vector18
                0x00fc2000                vector417
                0x00fc2000                vector907
                0x00fc2000                vector873
                0x00fc2000                vector656
                0x00fc2000                vector303
                0x00fc2000                vector286
                0x00fc2000                vector166
                0x00fc2000                vector434
                0x00fc2000                vector489
                0x00fc2000                vector931
                0x00fc2000                vector658
                0x00fc2000                vector288
                0x00fc2000                vector564
                0x00fc2000                vector861
                0x00fc2000                vector906
                0x00fc2000                vector446
                0x00fc2000                vector534
                0x00fc2000                vector184
                0x00fc2000                vector577
                0x00fc2000                vector683
                0x00fc2000                vector358
                0x00fc2000                vector326
                0x00fc2000                vector207
                0x00fc2000                vector915
                0x00fc2000                vector188
                0x00fc2000                vector585
                0x00fc2000                vector636
                0x00fc2000                vector266
                0x00fc2000                vector411
                0x00fc2000                vector538
                0x00fc2000                vector567
                0x00fc2000                vector93
                0x00fc2000                vector540
                0x00fc2000                vector190
                0x00fc2000                vector609
                0x00fc2000                vector239
                0x00fc2000                vector94
                0x00fc2000                vector360
                0x00fc2000                vector17
                0x00fc2000                vector1005
                0x00fc2000                vector116
                0x00fc2000                vector654
                0x00fc2000                vector284
                0x00fc2000                vector452
                0x00fc2000                vector831
                0x00fc2000                vector104
                0x00fc2000                vector685
                0x00fc2000                vector766
                0x00fc2000                vector633
                0x00fc2000                vector263
                0x00fc2000                vector581
                0x00fc2000                vector882
                0x00fc2000                vector782
                0x00fc2000                vector768
                0x00fc2000                vector869
                0x00fc2000                vector315
                0x00fc2000                vector976
                0x00fc2000                vector640
                0x00fc2000                vector270
                0x00fc2000                vector717
                0x00fc2000                vector755
                0x00fc2000                vector735
                0x00fc2000                vector824
                0x00fc2000                vector992
                0x00fc2000                vector699
                0x00fc2000                vector439
                0x00fc2000                vector721
                0x00fc2000                vector497
                0x00fc2000                vector692
                0x00fc2000                vector847
                0x00fc2000                vector48
                0x00fc2000                vector299
                0x00fc2000                vector926
                0x00fc2000                vector781
                0x00fc2000                vector984
                0x00fc2000                vector462
                0x00fc2000                vector669
                0x00fc2000                vector103
                0x00fc2000                vector191
                0x00fc2000                vector969
                0x00fc2000                vector146
                0x00fc2000                vector897
                0x00fc2000                vector815
                0x00fc2000                vector541
                0x00fc2000                vector586
                0x00fc2000                vector350
                0x00fc2000                vector997
                0x00fc2000                vector447
                0x00fc2000                vector11
                0x00fc2000                vector14
                0x00fc2000                vector952
                0x00fc2000                vector499
                0x00fc2000                vector480
                0x00fc2000                vector397
                0x00fc2000                vector406
                0x00fc2000                vector854
                0x00fc2000                vector941
                0x00fc2000                vector454
                0x00fc2000                vector708
                0x00fc2000                vector679
                0x00fc2000                vector338
                0x00fc2000                vector385
                0x00fc2000                vector148
                0x00fc2000                vector221
                0x00fc2000                vector912
                0x00fc2000                vector80
                0x00fc2000                vector353
                0x00fc2000                vector936
                0x00fc2000                vector219
                0x00fc2000                vector310
                0x00fc2000                vector659
                0x00fc2000                vector289
                0x00fc2000                vector663
                0x00fc2000                vector293
                0x00fc2000                vector957
                0x00fc2000                vector521
                0x00fc2000                vector171
                0x00fc2000                vector504
                0x00fc2000                vector340
                0x00fc2000                vector851
                0x00fc2000                vector449
                0x00fc2000                vector405
                0x00fc2000                vector800
                0x00fc2000                vector716
                0x00fc2000                vector849
                0x00fc2000                vector105
                0x00fc2000                vector154
                0x00fc2000                vector36
                0x00fc2000                vector894
                0x00fc2000                vector605
                0x00fc2000                vector235
                0x00fc2000                vector874
                0x00fc2000                vector272
                0x00fc2000                vector879
                0x00fc2000                vector914
                0x00fc2000                vector563
                0x00fc2000                vector902
                0x00fc2000                vector949
                0x00fc2000                vector1012
                0x00fc2000                vector973
                0x00fc2000                vector164
                0x00fc2000                vector987
                0x00fc2000                vector139
                0x00fc2000                vector503
                0x00fc2000                vector153
                0x00fc2000                vector514
                0x00fc2000                vector121
                0x00fc2000                vector867
                0x00fc2000                vector754
                0x00fc2000                vector619
                0x00fc2000                vector249
                0x00fc2000                vector938
                0x00fc2000                vector836
                0x00fc2000                vector318
                0x00fc2000                vector822
                0x00fc2000                vector155
                0x00fc2000                vector505
                0x00fc2000                vector5
                0x00fc2000                vector320
                0x00fc2000                vector517
                0x00fc2000                vector167
                0x00fc2000                vector944
                0x00fc2000                vector684
                0x00fc2000                vector959
                0x00fc2000                vector150
                0x00fc2000                vector304
                0x00fc2000                vector618
                0x00fc2000                vector248
                0x00fc2000                vector479
                0x00fc2000                vector500
                0x00fc2000                vector587
                0x00fc2000                vector195
                0x00fc2000                vector594
                0x00fc2000                vector590
                0x00fc2000                vector76
                0x00fc2000                vector75
                0x00fc2000                vector545
                0x00fc2000                vector343
                0x00fc2000                vector123
                0x00fc2000                vector865
                0x00fc2000                vector939
                0x00fc2000                vector31
                0x00fc2000                vector388
                0x00fc2000                vector799
                0x00fc2000                vector203
                0x00fc2000                vector820
                0x00fc2000                vector271
                0x00fc2000                vector641
                0x00fc2000                vector96
                0x00fc2000                vector665
                0x00fc2000                vector295
                0x00fc2000                vector427
                0x00fc2000                vector891
                0x00fc2000                vector365
                0x00fc2000                vector620
                0x00fc2000                vector250
                0x00fc2000                vector785
                0x00fc2000                vector471
                0x00fc2000                vector28
                0x00fc2000                vector703
                0x00fc2000                vector550
                0x00fc2000                vector910
                0x00fc2000                vector126
                0x00fc2000                vector934
                0x00fc2000                vector323
                0x00fc2000                vector744
                0x00fc2000                vector955
                0x00fc2000                vector368
                0x00fc2000                vector72
                0x00fc2000                vector519
                0x00fc2000                vector169
                0x00fc2000                vector809
                0x00fc2000                vector866
                0x00fc2000                vector821
                0x00fc2000                vector457
                0x00fc2000                vector147
                0x00fc2000                vector642
                0x00fc2000                vector413
                0x00fc2000                vector780
                0x00fc2000                vector742
                0x00fc2000                vector392
                0x00fc2000                vector474
                0x00fc2000                vector603
                0x00fc2000                vector233
                0x00fc2000                vector593
                0x00fc2000                vector202
                0x00fc2000                vector373
                0x00fc2000                vector441
                0x00fc2000                vector756
                0x00fc2000                vector787
                0x00fc2000                vector749
                0x00fc2000                vector966
                0x00fc2000                vector698
                0x00fc2000                vector204
                0x00fc2000                vector726
                0x00fc2000                vector591
                0x00fc2000                vector124
                0x00fc2000                vector110
                0x00fc2000                vector653
                0x00fc2000                vector283
                0x00fc2000                vector484
                0x00fc2000                vector630
                0x00fc2000                vector260
                0x00fc2000                vector298
                0x00fc2000                vector657
                0x00fc2000                vector287
                0x00fc2000                vector22
                0x00fc2000                vector1019
                0x00fc2000                vector668
                0x00fc2000                vector247
                0x00fc2000                vector617
                0x00fc2000                vector137
                0x00fc2000                vector979
                0x00fc2000                vector330
                0x00fc2000                vector561
                0x00fc2000                vector923
                0x00fc2000                vector279
                0x00fc2000                vector649
                0x00fc2000                vector277
                0x00fc2000                vector69
                0x00fc2000                vector607
                0x00fc2000                vector237
                0x00fc2000                vector27
                0x00fc2000                vector647
                0x00fc2000                vector579
                0x00fc2000                vector477
                0x00fc2000                vector425
                0x00fc2000                vector118
                0x00fc2000                vector328
                0x00fc2000                vector918
                0x00fc2000                vector70
                0x00fc2000                vector468
                0x00fc2000                vector701
                0x00fc2000                vector312
                0x00fc2000                vector217
                0x00fc2000                vector355
                0x00fc2000                vector661
                0x00fc2000                vector291
                0x00fc2000                vector970
                0x00fc2000                vector1013
                0x00fc2000                vector186
                0x00fc2000                vector536
                0x00fc2000                vector132
                0x00fc2000                vector372
                0x00fc2000                vector583
                0x00fc2000                vector807
                0x00fc2000                vector390
                0x00fc2000                vector177
                0x00fc2000                vector527
                0x00fc2000                vector316
                0x00fc2000                vector905
                0x00fc2000                vector375
                0x00fc2000                vector1022
                0x00fc2000                vector335
                0x00fc2000                vector671
                0x00fc2000                vector210
                0x00fc2000                vector983
                0x00fc2000                vector269
                0x00fc2000                vector332
                0x00fc2000                vector227
                0x00fc2000                vector834
                0x00fc2000                vector363
                0x00fc2000                vector307
                0x00fc2000                vector1011
                0x00fc2000                vector224
                0x00fc2000                vector432
                0x00fc2000                vector1018
                0x00fc2000                vector728
                0x00fc2000                vector21
                0x00fc2000                vector803
                0x00fc2000                vector872
                0x00fc2000                vector41
                0x00fc2000                vector378
                0x00fc2000                vector790
                0x00fc2000                vector381
                0x00fc2000                vector346
                0x00fc2000                vector940
                0x00fc2000                vector738
                0x00fc2000                vector998
                0x00fc2000                vector436
                0x00fc2000                vector650
                0x00fc2000                vector924
                0x00fc2000                vector993
                0x00fc2000                vector613
                0x00fc2000                vector492
                0x00fc2000                vector495
                0x00fc2000                vector174
                0x00fc2000                vector524
                0x00fc2000                vector450
                0x00fc2000                vector362
                0x00fc2000                vector101
                0x00fc2000                vector211
                0x00fc2000                vector418
                0x00fc2000                vector889
                0x00fc2000                vector128
                0x00fc2000                vector753
                0x00fc2000                vector844
                0x00fc2000                vector16
                0x00fc2000                vector960
                0x00fc2000                vector714
                0x00fc2000                vector595
                0x00fc2000                vector946
                0x00fc2000                vector51
                0x00fc2000                vector460
                0x00fc2000                vector13
                0x00fc2000                vector81
                0x00fc2000                vector552
                0x00fc2000                vector765
                0x00fc2000                vector1008
                0x00fc2000                vector677
                0x00fc2000                vector798
                0x00fc2000                vector300
                0x00fc2000                vector282
                0x00fc2000                vector608
                0x00fc2000                vector238
                0x00fc2000                vector557
                0x00fc2000                vector697
                0x00fc2000                vector652
                0x00fc2000                vector953
                0x00fc2000                vector38
                0x00fc2000                vector280
                0x00fc2000                vector980
                0x00fc2000                vector1
                0x00fc2000                vector528
                0x00fc2000                vector178
                0x00fc2000                vector311
                0x00fc2000                vector133
                0x00fc2000                vector73
                0x00fc2000                vector354
                0x00fc2000                vector624
                0x00fc2000                vector254
                0x00fc2000                vector763
                0x00fc2000                vector1001
                0x00fc2000                vector349
                0x00fc2000                vector929
                0x00fc2000                vector687
                0x00fc2000                vector144
                0x00fc2000                vector644
                0x00fc2000                vector274
                0x00fc2000                vector737
                0x00fc2000                vector967
                0x00fc2000                vector639
                0x00fc2000                vector568
                0x00fc2000                vector515
                0x00fc2000                vector165
                0x00fc2000                vector571
                0x00fc2000                vector535
                0x00fc2000                vector185
                0x00fc2000                vector496
                0x00fc2000                vector435
                0x00fc2000                vector750
                0x00fc2000                vector493
                0x00fc2000                vector43
                0x00fc2000                vector682
                0x00fc2000                vector451
                0x00fc2000                vector900
                0x00fc2000                vector760
                0x00fc2000                vector942
                0x00fc2000                vector748
                0x00fc2000                vector676
                0x00fc2000                vector709
                0x00fc2000                vector398
                0x00fc2000                vector430
                0x00fc2000                vector506
                0x00fc2000                vector412
                0x00fc2000                vector376
                0x00fc2000                vector122
                0x00fc2000                vector580
                0x00fc2000                vector333
                0x00fc2000                vector817
                0x00fc2000                vector115
                0x00fc2000                vector578
                0x00fc2000                vector947
                0x00fc2000                vector108
                0x00fc2000                vector626
                0x00fc2000                vector256
                0x00fc2000                vector621
                0x00fc2000                vector251
                0x00fc2000                vector429
                0x00fc2000                vector720
                0x00fc2000                vector86
                0x00fc2000                vector87
                0x00fc2000                vector767
                0x00fc2000                vector612
                0x00fc2000                vector242
                0x00fc2000                vector119
                0x00fc2000                vector829
                0x00fc2000                _unhandled_irq
                0x00fc2000                vector584
                0x00fc2000                vector345
                0x00fc2000                vector666
                0x00fc2000                vector296
                0x00fc2000                vector715
                0x00fc2000                vector213
                0x00fc2000                vector985
                0x00fc2000                vector419
                0x00fc2000                vector162
                0x00fc2000                vector512
                0x00fc2000                vector718
                0x00fc2000                vector762
                0x00fc2000                vector795
                0x00fc2000                vector91
                0x00fc2000                vector33
                0x00fc2000                vector156
                0x00fc2000                vector975
                0x00fc2000                vector615
                0x00fc2000                vector348
                0x00fc2000                vector141
                0x00fc2000                vector812
                0x00fc2000                vector859
                0x00fc2000                vector961
                0x00fc2000                vector404
                0x00fc2000                vector954
                0x00fc2000                vector770
                0x00fc2000                vector819
                0x00fc2000                vector783
                0x00fc2000                vector214
                0x00fc2000                vector870
                0x00fc2000                vector99
                0x00fc2000                vector740
                0x00fc2000                vector919
                0x00fc2000                vector522
                0x00fc2000                vector3
                0x00fc2000                vector2
                0x00fc2000                vector359
                0x00fc2000                vector833
                0x00fc2000                vector565
                0x00fc2000                vector253
                0x00fc2000                vector623
                0x00fc2000                vector876
                0x00fc2000                vector172
                0x00fc2000                vector877
                0x00fc2000                vector461
                0x00fc2000                vector611
                0x00fc2000                vector241
                0x00fc2000                vector999
                0x00fc2000                vector257
                0x00fc2000                vector431
                0x00fc2000                vector380
                0x00fc2000                vector862
                0x00fc2000                vector24
                0x00fc2000                vector111
                0x00fc2000                vector802
                0x00fc2000                vector7
                0x00fc2000                vector189
                0x00fc2000                vector816
                0x00fc2000                vector306
                0x00fc2000                vector1014
                0x00fc2000                vector539
                0x00fc2000                vector475
                0x00fc2000                vector711
                0x00fc2000                vector930
                0x00fc2000                vector200
                0x00fc2000                vector773
                0x00fc2000                vector138
                0x00fc2000                vector864
                0x00fc2000                vector74
                0x00fc2000                vector627
                0x00fc2000                vector562
                0x00fc2000                vector974
                0x00fc2000                vector928
                0x00fc2000                vector655
                0x00fc2000                vector285
                0x00fc2000                vector414
                0x00fc2000                vector476
                0x00fc2000                vector736
                0x00fc2000                vector839
                0x00fc2000                vector989
                0x00fc2000                vector384
                0x00fc2000                vector734
                0x00fc2000                vector601
                0x00fc2000                vector231
                0x00fc2000                vector968
                0x00fc2000                vector278
                0x00fc2000                vector648
                0x00fc2000                vector1020
                0x00fc2000                vector932
                0x00fc2000                vector329
                0x00fc2000                vector747
                0x00fc2000                vector606
                0x00fc2000                vector236
                0x00fc2000                vector29
                0x00fc2000                vector135
                0x00fc2000                vector796
                0x00fc2000                vector463
                0x00fc2000                vector180
                0x00fc2000                vector632
                0x00fc2000                vector262
                0x00fc2000                vector996
                0x00fc2000                vector530
                0x00fc2000                vector408
                0x00fc2000                vector77
                0x00fc2000                vector420
                0x00fc2000                vector314
                0x00fc2000                vector771
                0x00fc2000                vector357
                0x00fc2000                vector925
                0x00fc2000                vector488
                0x00fc2000                vector779
                0x00fc2000                vector962
                0x00fc2000                vector903
                0x00fc2000                vector554
                0x00fc2000                vector327
                0x00fc2000                vector374
                0x00fc2000                vector811
                0x00fc2000                vector100
                0x00fc2000                vector394
                0x00fc2000                vector331
                0x00fc2000                vector9
                0x00fc2000                vector860
                0x00fc2000                vector142
                0x00fc2000                vector458
                0x00fc2000                vector201
                0x00fc2000                vector745
                0x00fc2000                vector935
                0x00fc2000                vector470
                0x00fc2000                vector758
                0x00fc2000                vector977
                0x00fc2000                vector473
                0x00fc2000                vector23
                0x00fc2000                vector678
                0x00fc2000                vector445
                0x00fc2000                vector261
                0x00fc2000                vector792
                0x00fc2000                vector597
                0x00fc2000                vector361
                0x00fc2000                vector845
                0x00fc2000                vector631
                0x00fc2000                vector751
                0x00fc2000                vector208
                0x00fc2000                vector482
                0x00fc2000                vector696
                0x00fc2000                vector443
                0x00fc2000                vector145
                0x00fc2000                vector777
                0x00fc2000                vector964
                0x00fc2000                vector853
                0x00fc2000                vector422
                0x00fc2000                vector570
                0x00fc2000                vector896
                0x00fc2000                vector651
                0x00fc2000                vector281
                0x00fc2000                vector805
                0x00fc2000                vector1021
                0x00fc2000                vector107
                0x00fc2000                vector40
                0x00fc2000                vector732
                0x00fc2000                vector1010
                0x00fc2000                vector724
                0x00fc2000                vector746
                0x00fc2000                vector855
                0x00fc2000                vector963
                0x00fc2000                vector921
                0x00fc2000                vector700
                0x00fc2000                vector102
                0x00fc2000                vector486
                0x00fc2000                vector465
                0x00fc2000                vector898
                0x00fc2000                vector789
                0x00fc2000                vector301
                0x00fc2000                vector730
                0x00fc2000                vector297
                0x00fc2000                vector526
                0x00fc2000                vector176
                0x00fc2000                vector857
                0x00fc2000                vector544
                0x00fc2000                vector194
                0x00fc2000                vector396
                0x00fc2000                vector97
                0x00fc2000                vector98
                0x00fc2000                vector438
                0x00fc2000                vector573
                0x00fc2000                vector707
                0x00fc2000                vector784
                0x00fc2000                vector402
                0x00fc2000                vector32
                0x00fc2000                vector693
                0x00fc2000                vector951
                0x00fc2000                vector622
                0x00fc2000                vector252
                0x00fc2000                vector0
                0x00fc2000                vector828
                0x00fc2000                vector667
                0x00fc2000                vector775
                0x00fc2000                vector131
                0x00fc2000                vector589
                0x00fc2000                vector810
                0x00fc2000                vector549
                0x00fc2000                vector199
                0x00fc2000                vector741
                0x00fc2000                vector448
                0x00fc2000                vector705
                0x00fc2000                vector858
                0x00fc2000                vector409
                0x00fc2000                vector688
                0x00fc2000                vector313
                0x00fc2000                vector895
                0x00fc2000                vector483
                0x00fc2000                vector840
                0x00fc2000                vector440
                0x00fc2000                vector793
                0x00fc2000                vector885
                0x00fc2000                vector125
                0x00fc2000                vector1016
                0x00fc2000                vector645
                0x00fc2000                vector275
                0x00fc2000                vector813
                0x00fc2000                vector702
                0x00fc2000                vector391
                0x00fc2000                vector196
                0x00fc2000                vector588
                0x00fc2000                vector660
                0x00fc2000                vector290
                0x00fc2000                vector629
                0x00fc2000                vector546
                0x00fc2000                vector193
                0x00fc2000                vector875
                0x00fc2000                vector324
                0x00fc2000                vector981
                0x00fc2000                vector356
                0x00fc2000                vector216
                0x00fc2000                vector26
                0x00fc2000                vector113
                0x00fc2000                vector35
                0x00fc2000                vector733
                0x00fc2000                vector778
                0x00fc2000                vector614
                0x00fc2000                vector1006
                0x00fc2000                vector140
                0x00fc2000                vector92
                0x00fc2000                vector305
                0x00fc2000                vector846
                0x00fc2000                vector610
                0x00fc2000                vector240
                0x00fc2000                vector791
                0x00fc2000                vector19
                0x00fc2000                vector453
                0x00fc2000                vector498
                0x00fc2000                vector806
                0x00fc2000                vector797
                0x00fc2000                vector39
                0x00fc2000                vector518
                0x00fc2000                vector168
                0x00fc2000                vector592
                0x00fc2000                vector871
                0x00fc2000                vector428
                0x00fc2000                vector673
                0x00fc2000                vector752
                0x00fc2000                vector45
                0x00fc2000                vector79
                0x00fc2000                vector229
                0x00fc2000                vector508
                0x00fc2000                vector158
                0x00fc2000                vector259
                0x00fc2000                vector209
                0x00fc2000                vector369
                0x00fc2000                vector856
                0x00fc2000                vector672
                0x00fc2000                vector576
                0x00fc2000                vector899
                0x00fc2000                vector47
                0x00fc2000                vector212
                0x00fc2000                vector159
                0x00fc2000                vector509
                0x00fc2000                vector558
                0x00fc2000                vector574
                0x00fc2000                vector825
                0x00fc2000                vector533
                0x00fc2000                vector183
                0x00fc2000                vector948
                0x00fc2000                vector228
                0x00fc2000                vector42
                0x00fc2000                vector958
                0x00fc2000                vector377
                0x00fc2000                vector130
                0x00fc2000                vector788
                0x00fc2000                vector616
                0x00fc2000                vector913
                0x00fc2000                vector143
                0x00fc2000                vector175
                0x00fc2000                vector334
                0x00fc2000                vector114
                0x00fc2000                vector901
                0x00fc2000                vector674
                0x00fc2000                vector525
                0x00fc2000                vector84
                0x00fc2000                vector85
                0x00fc2000                vector399
                0x00fc2000                vector1004
                0x00fc2000                vector832
                0x00fc2000                vector395
                0x00fc2000                vector520
                0x00fc2000                vector706
                0x00fc2000                vector4
                0x00fc2000                vector691
                0x00fc2000                vector433
                0x00fc2000                vector917
                0x00fc2000                vector852
                0x00fc2000                vector478
                0x00fc2000                vector965
                0x00fc2000                vector170
                0x00fc2000                vector136
                0x00fc2000                vector10
                0x00fc2000                vector371
                0x00fc2000                vector531
                0x00fc2000                vector181
                0x00fc2000                vector890
                0x00fc2000                vector801
                0x00fc2000                vector317
                0x00fc2000                vector400
                0x00fc2000                vector255
                0x00fc2000                vector808
                0x00fc2000                vector206
                0x00fc2000                vector560
                0x00fc2000                vector922
                0x00fc2000                vector625
                0x00fc2000                vector884

constructors    0x00fc2004        0x0
                [!provide]                PROVIDE (__init_array_start, .)
 *(SORT(.init_array.*))
 *(.init_array)
                [!provide]                PROVIDE (__init_array_end, .)

destructors     0x00fc2004        0x0
                [!provide]                PROVIDE (__fini_array_start, .)
 *(.fini_array)
 *(SORT(.fini_array.*))
                [!provide]                PROVIDE (__fini_array_end, .)

.text_vle
 *(.text_vle)
 *(.text_vle.*)
 *(.gnu.linkonce.t_vle.*)

.text           0x00fc2010     0x9858
 *(.text)
 .text          0x00fc2010       0x44 c:/users/shehan/documents/environments/spc5_env/toolchain/bin/../lib/gcc/powerpc-eabivle/4.9.4/e200z2\libgcc.a(_fixunssfsi.o)
                0x00fc2010                __fixunssfsi
 *fill*         0x00fc2054        0xc 
 .text          0x00fc2060      0x242 c:/users/shehan/documents/environments/spc5_env/toolchain/bin/../lib/gcc/powerpc-eabivle/4.9.4/e200z2\libgcc.a(_addsub_sf.o)
                0x00fc2204                __addsf3
                0x00fc2250                __subsf3
 *fill*         0x00fc22a2        0xe 
 .text          0x00fc22b0      0x17e c:/users/shehan/documents/environments/spc5_env/toolchain/bin/../lib/gcc/powerpc-eabivle/4.9.4/e200z2\libgcc.a(_mul_sf.o)
                0x00fc22b0                __mulsf3
 *fill*         0x00fc242e        0x2 
 .text          0x00fc2430       0xfc c:/users/shehan/documents/environments/spc5_env/toolchain/bin/../lib/gcc/powerpc-eabivle/4.9.4/e200z2\libgcc.a(_div_sf.o)
                0x00fc2430                __divsf3
 *fill*         0x00fc252c        0x4 
 .text          0x00fc2530       0x5a c:/users/shehan/documents/environments/spc5_env/toolchain/bin/../lib/gcc/powerpc-eabivle/4.9.4/e200z2\libgcc.a(_ge_sf.o)
                0x00fc2530                __gesf2
 *fill*         0x00fc258a        0x6 
 .text          0x00fc2590       0x5a c:/users/shehan/documents/environments/spc5_env/toolchain/bin/../lib/gcc/powerpc-eabivle/4.9.4/e200z2\libgcc.a(_le_sf.o)
                0x00fc2590                __lesf2
 *fill*         0x00fc25ea        0x6 
 .text          0x00fc25f0       0x88 c:/users/shehan/documents/environments/spc5_env/toolchain/bin/../lib/gcc/powerpc-eabivle/4.9.4/e200z2\libgcc.a(_sf_to_si.o)
                0x00fc25f0                __fixsfsi
 *fill*         0x00fc2678        0x8 
 .text          0x00fc2680     0x2794 c:/users/shehan/documents/environments/spc5_env/toolchain/bin/../lib/gcc/powerpc-eabivle/4.9.4/e200z2\libgcc.a(unwind-dw2.o)
                0x00fc4538                _Unwind_GetGR
                0x00fc4598                _Unwind_GetCFA
                0x00fc45a0                _Unwind_SetGR
                0x00fc4614                _Unwind_GetIP
                0x00fc461c                _Unwind_GetIPInfo
                0x00fc462c                _Unwind_SetIP
                0x00fc4634                _Unwind_GetLanguageSpecificData
                0x00fc463c                _Unwind_GetRegionStart
                0x00fc4644                _Unwind_FindEnclosingFunction
                0x00fc4668                _Unwind_GetDataRelBase
                0x00fc4670                _Unwind_GetTextRelBase
                0x00fc4678                __frame_state_for
                0x00fc475c                _Unwind_RaiseException
                0x00fc4910                _Unwind_ForcedUnwind
                0x00fc4a50                _Unwind_Resume
                0x00fc4b94                _Unwind_Resume_or_Rethrow
                0x00fc4cdc                _Unwind_DeleteException
                0x00fc4cf0                _Unwind_Backtrace
 *fill*         0x00fc4e14        0xc 
 .text          0x00fc4e20     0x111a c:/users/shehan/documents/environments/spc5_env/toolchain/bin/../lib/gcc/powerpc-eabivle/4.9.4/e200z2\libgcc.a(unwind-dw2-fde.o)
                0x00fc5bfc                __register_frame_info_bases
                0x00fc5c2c                __register_frame_info
                0x00fc5c60                __register_frame
                0x00fc5ca4                __register_frame_info_table_bases
                0x00fc5cc4                __register_frame_info_table
                0x00fc5ce8                __register_frame_table
                0x00fc5d24                __deregister_frame_info_bases
                0x00fc5df8                __deregister_frame_info
                0x00fc5dfc                __deregister_frame
                0x00fc5e24                _Unwind_Find_FDE
 *fill*         0x00fc5f3a        0x6 
 .text          0x00fc5f40      0x118 c:/users/shehan/documents/environments/spc5_env/toolchain/bin/../lib/gcc/powerpc-eabivle/4.9.4/e200z2\libgcc.a(_pack_sf.o)
                0x00fc5f40                __pack_f
 *fill*         0x00fc6058        0x8 
 .text          0x00fc6060       0x80 c:/users/shehan/documents/environments/spc5_env/toolchain/bin/../lib/gcc/powerpc-eabivle/4.9.4/e200z2\libgcc.a(_unpack_sf.o)
                0x00fc6060                __unpack_f
 .text          0x00fc60e0       0xa2 c:/users/shehan/documents/environments/spc5_env/toolchain/bin/../lib/gcc/powerpc-eabivle/4.9.4/e200z2\libgcc.a(_fpcmp_parts_sf.o)
                0x00fc60e0                __fpcmp_parts_f
 *fill*         0x00fc6182        0xe 
 .text          0x00fc6190       0x52 c:/users/shehan/documents/environments/spc5_env/toolchain/bin/../lib/gcc/powerpc-eabivle/4.9.4/e200z2\libgcc.a(e200crtresxgpr.o)
                0x00fc6190                _restgpr_14_x
                0x00fc6194                _restgpr_15_x
                0x00fc6198                _restgpr_16_x
                0x00fc619c                _restgpr_17_x
                0x00fc61a0                _restgpr_18_x
                0x00fc61a4                _restgpr_19_x
                0x00fc61a8                _restgpr_20_x
                0x00fc61ac                _restgpr_21_x
                0x00fc61b0                _restgpr_22_x
                0x00fc61b4                _restgpr_23_x
                0x00fc61b8                _restgpr_24_x
                0x00fc61bc                _restgpr_25_x
                0x00fc61c0                _restgpr_26_x
                0x00fc61c4                _restgpr_27_x
                0x00fc61c8                _restgpr_28_x
                0x00fc61cc                _restgpr_29_x
                0x00fc61d0                _restgpr_30_x
                0x00fc61d4                _restgpr_31_x
 *(.text.*)
 *fill*         0x00fc61e2        0xe 
 .text.spc5LLDInit
                0x00fc61f0       0x1a build/obj/spc5_lld.o
                0x00fc61f0                spc5LLDInit
 *fill*         0x00fc620a        0x6 
 .text.vector52
                0x00fc6210       0x6c build/obj/spc5_edma.o
                0x00fc6210                vector52
 *fill*         0x00fc627c        0x4 
 .text.vector53
                0x00fc6280       0x5c build/obj/spc5_edma.o
                0x00fc6280                vector53
 *fill*         0x00fc62dc        0x4 
 .text.vector54
                0x00fc62e0       0x5c build/obj/spc5_edma.o
                0x00fc62e0                vector54
 *fill*         0x00fc633c        0x4 
 .text.vector55
                0x00fc6340       0x5c build/obj/spc5_edma.o
                0x00fc6340                vector55
 *fill*         0x00fc639c        0x4 
 .text.vector56
                0x00fc63a0       0x5c build/obj/spc5_edma.o
                0x00fc63a0                vector56
 *fill*         0x00fc63fc        0x4 
 .text.vector57
                0x00fc6400       0x5c build/obj/spc5_edma.o
                0x00fc6400                vector57
 *fill*         0x00fc645c        0x4 
 .text.vector58
                0x00fc6460       0x5c build/obj/spc5_edma.o
                0x00fc6460                vector58
 *fill*         0x00fc64bc        0x4 
 .text.vector59
                0x00fc64c0       0x5c build/obj/spc5_edma.o
                0x00fc64c0                vector59
 *fill*         0x00fc651c        0x4 
 .text.vector60
                0x00fc6520       0x5c build/obj/spc5_edma.o
                0x00fc6520                vector60
 *fill*         0x00fc657c        0x4 
 .text.vector61
                0x00fc6580       0x5c build/obj/spc5_edma.o
                0x00fc6580                vector61
 *fill*         0x00fc65dc        0x4 
 .text.vector62
                0x00fc65e0       0x5c build/obj/spc5_edma.o
                0x00fc65e0                vector62
 *fill*         0x00fc663c        0x4 
 .text.vector63
                0x00fc6640       0x5c build/obj/spc5_edma.o
                0x00fc6640                vector63
 *fill*         0x00fc669c        0x4 
 .text.vector64
                0x00fc66a0       0x5c build/obj/spc5_edma.o
                0x00fc66a0                vector64
 *fill*         0x00fc66fc        0x4 
 .text.vector65
                0x00fc6700       0x5c build/obj/spc5_edma.o
                0x00fc6700                vector65
 *fill*         0x00fc675c        0x4 
 .text.vector66
                0x00fc6760       0x5c build/obj/spc5_edma.o
                0x00fc6760                vector66
 *fill*         0x00fc67bc        0x4 
 .text.vector67
                0x00fc67c0       0x5c build/obj/spc5_edma.o
                0x00fc67c0                vector67
 *fill*         0x00fc681c        0x4 
 .text.vector68
                0x00fc6820       0x5c build/obj/spc5_edma.o
                0x00fc6820                vector68
 *fill*         0x00fc687c        0x4 
 .text.edmaInit
                0x00fc6880       0x56 build/obj/spc5_edma.o
                0x00fc6880                edmaInit
 *fill*         0x00fc68d6        0xa 
 .text.can_lld_getframesize
                0x00fc68e0       0x3e build/obj/can_lld.o
                0x00fc68e0                can_lld_getframesize
 *fill*         0x00fc691e        0x2 
 .text.can_lld_readBuffer
                0x00fc6920      0x12a build/obj/can_lld.o
                0x00fc6920                can_lld_readBuffer
 *fill*         0x00fc6a4a        0x6 
 .text.can_lld_getDLC
                0x00fc6a50       0x48 build/obj/can_lld.o
                0x00fc6a50                can_lld_getDLC
 *fill*         0x00fc6a98        0x8 
 .text.can_lld_writeTxBuffer
                0x00fc6aa0      0x108 build/obj/can_lld.o
                0x00fc6aa0                can_lld_writeTxBuffer
 *fill*         0x00fc6ba8        0x8 
 .text.vector694
                0x00fc6bb0      0x4e6 build/obj/can_lld.o
                0x00fc6bb0                vector694
 *fill*         0x00fc7096        0xa 
 .text.vector695
                0x00fc70a0      0x4a4 build/obj/can_lld.o
                0x00fc70a0                vector695
 *fill*         0x00fc7544        0xc 
 .text.can_lld_init
                0x00fc7550       0x5e build/obj/can_lld.o
                0x00fc7550                can_lld_init
 *fill*         0x00fc75ae        0x2 
 .text.can_lld_start
                0x00fc75b0      0x720 build/obj/can_lld.o
                0x00fc75b0                can_lld_start
 .text.can_lld_transmit
                0x00fc7cd0      0x120 build/obj/can_lld.o
                0x00fc7cd0                can_lld_transmit
 .text.vector543
                0x00fc7df0      0x116 build/obj/saradc_lld.o
                0x00fc7df0                vector543
 *fill*         0x00fc7f06        0xa 
 .text.saradc_lld_init
                0x00fc7f10       0x2a build/obj/saradc_lld.o
                0x00fc7f10                saradc_lld_init
 *fill*         0x00fc7f3a        0x6 
 .text.saradc_lld_start
                0x00fc7f40      0x3be build/obj/saradc_lld.o
                0x00fc7f40                saradc_lld_start
 *fill*         0x00fc82fe        0x2 
 .text.saradc_lld_start_conversion
                0x00fc8300        0xe build/obj/saradc_lld.o
                0x00fc8300                saradc_lld_start_conversion
 *fill*         0x00fc830e        0x2 
 .text.saradc_lld_readchannel
                0x00fc8310       0x3a build/obj/saradc_lld.o
                0x00fc8310                saradc_lld_readchannel
 *fill*         0x00fc834a        0x6 
 .text.pal_init
                0x00fc8350      0x104 build/obj/pal.o
                0x00fc8350                pal_init
 *fill*         0x00fc8454        0xc 
 .text.clockInit
                0x00fc8460       0x32 build/obj/clock.o
                0x00fc8460                clockInit
 *fill*         0x00fc8492        0xe 
 .text.spc_clock_init
                0x00fc84a0      0x304 build/obj/clock.o
                0x00fc84a0                spc_clock_init
 *fill*         0x00fc87a4        0xc 
 .text.__early_init
                0x00fc87b0        0x4 build/obj/clock.o
                0x00fc87b0                __early_init
 *fill*         0x00fc87b4        0xc 
 .text.SPCSetPeripheralClockMode
                0x00fc87c0       0x40 build/obj/clock.o
                0x00fc87c0                SPCSetPeripheralClockMode
 .text.irqInit  0x00fc8800       0x2a build/obj/irq.o
                0x00fc8800                irqInit
 *fill*         0x00fc882a        0x6 
 .text.irqSysHalt
                0x00fc8830        0x8 build/obj/irq.o
                0x00fc8830                irqSysHalt
 *fill*         0x00fc8838        0x8 
 .text.vector243
                0x00fc8840       0xa6 build/obj/eirq.o
                0x00fc8840                vector243
 *fill*         0x00fc88e6        0xa 
 .text.vector244
                0x00fc88f0       0xa6 build/obj/eirq.o
                0x00fc88f0                vector244
 *fill*         0x00fc8996        0xa 
 .text.vector245
                0x00fc89a0       0xa6 build/obj/eirq.o
                0x00fc89a0                vector245
 *fill*         0x00fc8a46        0xa 
 .text.vector246
                0x00fc8a50       0xa6 build/obj/eirq.o
                0x00fc8a50                vector246
 *fill*         0x00fc8af6        0xa 
 .text.eirqInit
                0x00fc8b00       0xf4 build/obj/eirq.o
                0x00fc8b00                eirqInit
 *fill*         0x00fc8bf4        0xc 
 .text.osalSysTimeDelayTicks
                0x00fc8c00       0x18 build/obj/osal.o
 *fill*         0x00fc8c18        0x8 
 .text.osalSysTimeGetTicks
                0x00fc8c20        0xa build/obj/osal.o
 *fill*         0x00fc8c2a        0x6 
 .text.osalIsrEnable
                0x00fc8c30       0x2a build/obj/osal.o
 *fill*         0x00fc8c5a        0x6 
 .text.osalIsrDisable
                0x00fc8c60       0x32 build/obj/osal.o
 *fill*         0x00fc8c92        0xe 
 .text.vector226
                0x00fc8ca0       0x12 build/obj/osal.o
                0x00fc8ca0                vector226
 *fill*         0x00fc8cb2        0xe 
 .text.osalThreadDelayMicroseconds
                0x00fc8cc0       0x34 build/obj/osal.o
                0x00fc8cc0                osalThreadDelayMicroseconds
 *fill*         0x00fc8cf4        0xc 
 .text.osalThreadGetMilliseconds
                0x00fc8d00       0x2c build/obj/osal.o
                0x00fc8d00                osalThreadGetMilliseconds
 *fill*         0x00fc8d2c        0x4 
 .text.osalThreadGetMicroseconds
                0x00fc8d30       0x32 build/obj/osal.o
                0x00fc8d30                osalThreadGetMicroseconds
 *fill*         0x00fc8d62        0xe 
 .text.osalInit
                0x00fc8d70       0x6c build/obj/osal.o
                0x00fc8d70                osalInit
 *fill*         0x00fc8ddc        0x4 
 .text.sysTimeSetup
                0x00fc8de0       0x58 build/obj/systimer.o
                0x00fc8de0                sysTimeSetup
 *fill*         0x00fc8e38        0x8 
 .text.sysTimeReset
                0x00fc8e40       0x18 build/obj/systimer.o
                0x00fc8e40                sysTimeReset
 *fill*         0x00fc8e58        0x8 
 .text.boardInit
                0x00fc8e60        0xc build/obj/board.o
                0x00fc8e60                boardInit
 *fill*         0x00fc8e6c        0x4 
 .text.irq_cfg_init
                0x00fc8e70        0x2 build/obj/irq_cfg.o
                0x00fc8e70                irq_cfg_init
 *fill*         0x00fc8e72        0xe 
 .text.componentsInit
                0x00fc8e80       0x26 build/obj/components.o
                0x00fc8e80                componentsInit
 *fill*         0x00fc8ea6        0xa 
 .text._ZN16momentary_Device14control_signalEb
                0x00fc8eb0        0x6 build/obj/main.o
                0x00fc8eb0                momentary_Device::control_signal(bool)
 *fill*         0x00fc8eb6        0xa 
 .text._ZN12latch_Device14control_signalEb
                0x00fc8ec0       0x14 build/obj/main.o
                0x00fc8ec0                latch_Device::control_signal(bool)
 *fill*         0x00fc8ed4        0xc 
 .text._ZN13toggle_Device14control_signalEb
                0x00fc8ee0       0x14 build/obj/main.o
                0x00fc8ee0                toggle_Device::control_signal(bool)
 *fill*         0x00fc8ef4        0xc 
 .text._ZN17TurnSignal_Module8activateEv
                0x00fc8f00       0x74 build/obj/main.o
                0x00fc8f00                TurnSignal_Module::activate()
 *fill*         0x00fc8f74        0xc 
 .text._ZN11Horn_Module8activateEv
                0x00fc8f80       0x56 build/obj/main.o
                0x00fc8f80                Horn_Module::activate()
 *fill*         0x00fc8fd6        0xa 
 .text._ZN14PDU_FAN_Module8activateEv
                0x00fc8fe0       0xb6 build/obj/main.o
                0x00fc8fe0                PDU_FAN_Module::activate()
 *fill*         0x00fc9096        0xa 
 .text.ADC_init
                0x00fc90a0       0x2e build/obj/main.o
                0x00fc90a0                ADC_init
 *fill*         0x00fc90ce        0x2 
 .text.saradcconf_conv_cb
                0x00fc90d0       0x56 build/obj/main.o
                0x00fc90d0                saradcconf_conv_cb
 *fill*         0x00fc9126        0xa 
 .text._ZN7Channel15channel_on_implEv
                0x00fc9130       0x36 build/obj/main.o
                0x00fc9130                Channel::channel_on_impl()
 *fill*         0x00fc9166        0xa 
 .text._ZN7Channel8activateEv
                0x00fc9170       0x3c build/obj/main.o
                0x00fc9170                Channel::activate()
 *fill*         0x00fc91ac        0x4 
 .text._ZN12latch_Device8activateEv
                0x00fc91b0       0x1a build/obj/main.o
                0x00fc91b0                latch_Device::activate()
 *fill*         0x00fc91ca        0x6 
 .text._ZN13toggle_Device8activateEv
                0x00fc91d0       0x50 build/obj/main.o
                0x00fc91d0                toggle_Device::activate()
 .text._ZN16momentary_Device8activateEv
                0x00fc9220       0x1a build/obj/main.o
                0x00fc9220                momentary_Device::activate()
 *fill*         0x00fc923a        0x6 
 .text._Z12button_stateP13buttonInput_t
                0x00fc9240       0xc6 build/obj/main.o
                0x00fc9240                button_state(buttonInput_t*)
 *fill*         0x00fc9306        0xa 
 .text._ZN12latch_Device14evaluate_pressEv
                0x00fc9310       0x42 build/obj/main.o
                0x00fc9310                latch_Device::evaluate_press()
 *fill*         0x00fc9352        0xe 
 .text._ZN13toggle_Device14evaluate_pressEv
                0x00fc9360       0x42 build/obj/main.o
                0x00fc9360                toggle_Device::evaluate_press()
 *fill*         0x00fc93a2        0xe 
 .text._ZN16momentary_Device14evaluate_pressEv
                0x00fc93b0       0x3c build/obj/main.o
                0x00fc93b0                momentary_Device::evaluate_press()
 *fill*         0x00fc93ec        0x4 
 .text._ZN16HeadLight_Module8activateEv
                0x00fc93f0      0x124 build/obj/main.o
                0x00fc93f0                HeadLight_Module::activate()
 *fill*         0x00fc9514        0xc 
 .text.can_decode
                0x00fc9520       0x46 build/obj/main.o
                0x00fc9520                can_decode
 *fill*         0x00fc9566        0xa 
 .text.sbrk     0x00fc9570       0x4e build/obj/main.o
                0x00fc9570                sbrk
 *fill*         0x00fc95be        0x2 
 .text._exit    0x00fc95c0        0x4 build/obj/main.o
                0x00fc95c0                _exit
 *fill*         0x00fc95c4        0xc 
 .text.getpid   0x00fc95d0        0x4 build/obj/main.o
                0x00fc95d0                getpid
 *fill*         0x00fc95d4        0xc 
 .text.kill     0x00fc95e0        0x4 build/obj/main.o
                0x00fc95e0                kill
 *fill*         0x00fc95e4        0xc 
 .text._Z14create_devicesv
                0x00fc95f0      0x1b8 build/obj/main.o
                0x00fc95f0                create_devices()
 *fill*         0x00fc97a8        0x8 
 .text._Z16PDU_getData_read10CANRxFrame
                0x00fc97b0       0xc4 build/obj/main.o
                0x00fc97b0                PDU_getData_read(CANRxFrame)
 *fill*         0x00fc9874        0xc 
 .text._Z14create_modulesv
                0x00fc9880       0xa4 build/obj/main.o
                0x00fc9880                create_modules()
 *fill*         0x00fc9924        0xc 
 .text.CAN_init
                0x00fc9930       0x3c build/obj/main.o
                0x00fc9930                CAN_init
 *fill*         0x00fc996c        0x4 
 .text.mcanconf_ext_rxcb
                0x00fc9970      0x10a build/obj/main.o
                0x00fc9970                mcanconf_ext_rxcb
 *fill*         0x00fc9a7a        0x6 
 .text.startup.main
                0x00fc9a80      0x11c build/obj/main.o
                0x00fc9a80                main
 *fill*         0x00fc9b9c        0x4 
 .text.__errno  0x00fc9ba0        0xa c:/users/shehan/documents/environments/spc5_env/toolchain/bin/../lib/gcc/powerpc-eabivle/4.9.4/../../../../powerpc-eabivle/lib/e200z2\libc.a(lib_a-errno.o)
                0x00fc9ba0                __errno
 *fill*         0x00fc9baa        0x6 
 .text.memset   0x00fc9bb0       0x16 c:/users/shehan/documents/environments/spc5_env/toolchain/bin/../lib/gcc/powerpc-eabivle/4.9.4/../../../../powerpc-eabivle/lib/e200z2\libc.a(lib_a-memset.o)
                0x00fc9bb0                memset
 *fill*         0x00fc9bc6        0xa 
 .text._Znwj    0x00fc9bd0       0x68 c:/users/shehan/documents/environments/spc5_env/toolchain/bin/../lib/gcc/powerpc-eabivle/4.9.4/../../../../powerpc-eabivle/lib/e200z2\libstdc++.a(new_op.o)
                0x00fc9bd0                operator new(unsigned int)
 *fill*         0x00fc9c38        0x8 
 .text._ZNKSt9bad_alloc4whatEv
                0x00fc9c40        0xa c:/users/shehan/documents/environments/spc5_env/toolchain/bin/../lib/gcc/powerpc-eabivle/4.9.4/../../../../powerpc-eabivle/lib/e200z2\libstdc++.a(bad_alloc.o)
                0x00fc9c40                std::bad_alloc::what() const
 *fill*         0x00fc9c4a        0x6 
 .text._ZNSt9bad_allocD2Ev
                0x00fc9c50        0xe c:/users/shehan/documents/environments/spc5_env/toolchain/bin/../lib/gcc/powerpc-eabivle/4.9.4/../../../../powerpc-eabivle/lib/e200z2\libstdc++.a(bad_alloc.o)
                0x00fc9c50                std::bad_alloc::~bad_alloc()
                0x00fc9c50                std::bad_alloc::~bad_alloc()
 *fill*         0x00fc9c5e        0x2 
 .text._ZNSt9bad_allocD0Ev
                0x00fc9c60       0x28 c:/users/shehan/documents/environments/spc5_env/toolchain/bin/../lib/gcc/powerpc-eabivle/4.9.4/../../../../powerpc-eabivle/lib/e200z2\libstdc++.a(bad_alloc.o)
                0x00fc9c60                std::bad_alloc::~bad_alloc()
 *fill*         0x00fc9c88        0x8 
 .text._ZNSt9exceptionD2Ev
                0x00fc9c90        0x2 c:/users/shehan/documents/environments/spc5_env/toolchain/bin/../lib/gcc/powerpc-eabivle/4.9.4/../../../../powerpc-eabivle/lib/e200z2\libstdc++.a(eh_exception.o)
                0x00fc9c90                std::exception::~exception()
                0x00fc9c90                std::exception::~exception()
 *fill*         0x00fc9c92        0xe 
 .text._ZNSt13bad_exceptionD2Ev
                0x00fc9ca0        0x2 c:/users/shehan/documents/environments/spc5_env/toolchain/bin/../lib/gcc/powerpc-eabivle/4.9.4/../../../../powerpc-eabivle/lib/e200z2\libstdc++.a(eh_exception.o)
                0x00fc9ca0                std::bad_exception::~bad_exception()
                0x00fc9ca0                std::bad_exception::~bad_exception()
 *fill*         0x00fc9ca2        0xe 
 .text._ZNKSt13bad_exception4whatEv
                0x00fc9cb0        0xa c:/users/shehan/documents/environments/spc5_env/toolchain/bin/../lib/gcc/powerpc-eabivle/4.9.4/../../../../powerpc-eabivle/lib/e200z2\libstdc++.a(eh_exception.o)
                0x00fc9cb0                std::bad_exception::what() const
 *fill*         0x00fc9cba        0x6 
 .text._ZNSt13bad_exceptionD0Ev
                0x00fc9cc0        0x4 c:/users/shehan/documents/environments/spc5_env/toolchain/bin/../lib/gcc/powerpc-eabivle/4.9.4/../../../../powerpc-eabivle/lib/e200z2\libstdc++.a(eh_exception.o)
                0x00fc9cc0                std::bad_exception::~bad_exception()
 *fill*         0x00fc9cc4        0xc 
 .text.__cxa_allocate_exception
                0x00fc9cd0       0x7e c:/users/shehan/documents/environments/spc5_env/toolchain/bin/../lib/gcc/powerpc-eabivle/4.9.4/../../../../powerpc-eabivle/lib/e200z2\libstdc++.a(eh_alloc.o)
                0x00fc9cd0                __cxa_allocate_exception
 *fill*         0x00fc9d4e        0x2 
 .text.__cxa_free_exception
                0x00fc9d50       0x3c c:/users/shehan/documents/environments/spc5_env/toolchain/bin/../lib/gcc/powerpc-eabivle/4.9.4/../../../../powerpc-eabivle/lib/e200z2\libstdc++.a(eh_alloc.o)
                0x00fc9d50                __cxa_free_exception
 *fill*         0x00fc9d8c        0x4 
 .text._ZdlPv   0x00fc9d90        0x4 c:/users/shehan/documents/environments/spc5_env/toolchain/bin/../lib/gcc/powerpc-eabivle/4.9.4/../../../../powerpc-eabivle/lib/e200z2\libstdc++.a(del_op.o)
                0x00fc9d90                operator delete(void*)
 *fill*         0x00fc9d94        0xc 
 .text._ZL23__gxx_exception_cleanup19_Unwind_Reason_CodeP17_Unwind_Exception
                0x00fc9da0       0x64 c:/users/shehan/documents/environments/spc5_env/toolchain/bin/../lib/gcc/powerpc-eabivle/4.9.4/../../../../powerpc-eabivle/lib/e200z2\libstdc++.a(eh_throw.o)
 *fill*         0x00fc9e04        0xc 
 .text.__cxa_throw
                0x00fc9e10       0x72 c:/users/shehan/documents/environments/spc5_env/toolchain/bin/../lib/gcc/powerpc-eabivle/4.9.4/../../../../powerpc-eabivle/lib/e200z2\libstdc++.a(eh_throw.o)
                0x00fc9e10                __cxa_throw
 *fill*         0x00fc9e82        0xe 
 .text.__cxa_rethrow
                0x00fc9e90       0x6a c:/users/shehan/documents/environments/spc5_env/toolchain/bin/../lib/gcc/powerpc-eabivle/4.9.4/../../../../powerpc-eabivle/lib/e200z2\libstdc++.a(eh_throw.o)
                0x00fc9e90                __cxa_rethrow
 *fill*         0x00fc9efa        0x6 
 .text._ZNK10__cxxabiv117__class_type_info11__do_upcastEPKS0_PPv
                0x00fc9f00       0x42 c:/users/shehan/documents/environments/spc5_env/toolchain/bin/../lib/gcc/powerpc-eabivle/4.9.4/../../../../powerpc-eabivle/lib/e200z2\libstdc++.a(class_type_info.o)
                0x00fc9f00                __cxxabiv1::__class_type_info::__do_upcast(__cxxabiv1::__class_type_info const*, void**) const
 *fill*         0x00fc9f42        0xe 
 .text._ZNK10__cxxabiv117__class_type_info20__do_find_public_srcEiPKvPKS0_S2_
                0x00fc9f50        0xc c:/users/shehan/documents/environments/spc5_env/toolchain/bin/../lib/gcc/powerpc-eabivle/4.9.4/../../../../powerpc-eabivle/lib/e200z2\libstdc++.a(class_type_info.o)
                0x00fc9f50                __cxxabiv1::__class_type_info::__do_find_public_src(int, void const*, __cxxabiv1::__class_type_info const*, void const*) const
 *fill*         0x00fc9f5c        0x4 
 .text._ZN10__cxxabiv117__class_type_infoD2Ev
                0x00fc9f60        0xe c:/users/shehan/documents/environments/spc5_env/toolchain/bin/../lib/gcc/powerpc-eabivle/4.9.4/../../../../powerpc-eabivle/lib/e200z2\libstdc++.a(class_type_info.o)
                0x00fc9f60                __cxxabiv1::__class_type_info::~__class_type_info()
                0x00fc9f60                __cxxabiv1::__class_type_info::~__class_type_info()
 *fill*         0x00fc9f6e        0x2 
 .text._ZN10__cxxabiv117__class_type_infoD0Ev
                0x00fc9f70       0x28 c:/users/shehan/documents/environments/spc5_env/toolchain/bin/../lib/gcc/powerpc-eabivle/4.9.4/../../../../powerpc-eabivle/lib/e200z2\libstdc++.a(class_type_info.o)
                0x00fc9f70                __cxxabiv1::__class_type_info::~__class_type_info()
 *fill*         0x00fc9f98        0x8 
 .text._ZNK10__cxxabiv117__class_type_info11__do_upcastEPKS0_PKvRNS0_15__upcast_resultE
                0x00fc9fa0       0x58 c:/users/shehan/documents/environments/spc5_env/toolchain/bin/../lib/gcc/powerpc-eabivle/4.9.4/../../../../powerpc-eabivle/lib/e200z2\libstdc++.a(class_type_info.o)
                0x00fc9fa0                __cxxabiv1::__class_type_info::__do_upcast(__cxxabiv1::__class_type_info const*, void const*, __cxxabiv1::__class_type_info::__upcast_result&) const
 *fill*         0x00fc9ff8        0x8 
 .text._ZNK10__cxxabiv117__class_type_info10__do_catchEPKSt9type_infoPPvj
                0x00fca000       0x72 c:/users/shehan/documents/environments/spc5_env/toolchain/bin/../lib/gcc/powerpc-eabivle/4.9.4/../../../../powerpc-eabivle/lib/e200z2\libstdc++.a(class_type_info.o)
                0x00fca000                __cxxabiv1::__class_type_info::__do_catch(std::type_info const*, void**, unsigned int) const
 *fill*         0x00fca072        0xe 
 .text._ZNK10__cxxabiv117__class_type_info12__do_dyncastEiNS0_10__sub_kindEPKS0_PKvS3_S5_RNS0_16__dyncast_resultE
                0x00fca080       0xb8 c:/users/shehan/documents/environments/spc5_env/toolchain/bin/../lib/gcc/powerpc-eabivle/4.9.4/../../../../powerpc-eabivle/lib/e200z2\libstdc++.a(class_type_info.o)
                0x00fca080                __cxxabiv1::__class_type_info::__do_dyncast(int, __cxxabiv1::__class_type_info::__sub_kind, __cxxabiv1::__class_type_info const*, void const*, __cxxabiv1::__class_type_info const*, void const*, __cxxabiv1::__class_type_info::__dyncast_result&) const
 *fill*         0x00fca138        0x8 
 .text._ZSt15get_new_handlerv
                0x00fca140       0x14 c:/users/shehan/documents/environments/spc5_env/toolchain/bin/../lib/gcc/powerpc-eabivle/4.9.4/../../../../powerpc-eabivle/lib/e200z2\libstdc++.a(new_handler.o)
                0x00fca140                std::get_new_handler()
 *fill*         0x00fca154        0xc 
 .text._ZN10__cxxabiv120__si_class_type_infoD2Ev
                0x00fca160        0xe c:/users/shehan/documents/environments/spc5_env/toolchain/bin/../lib/gcc/powerpc-eabivle/4.9.4/../../../../powerpc-eabivle/lib/e200z2\libstdc++.a(si_class_type_info.o)
                0x00fca160                __cxxabiv1::__si_class_type_info::~__si_class_type_info()
                0x00fca160                __cxxabiv1::__si_class_type_info::~__si_class_type_info()
 *fill*         0x00fca16e        0x2 
 .text._ZN10__cxxabiv120__si_class_type_infoD0Ev
                0x00fca170       0x28 c:/users/shehan/documents/environments/spc5_env/toolchain/bin/../lib/gcc/powerpc-eabivle/4.9.4/../../../../powerpc-eabivle/lib/e200z2\libstdc++.a(si_class_type_info.o)
                0x00fca170                __cxxabiv1::__si_class_type_info::~__si_class_type_info()
 *fill*         0x00fca198        0x8 
 .text._ZNK10__cxxabiv120__si_class_type_info12__do_dyncastEiNS_17__class_type_info10__sub_kindEPKS1_PKvS4_S6_RNS1_16__dyncast_resultE
                0x00fca1a0       0xd0 c:/users/shehan/documents/environments/spc5_env/toolchain/bin/../lib/gcc/powerpc-eabivle/4.9.4/../../../../powerpc-eabivle/lib/e200z2\libstdc++.a(si_class_type_info.o)
                0x00fca1a0                __cxxabiv1::__si_class_type_info::__do_dyncast(int, __cxxabiv1::__class_type_info::__sub_kind, __cxxabiv1::__class_type_info const*, void const*, __cxxabiv1::__class_type_info const*, void const*, __cxxabiv1::__class_type_info::__dyncast_result&) const
 .text._ZNK10__cxxabiv120__si_class_type_info20__do_find_public_srcEiPKvPKNS_17__class_type_infoES2_
                0x00fca270       0x64 c:/users/shehan/documents/environments/spc5_env/toolchain/bin/../lib/gcc/powerpc-eabivle/4.9.4/../../../../powerpc-eabivle/lib/e200z2\libstdc++.a(si_class_type_info.o)
                0x00fca270                __cxxabiv1::__si_class_type_info::__do_find_public_src(int, void const*, __cxxabiv1::__class_type_info const*, void const*) const
 *fill*         0x00fca2d4        0xc 
 .text._ZNK10__cxxabiv120__si_class_type_info11__do_upcastEPKNS_17__class_type_infoEPKvRNS1_15__upcast_resultE
                0x00fca2e0       0x44 c:/users/shehan/documents/environments/spc5_env/toolchain/bin/../lib/gcc/powerpc-eabivle/4.9.4/../../../../powerpc-eabivle/lib/e200z2\libstdc++.a(si_class_type_info.o)
                0x00fca2e0                __cxxabiv1::__si_class_type_info::__do_upcast(__cxxabiv1::__class_type_info const*, void const*, __cxxabiv1::__class_type_info::__upcast_result&) const
 *fill*         0x00fca324        0xc 
 .text.__cxa_get_globals_fast
                0x00fca330        0xa c:/users/shehan/documents/environments/spc5_env/toolchain/bin/../lib/gcc/powerpc-eabivle/4.9.4/../../../../powerpc-eabivle/lib/e200z2\libstdc++.a(eh_globals.o)
                0x00fca330                __cxa_get_globals_fast
 *fill*         0x00fca33a        0x6 
 .text.__cxa_get_globals
                0x00fca340        0xa c:/users/shehan/documents/environments/spc5_env/toolchain/bin/../lib/gcc/powerpc-eabivle/4.9.4/../../../../powerpc-eabivle/lib/e200z2\libstdc++.a(eh_globals.o)
                0x00fca340                __cxa_get_globals
 *fill*         0x00fca34a        0x6 
 .text._ZN10__cxxabiv111__terminateEPFvvE
                0x00fca350       0x34 c:/users/shehan/documents/environments/spc5_env/toolchain/bin/../lib/gcc/powerpc-eabivle/4.9.4/../../../../powerpc-eabivle/lib/e200z2\libstdc++.a(eh_terminate.o)
                0x00fca350                __cxxabiv1::__terminate(void (*)())
 *fill*         0x00fca384        0xc 
 .text._ZSt9terminatev
                0x00fca390       0x1e c:/users/shehan/documents/environments/spc5_env/toolchain/bin/../lib/gcc/powerpc-eabivle/4.9.4/../../../../powerpc-eabivle/lib/e200z2\libstdc++.a(eh_terminate.o)
                0x00fca390                std::terminate()
 *fill*         0x00fca3ae        0x2 
 .text._ZN10__cxxabiv112__unexpectedEPFvvE
                0x00fca3b0       0x10 c:/users/shehan/documents/environments/spc5_env/toolchain/bin/../lib/gcc/powerpc-eabivle/4.9.4/../../../../powerpc-eabivle/lib/e200z2\libstdc++.a(eh_terminate.o)
                0x00fca3b0                __cxxabiv1::__unexpected(void (*)())
 .text._ZSt10unexpectedv
                0x00fca3c0       0x1e c:/users/shehan/documents/environments/spc5_env/toolchain/bin/../lib/gcc/powerpc-eabivle/4.9.4/../../../../powerpc-eabivle/lib/e200z2\libstdc++.a(eh_terminate.o)
                0x00fca3c0                std::unexpected()
 *fill*         0x00fca3de        0x2 
 .text._ZSt13get_terminatev
                0x00fca3e0       0x14 c:/users/shehan/documents/environments/spc5_env/toolchain/bin/../lib/gcc/powerpc-eabivle/4.9.4/../../../../powerpc-eabivle/lib/e200z2\libstdc++.a(eh_terminate.o)
                0x00fca3e0                std::get_terminate()
 *fill*         0x00fca3f4        0xc 
 .text._ZSt14get_unexpectedv
                0x00fca400       0x14 c:/users/shehan/documents/environments/spc5_env/toolchain/bin/../lib/gcc/powerpc-eabivle/4.9.4/../../../../powerpc-eabivle/lib/e200z2\libstdc++.a(eh_terminate.o)
                0x00fca400                std::get_unexpected()
 *fill*         0x00fca414        0xc 
 .text._ZL12read_sleb128PKhPl
                0x00fca420       0x2e c:/users/shehan/documents/environments/spc5_env/toolchain/bin/../lib/gcc/powerpc-eabivle/4.9.4/../../../../powerpc-eabivle/lib/e200z2\libstdc++.a(eh_personality.o)
 *fill*         0x00fca44e        0x2 
 .text._ZL16get_adjusted_ptrPKSt9type_infoS1_PPv
                0x00fca450       0x56 c:/users/shehan/documents/environments/spc5_env/toolchain/bin/../lib/gcc/powerpc-eabivle/4.9.4/../../../../powerpc-eabivle/lib/e200z2\libstdc++.a(eh_personality.o)
 *fill*         0x00fca4a6        0xa 
 .text._ZL28read_encoded_value_with_basehjPKhPj
                0x00fca4b0      0x142 c:/users/shehan/documents/environments/spc5_env/toolchain/bin/../lib/gcc/powerpc-eabivle/4.9.4/../../../../powerpc-eabivle/lib/e200z2\libstdc++.a(eh_personality.o)
 *fill*         0x00fca5f2        0xe 
 .text._ZL15get_ttype_entryP16lsda_header_infom
                0x00fca600       0xbe c:/users/shehan/documents/environments/spc5_env/toolchain/bin/../lib/gcc/powerpc-eabivle/4.9.4/../../../../powerpc-eabivle/lib/e200z2\libstdc++.a(eh_personality.o)
 *fill*         0x00fca6be        0x2 
 .text._ZL20check_exception_specP16lsda_header_infoPKSt9type_infoPvl
                0x00fca6c0       0x6c c:/users/shehan/documents/environments/spc5_env/toolchain/bin/../lib/gcc/powerpc-eabivle/4.9.4/../../../../powerpc-eabivle/lib/e200z2\libstdc++.a(eh_personality.o)
 *fill*         0x00fca72c        0x4 
 .text._ZL21base_of_encoded_valuehP15_Unwind_Context
                0x00fca730       0x78 c:/users/shehan/documents/environments/spc5_env/toolchain/bin/../lib/gcc/powerpc-eabivle/4.9.4/../../../../powerpc-eabivle/lib/e200z2\libstdc++.a(eh_personality.o)
 *fill*         0x00fca7a8        0x8 
 .text._ZL17parse_lsda_headerP15_Unwind_ContextPKhP16lsda_header_info
                0x00fca7b0       0xca c:/users/shehan/documents/environments/spc5_env/toolchain/bin/../lib/gcc/powerpc-eabivle/4.9.4/../../../../powerpc-eabivle/lib/e200z2\libstdc++.a(eh_personality.o)
 *fill*         0x00fca87a        0x6 
 .text.__gxx_personality_v0
                0x00fca880      0x3d6 c:/users/shehan/documents/environments/spc5_env/toolchain/bin/../lib/gcc/powerpc-eabivle/4.9.4/../../../../powerpc-eabivle/lib/e200z2\libstdc++.a(eh_personality.o)
                0x00fca880                __gxx_personality_v0
 *fill*         0x00fcac56        0xa 
 .text.__cxa_call_unexpected
                0x00fcac60       0xbc c:/users/shehan/documents/environments/spc5_env/toolchain/bin/../lib/gcc/powerpc-eabivle/4.9.4/../../../../powerpc-eabivle/lib/e200z2\libstdc++.a(eh_personality.o)
                0x00fcac60                __cxa_call_unexpected
 *fill*         0x00fcad1c        0x4 
 .text.__cxa_begin_catch
                0x00fcad20       0x90 c:/users/shehan/documents/environments/spc5_env/toolchain/bin/../lib/gcc/powerpc-eabivle/4.9.4/../../../../powerpc-eabivle/lib/e200z2\libstdc++.a(eh_catch.o)
                0x00fcad20                __cxa_begin_catch
 .text.__cxa_end_catch
                0x00fcadb0       0xa2 c:/users/shehan/documents/environments/spc5_env/toolchain/bin/../lib/gcc/powerpc-eabivle/4.9.4/../../../../powerpc-eabivle/lib/e200z2\libstdc++.a(eh_catch.o)
                0x00fcadb0                __cxa_end_catch
 *fill*         0x00fcae52        0xe 
 .text._ZNSt9type_infoD2Ev
                0x00fcae60        0x2 c:/users/shehan/documents/environments/spc5_env/toolchain/bin/../lib/gcc/powerpc-eabivle/4.9.4/../../../../powerpc-eabivle/lib/e200z2\libstdc++.a(tinfo.o)
                0x00fcae60                std::type_info::~type_info()
                0x00fcae60                std::type_info::~type_info()
 *fill*         0x00fcae62        0xe 
 .text._ZNKSt9type_info14__is_pointer_pEv
                0x00fcae70        0x4 c:/users/shehan/documents/environments/spc5_env/toolchain/bin/../lib/gcc/powerpc-eabivle/4.9.4/../../../../powerpc-eabivle/lib/e200z2\libstdc++.a(tinfo.o)
                0x00fcae70                std::type_info::__is_pointer_p() const
 *fill*         0x00fcae74        0xc 
 .text._ZNKSt9type_info15__is_function_pEv
                0x00fcae80        0x4 c:/users/shehan/documents/environments/spc5_env/toolchain/bin/../lib/gcc/powerpc-eabivle/4.9.4/../../../../powerpc-eabivle/lib/e200z2\libstdc++.a(tinfo.o)
                0x00fcae80                std::type_info::__is_function_p() const
 *fill*         0x00fcae84        0xc 
 .text.__cxa_call_terminate
                0x00fcae90       0x4a c:/users/shehan/documents/environments/spc5_env/toolchain/bin/../lib/gcc/powerpc-eabivle/4.9.4/../../../../powerpc-eabivle/lib/e200z2\libstdc++.a(eh_call.o)
                0x00fcae90                __cxa_call_terminate
 *fill*         0x00fcaeda        0x6 
 .text.abort    0x00fcaee0       0x14 c:/users/shehan/documents/environments/spc5_env/toolchain/bin/../lib/gcc/powerpc-eabivle/4.9.4/../../../../powerpc-eabivle/lib/e200z2\libc.a(lib_a-abort.o)
                0x00fcaee0                abort
 *fill*         0x00fcaef4        0xc 
 .text.malloc   0x00fcaf00        0xe c:/users/shehan/documents/environments/spc5_env/toolchain/bin/../lib/gcc/powerpc-eabivle/4.9.4/../../../../powerpc-eabivle/lib/e200z2\libc.a(lib_a-malloc.o)
                0x00fcaf00                malloc
 *fill*         0x00fcaf0e        0x2 
 .text.free     0x00fcaf10        0xe c:/users/shehan/documents/environments/spc5_env/toolchain/bin/../lib/gcc/powerpc-eabivle/4.9.4/../../../../powerpc-eabivle/lib/e200z2\libc.a(lib_a-malloc.o)
                0x00fcaf10                free
 *fill*         0x00fcaf1e        0x2 
 .text._malloc_r
                0x00fcaf20      0x4dc c:/users/shehan/documents/environments/spc5_env/toolchain/bin/../lib/gcc/powerpc-eabivle/4.9.4/../../../../powerpc-eabivle/lib/e200z2\libc.a(lib_a-mallocr.o)
                0x00fcaf20                _malloc_r
 *fill*         0x00fcb3fc        0x4 
 .text.memcpy   0x00fcb400       0x1a c:/users/shehan/documents/environments/spc5_env/toolchain/bin/../lib/gcc/powerpc-eabivle/4.9.4/../../../../powerpc-eabivle/lib/e200z2\libc.a(lib_a-memcpy.o)
                0x00fcb400                memcpy
                0x00fcb400                largememcpy
 *fill*         0x00fcb41a        0x6 
 .text.__malloc_lock
                0x00fcb420        0x2 c:/users/shehan/documents/environments/spc5_env/toolchain/bin/../lib/gcc/powerpc-eabivle/4.9.4/../../../../powerpc-eabivle/lib/e200z2\libc.a(lib_a-mlock.o)
                0x00fcb420                __malloc_lock
 *fill*         0x00fcb422        0xe 
 .text.__malloc_unlock
                0x00fcb430        0x2 c:/users/shehan/documents/environments/spc5_env/toolchain/bin/../lib/gcc/powerpc-eabivle/4.9.4/../../../../powerpc-eabivle/lib/e200z2\libc.a(lib_a-mlock.o)
                0x00fcb430                __malloc_unlock
 *fill*         0x00fcb432        0xe 
 .text._sbrk_r  0x00fcb440       0x3a c:/users/shehan/documents/environments/spc5_env/toolchain/bin/../lib/gcc/powerpc-eabivle/4.9.4/../../../../powerpc-eabivle/lib/e200z2\libc.a(lib_a-sbrkr.o)
                0x00fcb440                _sbrk_r
 *fill*         0x00fcb47a        0x6 
 .text._raise_r
                0x00fcb480       0x82 c:/users/shehan/documents/environments/spc5_env/toolchain/bin/../lib/gcc/powerpc-eabivle/4.9.4/../../../../powerpc-eabivle/lib/e200z2\libc.a(lib_a-signal.o)
                0x00fcb480                _raise_r
 *fill*         0x00fcb502        0xe 
 .text.raise    0x00fcb510        0xe c:/users/shehan/documents/environments/spc5_env/toolchain/bin/../lib/gcc/powerpc-eabivle/4.9.4/../../../../powerpc-eabivle/lib/e200z2\libc.a(lib_a-signal.o)
                0x00fcb510                raise
 *fill*         0x00fcb51e        0x2 
 .text._kill_r  0x00fcb520       0x3c c:/users/shehan/documents/environments/spc5_env/toolchain/bin/../lib/gcc/powerpc-eabivle/4.9.4/../../../../powerpc-eabivle/lib/e200z2\libc.a(lib_a-signalr.o)
                0x00fcb520                _kill_r
 *fill*         0x00fcb55c        0x4 
 .text._getpid_r
                0x00fcb560        0x4 c:/users/shehan/documents/environments/spc5_env/toolchain/bin/../lib/gcc/powerpc-eabivle/4.9.4/../../../../powerpc-eabivle/lib/e200z2\libc.a(lib_a-signalr.o)
                0x00fcb560                _getpid_r
 *fill*         0x00fcb564        0xc 
 .text.strcmp   0x00fcb570       0x22 c:/users/shehan/documents/environments/spc5_env/toolchain/bin/../lib/gcc/powerpc-eabivle/4.9.4/../../../../powerpc-eabivle/lib/e200z2\libc.a(lib_a-strcmp.o)
                0x00fcb570                strcmp
 *fill*         0x00fcb592        0xe 
 .text.strlen   0x00fcb5a0       0x14 c:/users/shehan/documents/environments/spc5_env/toolchain/bin/../lib/gcc/powerpc-eabivle/4.9.4/../../../../powerpc-eabivle/lib/e200z2\libc.a(lib_a-strlen.o)
                0x00fcb5a0                strlen
 *fill*         0x00fcb5b4        0xc 
 .text._malloc_trim_r
                0x00fcb5c0       0xbe c:/users/shehan/documents/environments/spc5_env/toolchain/bin/../lib/gcc/powerpc-eabivle/4.9.4/../../../../powerpc-eabivle/lib/e200z2\libc.a(lib_a-freer.o)
                0x00fcb5c0                _malloc_trim_r
 *fill*         0x00fcb67e        0x2 
 .text._free_r  0x00fcb680      0x1e8 c:/users/shehan/documents/environments/spc5_env/toolchain/bin/../lib/gcc/powerpc-eabivle/4.9.4/../../../../powerpc-eabivle/lib/e200z2\libc.a(lib_a-freer.o)
                0x00fcb680                _free_r
 *(.gnu.linkonce.t.*)

.glink          0x00fcb868        0x0
 .glink         0x00fcb868        0x0 build/obj/boot.o

.rodata         0x00fcb870      0xa1d
 *(.glue_7t)
 *(.glue_7)
 *(.gcc*)
 .gcc_except_table._ZN10__cxxabiv111__terminateEPFvvE
                0x00fcb870       0x1d c:/users/shehan/documents/environments/spc5_env/toolchain/bin/../lib/gcc/powerpc-eabivle/4.9.4/../../../../powerpc-eabivle/lib/e200z2\libstdc++.a(eh_terminate.o)
 *fill*         0x00fcb88d        0x3 
 .gcc_except_table.__gxx_personality_v0
                0x00fcb890       0x18 c:/users/shehan/documents/environments/spc5_env/toolchain/bin/../lib/gcc/powerpc-eabivle/4.9.4/../../../../powerpc-eabivle/lib/e200z2\libstdc++.a(eh_personality.o)
 *fill*         0x00fcb8a8        0x8 
 .gcc_except_table.__cxa_call_unexpected
                0x00fcb8b0       0x1c c:/users/shehan/documents/environments/spc5_env/toolchain/bin/../lib/gcc/powerpc-eabivle/4.9.4/../../../../powerpc-eabivle/lib/e200z2\libstdc++.a(eh_personality.o)
 *(.rodata)
 *fill*         0x00fcb8cc        0x4 
 .rodata        0x00fcb8d0       0x10 c:/users/shehan/documents/environments/spc5_env/toolchain/bin/../lib/gcc/powerpc-eabivle/4.9.4/e200z2\libgcc.a(_thenan_sf.o)
                0x00fcb8d0                __thenan_sf
 .rodata        0x00fcb8e0      0x5f0 c:/users/shehan/documents/environments/spc5_env/toolchain/bin/../lib/gcc/powerpc-eabivle/4.9.4/e200z2\libgcc.a(unwind-dw2.o)
 .rodata        0x00fcbed0       0x48 c:/users/shehan/documents/environments/spc5_env/toolchain/bin/../lib/gcc/powerpc-eabivle/4.9.4/e200z2\libgcc.a(unwind-dw2-fde.o)
 *(.rodata.*)
 *fill*         0x00fcbf18        0x8 
 .rodata.dma1_g0
                0x00fcbf20       0x10 build/obj/spc5_edma.o
 .rodata.can_lld_getframesize
                0x00fcbf30       0x1c build/obj/can_lld.o
 *fill*         0x00fcbf4c        0x4 
 .rodata._Z12button_stateP13buttonInput_t
                0x00fcbf50       0x10 build/obj/main.o
 .rodata._ZTV16momentary_Device
                0x00fcbf60       0x14 build/obj/main.o
                0x00fcbf60                vtable for momentary_Device
 *fill*         0x00fcbf74        0xc 
 .rodata._ZTV12latch_Device
                0x00fcbf80       0x14 build/obj/main.o
                0x00fcbf80                vtable for latch_Device
 *fill*         0x00fcbf94        0xc 
 .rodata._ZTV13toggle_Device
                0x00fcbfa0       0x14 build/obj/main.o
                0x00fcbfa0                vtable for toggle_Device
 *fill*         0x00fcbfb4        0xc 
 .rodata._ZTV16HeadLight_Module
                0x00fcbfc0        0xc build/obj/main.o
                0x00fcbfc0                vtable for HeadLight_Module
 *fill*         0x00fcbfcc        0x4 
 .rodata._ZTV17TurnSignal_Module
                0x00fcbfd0        0xc build/obj/main.o
                0x00fcbfd0                vtable for TurnSignal_Module
 *fill*         0x00fcbfdc        0x4 
 .rodata._ZTV11Horn_Module
                0x00fcbfe0        0xc build/obj/main.o
                0x00fcbfe0                vtable for Horn_Module
 *fill*         0x00fcbfec        0x4 
 .rodata._ZTV14PDU_FAN_Module
                0x00fcbff0        0xc build/obj/main.o
                0x00fcbff0                vtable for PDU_FAN_Module
 *fill*         0x00fcbffc        0x4 
 .rodata.str1.4
                0x00fcc000        0x2 c:/users/shehan/documents/environments/spc5_env/toolchain/bin/../lib/gcc/powerpc-eabivle/4.9.4/../../../../powerpc-eabivle/lib/e200z2\libc.a(lib_a-impure.o)
 *fill*         0x00fcc002        0xe 
 .rodata._ZTSSt9bad_alloc
                0x00fcc010        0xd c:/users/shehan/documents/environments/spc5_env/toolchain/bin/../lib/gcc/powerpc-eabivle/4.9.4/../../../../powerpc-eabivle/lib/e200z2\libstdc++.a(bad_alloc.o)
                0x00fcc010                typeinfo name for std::bad_alloc
 *fill*         0x00fcc01d        0x3 
 .rodata._ZTISt9bad_alloc
                0x00fcc020        0xc c:/users/shehan/documents/environments/spc5_env/toolchain/bin/../lib/gcc/powerpc-eabivle/4.9.4/../../../../powerpc-eabivle/lib/e200z2\libstdc++.a(bad_alloc.o)
                0x00fcc020                typeinfo for std::bad_alloc
 *fill*         0x00fcc02c        0x4 
 .rodata._ZTVSt9bad_alloc
                0x00fcc030       0x14 c:/users/shehan/documents/environments/spc5_env/toolchain/bin/../lib/gcc/powerpc-eabivle/4.9.4/../../../../powerpc-eabivle/lib/e200z2\libstdc++.a(bad_alloc.o)
                0x00fcc030                vtable for std::bad_alloc
 *fill*         0x00fcc044        0xc 
 .rodata.str1.4
                0x00fcc050        0xf c:/users/shehan/documents/environments/spc5_env/toolchain/bin/../lib/gcc/powerpc-eabivle/4.9.4/../../../../powerpc-eabivle/lib/e200z2\libstdc++.a(bad_alloc.o)
 *fill*         0x00fcc05f        0x1 
 .rodata._ZTSSt9exception
                0x00fcc060        0xd c:/users/shehan/documents/environments/spc5_env/toolchain/bin/../lib/gcc/powerpc-eabivle/4.9.4/../../../../powerpc-eabivle/lib/e200z2\libstdc++.a(eh_exception.o)
                0x00fcc060                typeinfo name for std::exception
 *fill*         0x00fcc06d        0x3 
 .rodata._ZTSSt13bad_exception
                0x00fcc070       0x12 c:/users/shehan/documents/environments/spc5_env/toolchain/bin/../lib/gcc/powerpc-eabivle/4.9.4/../../../../powerpc-eabivle/lib/e200z2\libstdc++.a(eh_exception.o)
                0x00fcc070                typeinfo name for std::bad_exception
 *fill*         0x00fcc082        0xe 
 .rodata._ZTISt13bad_exception
                0x00fcc090        0xc c:/users/shehan/documents/environments/spc5_env/toolchain/bin/../lib/gcc/powerpc-eabivle/4.9.4/../../../../powerpc-eabivle/lib/e200z2\libstdc++.a(eh_exception.o)
                0x00fcc090                typeinfo for std::bad_exception
 *fill*         0x00fcc09c        0x4 
 .rodata._ZTSN10__cxxabiv115__forced_unwindE
                0x00fcc0a0       0x20 c:/users/shehan/documents/environments/spc5_env/toolchain/bin/../lib/gcc/powerpc-eabivle/4.9.4/../../../../powerpc-eabivle/lib/e200z2\libstdc++.a(eh_exception.o)
                0x00fcc0a0                typeinfo name for __cxxabiv1::__forced_unwind
 .rodata._ZTSN10__cxxabiv119__foreign_exceptionE
                0x00fcc0c0       0x24 c:/users/shehan/documents/environments/spc5_env/toolchain/bin/../lib/gcc/powerpc-eabivle/4.9.4/../../../../powerpc-eabivle/lib/e200z2\libstdc++.a(eh_exception.o)
                0x00fcc0c0                typeinfo name for __cxxabiv1::__foreign_exception
 *fill*         0x00fcc0e4        0xc 
 .rodata._ZTVSt13bad_exception
                0x00fcc0f0       0x14 c:/users/shehan/documents/environments/spc5_env/toolchain/bin/../lib/gcc/powerpc-eabivle/4.9.4/../../../../powerpc-eabivle/lib/e200z2\libstdc++.a(eh_exception.o)
                0x00fcc0f0                vtable for std::bad_exception
 *fill*         0x00fcc104        0xc 
 .rodata.str1.4
                0x00fcc110       0x24 c:/users/shehan/documents/environments/spc5_env/toolchain/bin/../lib/gcc/powerpc-eabivle/4.9.4/../../../../powerpc-eabivle/lib/e200z2\libstdc++.a(eh_exception.o)
                                 0x23 (size before relaxing)
 *fill*         0x00fcc134        0xc 
 .rodata._ZTSN10__cxxabiv117__class_type_infoE
                0x00fcc140       0x22 c:/users/shehan/documents/environments/spc5_env/toolchain/bin/../lib/gcc/powerpc-eabivle/4.9.4/../../../../powerpc-eabivle/lib/e200z2\libstdc++.a(class_type_info.o)
                0x00fcc140                typeinfo name for __cxxabiv1::__class_type_info
 *fill*         0x00fcc162        0xe 
 .rodata._ZTIN10__cxxabiv117__class_type_infoE
                0x00fcc170        0xc c:/users/shehan/documents/environments/spc5_env/toolchain/bin/../lib/gcc/powerpc-eabivle/4.9.4/../../../../powerpc-eabivle/lib/e200z2\libstdc++.a(class_type_info.o)
                0x00fcc170                typeinfo for __cxxabiv1::__class_type_info
 *fill*         0x00fcc17c        0x4 
 .rodata._ZTVN10__cxxabiv117__class_type_infoE
                0x00fcc180       0x2c c:/users/shehan/documents/environments/spc5_env/toolchain/bin/../lib/gcc/powerpc-eabivle/4.9.4/../../../../powerpc-eabivle/lib/e200z2\libstdc++.a(class_type_info.o)
                0x00fcc180                vtable for __cxxabiv1::__class_type_info
 *fill*         0x00fcc1ac        0x4 
 .rodata._ZTSN10__cxxabiv120__si_class_type_infoE
                0x00fcc1b0       0x25 c:/users/shehan/documents/environments/spc5_env/toolchain/bin/../lib/gcc/powerpc-eabivle/4.9.4/../../../../powerpc-eabivle/lib/e200z2\libstdc++.a(si_class_type_info.o)
                0x00fcc1b0                typeinfo name for __cxxabiv1::__si_class_type_info
 *fill*         0x00fcc1d5        0xb 
 .rodata._ZTIN10__cxxabiv120__si_class_type_infoE
                0x00fcc1e0        0xc c:/users/shehan/documents/environments/spc5_env/toolchain/bin/../lib/gcc/powerpc-eabivle/4.9.4/../../../../powerpc-eabivle/lib/e200z2\libstdc++.a(si_class_type_info.o)
                0x00fcc1e0                typeinfo for __cxxabiv1::__si_class_type_info
 *fill*         0x00fcc1ec        0x4 
 .rodata._ZTVN10__cxxabiv120__si_class_type_infoE
                0x00fcc1f0       0x2c c:/users/shehan/documents/environments/spc5_env/toolchain/bin/../lib/gcc/powerpc-eabivle/4.9.4/../../../../powerpc-eabivle/lib/e200z2\libstdc++.a(si_class_type_info.o)
                0x00fcc1f0                vtable for __cxxabiv1::__si_class_type_info
 *fill*         0x00fcc21c        0x4 
 .rodata._ZL28read_encoded_value_with_basehjPKhPj
                0x00fcc220       0x34 c:/users/shehan/documents/environments/spc5_env/toolchain/bin/../lib/gcc/powerpc-eabivle/4.9.4/../../../../powerpc-eabivle/lib/e200z2\libstdc++.a(eh_personality.o)
 *fill*         0x00fcc254        0xc 
 .rodata._ZL15get_ttype_entryP16lsda_header_infom
                0x00fcc260       0x14 c:/users/shehan/documents/environments/spc5_env/toolchain/bin/../lib/gcc/powerpc-eabivle/4.9.4/../../../../powerpc-eabivle/lib/e200z2\libstdc++.a(eh_personality.o)
 *fill*         0x00fcc274        0xc 
 .rodata._ZTSSt9type_info
                0x00fcc280        0xd c:/users/shehan/documents/environments/spc5_env/toolchain/bin/../lib/gcc/powerpc-eabivle/4.9.4/../../../../powerpc-eabivle/lib/e200z2\libstdc++.a(tinfo.o)
                0x00fcc280                typeinfo name for std::type_info
 *(.rodata1)

.sdata2         0x00fcc290        0x0
                0x00fd4290                __sdata2_start__ = (. + 0x8000)
 *(.sdata2)
 .sdata2        0x00fcc290        0x0 build/obj/boot.o
 *(.sdata2.*)
 *(.gnu.linkonce.s2.*)
 *(.sbss2)
 *(.sbss2.*)
 *(.gnu.linkonce.sb2.*)

.eh_frame_hdr   0x00fcc290        0x0
 *(.eh_frame_hdr)
 .eh_frame_hdr  0x00fcc290        0x0 c:/users/shehan/documents/environments/spc5_env/toolchain/bin/../lib/gcc/powerpc-eabivle/4.9.4/../../../../powerpc-eabivle/lib/e200z2\libstdc++.a(new_op.o)

.eh_frame       0x00fcc290        0x0
 *(.eh_frame)
 .eh_frame      0x00fcc290        0x0 build/obj/boot.o

.rela.dyn       0x00fcc290        0x0
 .rela.iplt     0x00fcc290        0x0 build/obj/boot.o
 .rela.vectors  0x00fcc290        0x0 build/obj/boot.o
 .rela.text.manage_eirq_interrupt
                0x00fcc290        0x0 build/obj/boot.o
 .rela.text.vector243
                0x00fcc290        0x0 build/obj/boot.o
 .rela.text.vector244
                0x00fcc290        0x0 build/obj/boot.o
 .rela.text.vector245
                0x00fcc290        0x0 build/obj/boot.o
 .rela.text.vector246
                0x00fcc290        0x0 build/obj/boot.o
 .rela.text.eirqInit
                0x00fcc290        0x0 build/obj/boot.o
 .rela.data.can_config_mcanconf
                0x00fcc290        0x0 build/obj/boot.o
 .rela.data.can_config_mcanconf_ext
                0x00fcc290        0x0 build/obj/boot.o
 .rela.data.saradc_config_saradcconf
                0x00fcc290        0x0 build/obj/boot.o
 .rela.text.sbrk
                0x00fcc290        0x0 build/obj/boot.o
 .rela.text._Z14create_devicesv
                0x00fcc290        0x0 build/obj/boot.o
 .rela.text._Z14create_modulesv
                0x00fcc290        0x0 build/obj/boot.o
 .rela.rodata._ZTV16momentary_Device
                0x00fcc290        0x0 build/obj/boot.o
 .rela.rodata._ZTV12latch_Device
                0x00fcc290        0x0 build/obj/boot.o
 .rela.rodata._ZTV13toggle_Device
                0x00fcc290        0x0 build/obj/boot.o
 .rela.data._ZZ4sbrkE1p
                0x00fcc290        0x0 build/obj/boot.o
 .rela.text.__errno
                0x00fcc290        0x0 build/obj/boot.o
 .rela.text._Znwj
                0x00fcc290        0x0 build/obj/boot.o
 .rela.text._ZNSt9bad_allocD2Ev
                0x00fcc290        0x0 build/obj/boot.o
 .rela.text._ZNSt9bad_allocD0Ev
                0x00fcc290        0x0 build/obj/boot.o
 .rela.rodata._ZTISt9bad_alloc
                0x00fcc290        0x0 build/obj/boot.o
 .rela.rodata._ZTVSt9bad_alloc
                0x00fcc290        0x0 build/obj/boot.o
 .rela.sdata._ZTISt9exception
                0x00fcc290        0x0 build/obj/boot.o
 .rela.rodata._ZTISt13bad_exception
                0x00fcc290        0x0 build/obj/boot.o
 .rela.sdata._ZTIN10__cxxabiv115__forced_unwindE
                0x00fcc290        0x0 build/obj/boot.o
 .rela.sdata._ZTIN10__cxxabiv119__foreign_exceptionE
                0x00fcc290        0x0 build/obj/boot.o
 .rela.rodata._ZTVSt9exception
                0x00fcc290        0x0 build/obj/boot.o
 .rela.rodata._ZTVSt13bad_exception
                0x00fcc290        0x0 build/obj/boot.o
 .rela.rodata._ZTVN10__cxxabiv115__forced_unwindE
                0x00fcc290        0x0 build/obj/boot.o
 .rela.rodata._ZTVN10__cxxabiv119__foreign_exceptionE
                0x00fcc290        0x0 build/obj/boot.o
 .rela.text._ZN10__cxxabiv117__class_type_infoD2Ev
                0x00fcc290        0x0 build/obj/boot.o
 .rela.text._ZN10__cxxabiv117__class_type_infoD0Ev
                0x00fcc290        0x0 build/obj/boot.o
 .rela.rodata._ZTIN10__cxxabiv117__class_type_infoE
                0x00fcc290        0x0 build/obj/boot.o
 .rela.rodata._ZTVN10__cxxabiv117__class_type_infoE
                0x00fcc290        0x0 build/obj/boot.o
 .rela.text._ZN10__cxxabiv120__si_class_type_infoD2Ev
                0x00fcc290        0x0 build/obj/boot.o
 .rela.text._ZN10__cxxabiv120__si_class_type_infoD0Ev
                0x00fcc290        0x0 build/obj/boot.o
 .rela.rodata._ZTIN10__cxxabiv120__si_class_type_infoE
                0x00fcc290        0x0 build/obj/boot.o
 .rela.rodata._ZTVN10__cxxabiv120__si_class_type_infoE
                0x00fcc290        0x0 build/obj/boot.o
 .rela.text._ZSt9terminatev
                0x00fcc290        0x0 build/obj/boot.o
 .rela.text._ZSt10unexpectedv
                0x00fcc290        0x0 build/obj/boot.o
 .rela.text._ZSt13set_terminatePFvvE
                0x00fcc290        0x0 build/obj/boot.o
 .rela.text._ZSt13get_terminatev
                0x00fcc290        0x0 build/obj/boot.o
 .rela.text._ZSt14set_unexpectedPFvvE
                0x00fcc290        0x0 build/obj/boot.o
 .rela.text._ZSt14get_unexpectedv
                0x00fcc290        0x0 build/obj/boot.o
 .rela.eh_frame
                0x00fcc290        0x0 build/obj/boot.o
 .rela.text.__gxx_personality_v0
                0x00fcc290        0x0 build/obj/boot.o
 .rela.text.__cxa_call_unexpected
                0x00fcc290        0x0 build/obj/boot.o
 .rela.sdata._ZN10__cxxabiv119__terminate_handlerE
                0x00fcc290        0x0 build/obj/boot.o
 .rela.sdata._ZTISt9type_info
                0x00fcc290        0x0 build/obj/boot.o
 .rela.rodata._ZTVSt9type_info
                0x00fcc290        0x0 build/obj/boot.o
 .rela.text     0x00fcc290        0x0 build/obj/boot.o
 .rela.text._sbrk_r
                0x00fcc290        0x0 build/obj/boot.o
 .rela.text._kill_r
                0x00fcc290        0x0 build/obj/boot.o

.romdata        0x00fcc290        0x0
                0x00fcc290                __romdata_start__ = .

.stacks         0x400a8000     0x1000
                0x400a8000                . = ALIGN (0x8)
                0x400a8000                __irq_stack_base__ = .
                0x400a8000                . = (. + __irq_stack_size__)
                0x400a8000                . = ALIGN (0x8)
                0x400a8000                __irq_stack_end__ = .
                0x400a8000                __process_stack_base__ = .
                0x400a8000                __main_thread_stack_base__ = .
                0x400a9000                . = (. + __process_stack_size__)
 *fill*         0x400a8000     0x1000 
                0x400a9000                . = ALIGN (0x8)
                0x400a9000                __process_stack_end__ = .
                0x400a9000                __main_thread_stack_end__ = .

.data           0x400a9000      0xb08 load address 0x00fcc290
                0x400a9000                . = ALIGN (0x4)
                0x400a9000                __data_start__ = .
 *(.data)
 *(.data.*)
 .data.can_config_mcanconf_ext
                0x400a9000       0xc4 build/obj/can_lld_cfg.o
                0x400a9000                can_config_mcanconf_ext
 .data._saradcconf_ch_configs
                0x400a90c4       0x30 build/obj/saradc_lld_cfg.o
 .data.saradc_config_saradcconf
                0x400a90f4       0x3c build/obj/saradc_lld_cfg.o
                0x400a90f4                saradc_config_saradcconf
 .data.spc_mscr_io_init
                0x400a9130      0x144 build/obj/board.o
 .data.pal_default_config
                0x400a9274        0x8 build/obj/board.o
 .data.spc_mscr_mux_init
                0x400a927c       0x18 build/obj/board.o
 .data.eirqconf
                0x400a9294        0x8 build/obj/eirq_cfg.o
                0x400a9294                eirqconf
 .data._ZZ4sbrkE1p
                0x400a929c        0x4 build/obj/main.o
 .data.switcharm
                0x400a92a0        0x2 build/obj/main.o
                0x400a92a0                switcharm
 .data.pinconfig
                0x400a92a2       0x3c build/obj/main.o
                0x400a92a2                pinconfig
 *fill*         0x400a92de        0x2 
 .data.anp      0x400a92e0        0x4 build/obj/main.o
                0x400a92e0                anp
 .data.onboardLED
                0x400a92e4        0x4 build/obj/main.o
                0x400a92e4                onboardLED
 .data.impure_data
                0x400a92e8      0x418 c:/users/shehan/documents/environments/spc5_env/toolchain/bin/../lib/gcc/powerpc-eabivle/4.9.4/../../../../powerpc-eabivle/lib/e200z2\libc.a(lib_a-impure.o)
 .data.__malloc_av_
                0x400a9700      0x408 c:/users/shehan/documents/environments/spc5_env/toolchain/bin/../lib/gcc/powerpc-eabivle/4.9.4/../../../../powerpc-eabivle/lib/e200z2\libc.a(lib_a-mallocr.o)
                0x400a9700                __malloc_av_
 *(.gnu.linkonce.d.*)

.sdata          0x400a9b08       0x38 load address 0x00fccd98
                0x400a9b08                . = ALIGN (0x4)
                0x400b1b08                __sdata_start__ = (. + 0x8000)
 *(.sdata)
 .sdata         0x400a9b08        0x0 build/obj/boot.o
                0x400b1b08                _SDA_BASE_
 .sdata         0x400a9b08        0x8 c:/users/shehan/documents/environments/spc5_env/toolchain/bin/../lib/gcc/powerpc-eabivle/4.9.4/../../../../powerpc-eabivle/lib/e200z2\libc.a(lib_a-impure.o)
                0x400a9b08                _global_impure_ptr
                0x400a9b0c                _impure_ptr
 *(.sdata.*)
 .sdata._ZTISt9exception
                0x400a9b10        0x8 c:/users/shehan/documents/environments/spc5_env/toolchain/bin/../lib/gcc/powerpc-eabivle/4.9.4/../../../../powerpc-eabivle/lib/e200z2\libstdc++.a(eh_exception.o)
                0x400a9b10                typeinfo for std::exception
 .sdata._ZTIN10__cxxabiv115__forced_unwindE
                0x400a9b18        0x8 c:/users/shehan/documents/environments/spc5_env/toolchain/bin/../lib/gcc/powerpc-eabivle/4.9.4/../../../../powerpc-eabivle/lib/e200z2\libstdc++.a(eh_exception.o)
                0x400a9b18                typeinfo for __cxxabiv1::__forced_unwind
 .sdata._ZTIN10__cxxabiv119__foreign_exceptionE
                0x400a9b20        0x8 c:/users/shehan/documents/environments/spc5_env/toolchain/bin/../lib/gcc/powerpc-eabivle/4.9.4/../../../../powerpc-eabivle/lib/e200z2\libstdc++.a(eh_exception.o)
                0x400a9b20                typeinfo for __cxxabiv1::__foreign_exception
 .sdata._ZN10__cxxabiv120__unexpected_handlerE
                0x400a9b28        0x4 c:/users/shehan/documents/environments/spc5_env/toolchain/bin/../lib/gcc/powerpc-eabivle/4.9.4/../../../../powerpc-eabivle/lib/e200z2\libstdc++.a(eh_unex_handler.o)
                0x400a9b28                __cxxabiv1::__unexpected_handler
 .sdata._ZN10__cxxabiv119__terminate_handlerE
                0x400a9b2c        0x4 c:/users/shehan/documents/environments/spc5_env/toolchain/bin/../lib/gcc/powerpc-eabivle/4.9.4/../../../../powerpc-eabivle/lib/e200z2\libstdc++.a(eh_term_handler.o)
                0x400a9b2c                __cxxabiv1::__terminate_handler
 .sdata._ZTISt9type_info
                0x400a9b30        0x8 c:/users/shehan/documents/environments/spc5_env/toolchain/bin/../lib/gcc/powerpc-eabivle/4.9.4/../../../../powerpc-eabivle/lib/e200z2\libstdc++.a(tinfo.o)
                0x400a9b30                typeinfo for std::type_info
 .sdata.__malloc_trim_threshold
                0x400a9b38        0x4 c:/users/shehan/documents/environments/spc5_env/toolchain/bin/../lib/gcc/powerpc-eabivle/4.9.4/../../../../powerpc-eabivle/lib/e200z2\libc.a(lib_a-mallocr.o)
                0x400a9b38                __malloc_trim_threshold
 .sdata.__malloc_sbrk_base
                0x400a9b3c        0x4 c:/users/shehan/documents/environments/spc5_env/toolchain/bin/../lib/gcc/powerpc-eabivle/4.9.4/../../../../powerpc-eabivle/lib/e200z2\libc.a(lib_a-mallocr.o)
                0x400a9b3c                __malloc_sbrk_base
 *(.gnu.linkonce.s.*)
                0x400a9b40                __data_end__ = .

.sbss           0x400a9b40        0xc load address 0x00fccdd0
                0x400a9b40                __bss_start__ = .
 *(.sbss)
 *(.sbss.*)
 .sbss.__malloc_max_sbrked_mem
                0x400a9b40        0x4 c:/users/shehan/documents/environments/spc5_env/toolchain/bin/../lib/gcc/powerpc-eabivle/4.9.4/../../../../powerpc-eabivle/lib/e200z2\libc.a(lib_a-mallocr.o)
                0x400a9b40                __malloc_max_sbrked_mem
 .sbss.__malloc_top_pad
                0x400a9b44        0x4 c:/users/shehan/documents/environments/spc5_env/toolchain/bin/../lib/gcc/powerpc-eabivle/4.9.4/../../../../powerpc-eabivle/lib/e200z2\libc.a(lib_a-mallocr.o)
                0x400a9b44                __malloc_top_pad
 .sbss.__malloc_max_total_mem
                0x400a9b48        0x4 c:/users/shehan/documents/environments/spc5_env/toolchain/bin/../lib/gcc/powerpc-eabivle/4.9.4/../../../../powerpc-eabivle/lib/e200z2\libc.a(lib_a-mallocr.o)
                0x400a9b48                __malloc_max_total_mem
 *(.gnu.linkonce.sb.*)
 *(.scommon)

.bss            0x400a9b50      0xba8 load address 0x00fccde0
 *(.bss)
 .bss           0x400a9b50       0x92 c:/users/shehan/documents/environments/spc5_env/toolchain/bin/../lib/gcc/powerpc-eabivle/4.9.4/e200z2\libgcc.a(unwind-dw2.o)
 *fill*         0x400a9be2        0x2 
 .bss           0x400a9be4       0x14 c:/users/shehan/documents/environments/spc5_env/toolchain/bin/../lib/gcc/powerpc-eabivle/4.9.4/e200z2\libgcc.a(unwind-dw2-fde.o)
 *(.bss.*)
 .bss.channels  0x400a9bf8       0x40 build/obj/spc5_edma.o
 .bss.CAND7     0x400a9c38       0x10 build/obj/can_lld.o
                0x400a9c38                CAND7
 .bss.SARADC12DSV
                0x400a9c48        0xc build/obj/saradc_lld.o
                0x400a9c48                SARADC12DSV
 .bss.osalIsExtIntEnable
                0x400a9c54        0x4 build/obj/osal.o
 .bss.osalsystime
                0x400a9c58        0x4 build/obj/osal.o
 .bss.osal_ticks_per_sec
                0x400a9c5c        0x4 build/obj/osal.o
 .bss.osalTimeOps
                0x400a9c60       0x30 build/obj/osal.o
 .bss.osalIsrCnt
                0x400a9c90        0x4 build/obj/osal.o
 .bss.bms_fan   0x400a9c94        0x1 build/obj/main.o
                0x400a9c94                bms_fan
 *fill*         0x400a9c95        0x3 
 .bss.horn_unit
                0x400a9c98        0x4 build/obj/main.o
                0x400a9c98                horn_unit
 .bss.tf        0x400a9c9c        0x1 build/obj/main.o
                0x400a9c9c                tf
 .bss.debug_ctrl_temp
                0x400a9c9d        0x1 build/obj/main.o
                0x400a9c9d                debug_ctrl_temp
 .bss.debug_mtr_temp
                0x400a9c9e        0x1 build/obj/main.o
                0x400a9c9e                debug_mtr_temp
 .bss.temp      0x400a9c9f        0x1 build/obj/main.o
                0x400a9c9f                temp
 .bss.PDU_getData_i
                0x400a9ca0       0x16 build/obj/main.o
                0x400a9ca0                PDU_getData_i
 *fill*         0x400a9cb6        0x2 
 .bss.buttons   0x400a9cb8       0x8c build/obj/main.o
                0x400a9cb8                buttons
 .bss.debug_spress
                0x400a9d44        0x1 build/obj/main.o
                0x400a9d44                debug_spress
 *fill*         0x400a9d45        0x3 
 .bss.hbeam_btn
                0x400a9d48       0x14 build/obj/main.o
                0x400a9d48                hbeam_btn
 .bss._ZZ12pseudo_delaymE14previousMillis
                0x400a9d5c        0x4 build/obj/main.o
 .bss.devices   0x400a9d60       0x1c build/obj/main.o
                0x400a9d60                devices
 .bss.adc_cb    0x400a9d7c        0x1 build/obj/main.o
                0x400a9d7c                adc_cb
 .bss.ctrlr_fan
                0x400a9d7d        0x1 build/obj/main.o
                0x400a9d7d                ctrlr_fan
 .bss.L_handle_msg
                0x400a9d7e        0x1 build/obj/main.o
                0x400a9d7e                L_handle_msg
 *fill*         0x400a9d7f        0x1 
 .bss.headlight_unit
                0x400a9d80        0x4 build/obj/main.o
                0x400a9d80                headlight_unit
 .bss.bms_rx    0x400a9d84        0x1 build/obj/main.o
                0x400a9d84                bms_rx
 *fill*         0x400a9d85        0x3 
 .bss.fan_unit  0x400a9d88        0x4 build/obj/main.o
                0x400a9d88                fan_unit
 .bss.turnsignal_unit
                0x400a9d8c        0x4 build/obj/main.o
                0x400a9d8c                turnsignal_unit
 .bss.channels  0x400a9d90       0xf0 build/obj/main.o
                0x400a9d90                channels
 .bss.motor_fan
                0x400a9e80        0x1 build/obj/main.o
                0x400a9e80                motor_fan
 .bss.hbeam_state
                0x400a9e81        0x1 build/obj/main.o
                0x400a9e81                hbeam_state
 .bss.FD3_MSG1  0x400a9e82        0x8 build/obj/main.o
                0x400a9e82                FD3_MSG1
 .bss.debug_pass
                0x400a9e8a        0x1 build/obj/main.o
                0x400a9e8a                debug_pass
 .bss.debug_lpress
                0x400a9e8b        0x1 build/obj/main.o
                0x400a9e8b                debug_lpress
 .bss._ZZ4sbrkE4newp
                0x400a9e8c        0x4 build/obj/main.o
 .bss.fan_state
                0x400a9e90        0x1 build/obj/main.o
                0x400a9e90                fan_state
 *fill*         0x400a9e91        0x3 
 .bss.txf       0x400a9e94       0x14 build/obj/main.o
                0x400a9e94                txf
 .bss.adc_value
                0x400a9ea8       0x10 build/obj/main.o
                0x400a9ea8                adc_value
 .bss.R_handle_msg
                0x400a9eb8        0x1 build/obj/main.o
                0x400a9eb8                R_handle_msg
 *fill*         0x400a9eb9        0x3 
 .bss._ZL14emergency_used
                0x400a9ebc        0x4 c:/users/shehan/documents/environments/spc5_env/toolchain/bin/../lib/gcc/powerpc-eabivle/4.9.4/../../../../powerpc-eabivle/lib/e200z2\libstdc++.a(eh_alloc.o)
 .bss._ZL16emergency_buffer
                0x400a9ec0      0x800 c:/users/shehan/documents/environments/spc5_env/toolchain/bin/../lib/gcc/powerpc-eabivle/4.9.4/../../../../powerpc-eabivle/lib/e200z2\libstdc++.a(eh_alloc.o)
 .bss._ZN12_GLOBAL__N_113__new_handlerE
                0x400aa6c0        0x4 c:/users/shehan/documents/environments/spc5_env/toolchain/bin/../lib/gcc/powerpc-eabivle/4.9.4/../../../../powerpc-eabivle/lib/e200z2\libstdc++.a(new_handler.o)
 .bss._ZL10eh_globals
                0x400aa6c4        0x8 c:/users/shehan/documents/environments/spc5_env/toolchain/bin/../lib/gcc/powerpc-eabivle/4.9.4/../../../../powerpc-eabivle/lib/e200z2\libstdc++.a(eh_globals.o)
 .bss.__malloc_current_mallinfo
                0x400aa6cc       0x28 c:/users/shehan/documents/environments/spc5_env/toolchain/bin/../lib/gcc/powerpc-eabivle/4.9.4/../../../../powerpc-eabivle/lib/e200z2\libc.a(lib_a-mallocr.o)
                0x400aa6cc                __malloc_current_mallinfo
 *(.gnu.linkonce.b.*)
 *(COMMON)
 COMMON         0x400aa6f4        0x4 c:/users/shehan/documents/environments/spc5_env/toolchain/bin/../lib/gcc/powerpc-eabivle/4.9.4/../../../../powerpc-eabivle/lib/e200z2\libc.a(lib_a-reent.o)
                0x400aa6f4                errno
                0x400aa6f8                __bss_end__ = .
                0x400aa6f8                __heap_base__ = __bss_end__
                0x400c0000                __heap_end__ = __ram_end__
LOAD c:/users/shehan/documents/environments/spc5_env/toolchain/bin/../lib/gcc/powerpc-eabivle/4.9.4/../../../../powerpc-eabivle/lib/e200z2\libstdc++.a
LOAD c:/users/shehan/documents/environments/spc5_env/toolchain/bin/../lib/gcc/powerpc-eabivle/4.9.4/../../../../powerpc-eabivle/lib/e200z2\libm.a
LOAD c:/users/shehan/documents/environments/spc5_env/toolchain/bin/../lib/gcc/powerpc-eabivle/4.9.4/e200z2\libgcc.a
LOAD c:/users/shehan/documents/environments/spc5_env/toolchain/bin/../lib/gcc/powerpc-eabivle/4.9.4/../../../../powerpc-eabivle/lib/e200z2\libc.a
LOAD c:/users/shehan/documents/environments/spc5_env/toolchain/bin/../lib/gcc/powerpc-eabivle/4.9.4/e200z2\libgcc.a
OUTPUT(build/out.elf elf32-powerpc)

.iplt           0x400aa700        0x0 load address 0x00fcd990
 .iplt          0x400aa700        0x0 build/obj/boot.o

.PPC.EMB.apuinfo
                0x00000000       0x1c
 .PPC.EMB.apuinfo
                0x00000000       0x18 build/obj/boot.o
 .PPC.EMB.apuinfo
                0x00000018       0x18 build/obj/crt0.o
 .PPC.EMB.apuinfo
                0x00000030       0x18 build/obj/vectors.o
 .PPC.EMB.apuinfo
                0x00000048       0x18 build/obj/ivor.o
 .PPC.EMB.apuinfo
                0x00000060       0x18 build/obj/spc5_lld.o
 .PPC.EMB.apuinfo
                0x00000078       0x18 build/obj/spc5_edma.o
 .PPC.EMB.apuinfo
                0x00000090       0x1c build/obj/can_lld.o
 .PPC.EMB.apuinfo
                0x000000ac       0x18 build/obj/saradc_lld.o
 .PPC.EMB.apuinfo
                0x000000c4       0x18 build/obj/pal.o
 .PPC.EMB.apuinfo
                0x000000dc       0x18 build/obj/clock.o
 .PPC.EMB.apuinfo
                0x000000f4       0x18 build/obj/irq.o
 .PPC.EMB.apuinfo
                0x0000010c       0x18 build/obj/eirq.o
 .PPC.EMB.apuinfo
                0x00000124       0x18 build/obj/swirq.o
 .PPC.EMB.apuinfo
                0x0000013c       0x18 build/obj/osal.o
 .PPC.EMB.apuinfo
                0x00000154       0x18 build/obj/systimer.o
 .PPC.EMB.apuinfo
                0x0000016c       0x18 build/obj/board.o
 .PPC.EMB.apuinfo
                0x00000184       0x18 build/obj/irq_cfg.o
 .PPC.EMB.apuinfo
                0x0000019c       0x18 build/obj/swirq_cfg.o
 .PPC.EMB.apuinfo
                0x000001b4       0x18 build/obj/components.o
 .PPC.EMB.apuinfo
                0x000001cc       0x18 build/obj/main.o
 .PPC.EMB.apuinfo
                0x000001e4       0x18 c:/users/shehan/documents/environments/spc5_env/toolchain/bin/../lib/gcc/powerpc-eabivle/4.9.4/../../../../powerpc-eabivle/lib/e200z2\libc.a(lib_a-errno.o)
 .PPC.EMB.apuinfo
                0x000001fc       0x18 c:/users/shehan/documents/environments/spc5_env/toolchain/bin/../lib/gcc/powerpc-eabivle/4.9.4/../../../../powerpc-eabivle/lib/e200z2\libc.a(lib_a-memset.o)
 .PPC.EMB.apuinfo
                0x00000214       0x1c c:/users/shehan/documents/environments/spc5_env/toolchain/bin/../lib/gcc/powerpc-eabivle/4.9.4/../../../../powerpc-eabivle/lib/e200z2\libstdc++.a(new_op.o)
 .PPC.EMB.apuinfo
                0x00000230       0x18 c:/users/shehan/documents/environments/spc5_env/toolchain/bin/../lib/gcc/powerpc-eabivle/4.9.4/../../../../powerpc-eabivle/lib/e200z2\libstdc++.a(bad_alloc.o)
 .PPC.EMB.apuinfo
                0x00000248       0x18 c:/users/shehan/documents/environments/spc5_env/toolchain/bin/../lib/gcc/powerpc-eabivle/4.9.4/../../../../powerpc-eabivle/lib/e200z2\libstdc++.a(eh_exception.o)
 .PPC.EMB.apuinfo
                0x00000260       0x18 c:/users/shehan/documents/environments/spc5_env/toolchain/bin/../lib/gcc/powerpc-eabivle/4.9.4/../../../../powerpc-eabivle/lib/e200z2\libstdc++.a(eh_alloc.o)
 .PPC.EMB.apuinfo
                0x00000278       0x18 c:/users/shehan/documents/environments/spc5_env/toolchain/bin/../lib/gcc/powerpc-eabivle/4.9.4/../../../../powerpc-eabivle/lib/e200z2\libstdc++.a(pure.o)
 .PPC.EMB.apuinfo
                0x00000290       0x18 c:/users/shehan/documents/environments/spc5_env/toolchain/bin/../lib/gcc/powerpc-eabivle/4.9.4/../../../../powerpc-eabivle/lib/e200z2\libstdc++.a(del_op.o)
 .PPC.EMB.apuinfo
                0x000002a8       0x18 c:/users/shehan/documents/environments/spc5_env/toolchain/bin/../lib/gcc/powerpc-eabivle/4.9.4/../../../../powerpc-eabivle/lib/e200z2\libstdc++.a(eh_throw.o)
 .PPC.EMB.apuinfo
                0x000002c0       0x1c c:/users/shehan/documents/environments/spc5_env/toolchain/bin/../lib/gcc/powerpc-eabivle/4.9.4/../../../../powerpc-eabivle/lib/e200z2\libstdc++.a(class_type_info.o)
 .PPC.EMB.apuinfo
                0x000002dc       0x18 c:/users/shehan/documents/environments/spc5_env/toolchain/bin/../lib/gcc/powerpc-eabivle/4.9.4/../../../../powerpc-eabivle/lib/e200z2\libstdc++.a(new_handler.o)
 .PPC.EMB.apuinfo
                0x000002f4       0x1c c:/users/shehan/documents/environments/spc5_env/toolchain/bin/../lib/gcc/powerpc-eabivle/4.9.4/../../../../powerpc-eabivle/lib/e200z2\libstdc++.a(si_class_type_info.o)
 .PPC.EMB.apuinfo
                0x00000310       0x18 c:/users/shehan/documents/environments/spc5_env/toolchain/bin/../lib/gcc/powerpc-eabivle/4.9.4/../../../../powerpc-eabivle/lib/e200z2\libstdc++.a(eh_globals.o)
 .PPC.EMB.apuinfo
                0x00000328       0x18 c:/users/shehan/documents/environments/spc5_env/toolchain/bin/../lib/gcc/powerpc-eabivle/4.9.4/../../../../powerpc-eabivle/lib/e200z2\libstdc++.a(eh_terminate.o)
 .PPC.EMB.apuinfo
                0x00000340       0x1c c:/users/shehan/documents/environments/spc5_env/toolchain/bin/../lib/gcc/powerpc-eabivle/4.9.4/../../../../powerpc-eabivle/lib/e200z2\libstdc++.a(eh_personality.o)
 .PPC.EMB.apuinfo
                0x0000035c       0x1c c:/users/shehan/documents/environments/spc5_env/toolchain/bin/../lib/gcc/powerpc-eabivle/4.9.4/../../../../powerpc-eabivle/lib/e200z2\libstdc++.a(eh_catch.o)
 .PPC.EMB.apuinfo
                0x00000378       0x18 c:/users/shehan/documents/environments/spc5_env/toolchain/bin/../lib/gcc/powerpc-eabivle/4.9.4/../../../../powerpc-eabivle/lib/e200z2\libstdc++.a(tinfo.o)
 .PPC.EMB.apuinfo
                0x00000390       0x18 c:/users/shehan/documents/environments/spc5_env/toolchain/bin/../lib/gcc/powerpc-eabivle/4.9.4/../../../../powerpc-eabivle/lib/e200z2\libstdc++.a(eh_call.o)
 .PPC.EMB.apuinfo
                0x000003a8       0x18 c:/users/shehan/documents/environments/spc5_env/toolchain/bin/../lib/gcc/powerpc-eabivle/4.9.4/e200z2\libgcc.a(_fixunssfsi.o)
 .PPC.EMB.apuinfo
                0x000003c0       0x1c c:/users/shehan/documents/environments/spc5_env/toolchain/bin/../lib/gcc/powerpc-eabivle/4.9.4/e200z2\libgcc.a(_addsub_sf.o)
 .PPC.EMB.apuinfo
                0x000003dc       0x1c c:/users/shehan/documents/environments/spc5_env/toolchain/bin/../lib/gcc/powerpc-eabivle/4.9.4/e200z2\libgcc.a(_mul_sf.o)
 .PPC.EMB.apuinfo
                0x000003f8       0x18 c:/users/shehan/documents/environments/spc5_env/toolchain/bin/../lib/gcc/powerpc-eabivle/4.9.4/e200z2\libgcc.a(_div_sf.o)
 .PPC.EMB.apuinfo
                0x00000410       0x18 c:/users/shehan/documents/environments/spc5_env/toolchain/bin/../lib/gcc/powerpc-eabivle/4.9.4/e200z2\libgcc.a(_gt_sf.o)
 .PPC.EMB.apuinfo
                0x00000428       0x18 c:/users/shehan/documents/environments/spc5_env/toolchain/bin/../lib/gcc/powerpc-eabivle/4.9.4/e200z2\libgcc.a(_ge_sf.o)
 .PPC.EMB.apuinfo
                0x00000440       0x18 c:/users/shehan/documents/environments/spc5_env/toolchain/bin/../lib/gcc/powerpc-eabivle/4.9.4/e200z2\libgcc.a(_le_sf.o)
 .PPC.EMB.apuinfo
                0x00000458       0x18 c:/users/shehan/documents/environments/spc5_env/toolchain/bin/../lib/gcc/powerpc-eabivle/4.9.4/e200z2\libgcc.a(_si_to_sf.o)
 .PPC.EMB.apuinfo
                0x00000470       0x1c c:/users/shehan/documents/environments/spc5_env/toolchain/bin/../lib/gcc/powerpc-eabivle/4.9.4/e200z2\libgcc.a(_sf_to_si.o)
 .PPC.EMB.apuinfo
                0x0000048c       0x18 c:/users/shehan/documents/environments/spc5_env/toolchain/bin/../lib/gcc/powerpc-eabivle/4.9.4/e200z2\libgcc.a(_sf_to_df.o)
 .PPC.EMB.apuinfo
                0x000004a4       0x18 c:/users/shehan/documents/environments/spc5_env/toolchain/bin/../lib/gcc/powerpc-eabivle/4.9.4/e200z2\libgcc.a(_usi_to_sf.o)
 .PPC.EMB.apuinfo
                0x000004bc       0x1c c:/users/shehan/documents/environments/spc5_env/toolchain/bin/../lib/gcc/powerpc-eabivle/4.9.4/e200z2\libgcc.a(_addsub_df.o)
 .PPC.EMB.apuinfo
                0x000004d8       0x1c c:/users/shehan/documents/environments/spc5_env/toolchain/bin/../lib/gcc/powerpc-eabivle/4.9.4/e200z2\libgcc.a(_mul_df.o)
 .PPC.EMB.apuinfo
                0x000004f4       0x18 c:/users/shehan/documents/environments/spc5_env/toolchain/bin/../lib/gcc/powerpc-eabivle/4.9.4/e200z2\libgcc.a(_make_df.o)
 .PPC.EMB.apuinfo
                0x0000050c       0x1c c:/users/shehan/documents/environments/spc5_env/toolchain/bin/../lib/gcc/powerpc-eabivle/4.9.4/e200z2\libgcc.a(_df_to_sf.o)
 .PPC.EMB.apuinfo
                0x00000528       0x1c c:/users/shehan/documents/environments/spc5_env/toolchain/bin/../lib/gcc/powerpc-eabivle/4.9.4/e200z2\libgcc.a(unwind-dw2.o)
 .PPC.EMB.apuinfo
                0x00000544       0x1c c:/users/shehan/documents/environments/spc5_env/toolchain/bin/../lib/gcc/powerpc-eabivle/4.9.4/e200z2\libgcc.a(unwind-dw2-fde.o)
 .PPC.EMB.apuinfo
                0x00000560       0x18 c:/users/shehan/documents/environments/spc5_env/toolchain/bin/../lib/gcc/powerpc-eabivle/4.9.4/e200z2\libgcc.a(_pack_sf.o)
 .PPC.EMB.apuinfo
                0x00000578       0x18 c:/users/shehan/documents/environments/spc5_env/toolchain/bin/../lib/gcc/powerpc-eabivle/4.9.4/e200z2\libgcc.a(_unpack_sf.o)
 .PPC.EMB.apuinfo
                0x00000590       0x1c c:/users/shehan/documents/environments/spc5_env/toolchain/bin/../lib/gcc/powerpc-eabivle/4.9.4/e200z2\libgcc.a(_fpcmp_parts_sf.o)
 .PPC.EMB.apuinfo
                0x000005ac       0x18 c:/users/shehan/documents/environments/spc5_env/toolchain/bin/../lib/gcc/powerpc-eabivle/4.9.4/e200z2\libgcc.a(_make_sf.o)
 .PPC.EMB.apuinfo
                0x000005c4       0x1c c:/users/shehan/documents/environments/spc5_env/toolchain/bin/../lib/gcc/powerpc-eabivle/4.9.4/e200z2\libgcc.a(_pack_df.o)
 .PPC.EMB.apuinfo
                0x000005e0       0x18 c:/users/shehan/documents/environments/spc5_env/toolchain/bin/../lib/gcc/powerpc-eabivle/4.9.4/e200z2\libgcc.a(_unpack_df.o)
 .PPC.EMB.apuinfo
                0x000005f8       0x18 c:/users/shehan/documents/environments/spc5_env/toolchain/bin/../lib/gcc/powerpc-eabivle/4.9.4/../../../../powerpc-eabivle/lib/e200z2\libc.a(lib_a-abort.o)
 .PPC.EMB.apuinfo
                0x00000610       0x18 c:/users/shehan/documents/environments/spc5_env/toolchain/bin/../lib/gcc/powerpc-eabivle/4.9.4/../../../../powerpc-eabivle/lib/e200z2\libc.a(lib_a-malloc.o)
 .PPC.EMB.apuinfo
                0x00000628       0x18 c:/users/shehan/documents/environments/spc5_env/toolchain/bin/../lib/gcc/powerpc-eabivle/4.9.4/../../../../powerpc-eabivle/lib/e200z2\libc.a(lib_a-mallocr.o)
 .PPC.EMB.apuinfo
                0x00000640       0x18 c:/users/shehan/documents/environments/spc5_env/toolchain/bin/../lib/gcc/powerpc-eabivle/4.9.4/../../../../powerpc-eabivle/lib/e200z2\libc.a(lib_a-memcpy.o)
 .PPC.EMB.apuinfo
                0x00000658       0x18 c:/users/shehan/documents/environments/spc5_env/toolchain/bin/../lib/gcc/powerpc-eabivle/4.9.4/../../../../powerpc-eabivle/lib/e200z2\libc.a(lib_a-mlock.o)
 .PPC.EMB.apuinfo
                0x00000670       0x18 c:/users/shehan/documents/environments/spc5_env/toolchain/bin/../lib/gcc/powerpc-eabivle/4.9.4/../../../../powerpc-eabivle/lib/e200z2\libc.a(lib_a-sbrkr.o)
 .PPC.EMB.apuinfo
                0x00000688       0x18 c:/users/shehan/documents/environments/spc5_env/toolchain/bin/../lib/gcc/powerpc-eabivle/4.9.4/../../../../powerpc-eabivle/lib/e200z2\libc.a(lib_a-signal.o)
 .PPC.EMB.apuinfo
                0x000006a0       0x18 c:/users/shehan/documents/environments/spc5_env/toolchain/bin/../lib/gcc/powerpc-eabivle/4.9.4/../../../../powerpc-eabivle/lib/e200z2\libc.a(lib_a-signalr.o)
 .PPC.EMB.apuinfo
                0x000006b8       0x18 c:/users/shehan/documents/environments/spc5_env/toolchain/bin/../lib/gcc/powerpc-eabivle/4.9.4/../../../../powerpc-eabivle/lib/e200z2\libc.a(lib_a-strcmp.o)
 .PPC.EMB.apuinfo
                0x000006d0       0x18 c:/users/shehan/documents/environments/spc5_env/toolchain/bin/../lib/gcc/powerpc-eabivle/4.9.4/../../../../powerpc-eabivle/lib/e200z2\libc.a(lib_a-strlen.o)
 .PPC.EMB.apuinfo
                0x000006e8       0x18 c:/users/shehan/documents/environments/spc5_env/toolchain/bin/../lib/gcc/powerpc-eabivle/4.9.4/../../../../powerpc-eabivle/lib/e200z2\libc.a(lib_a-freer.o)
 .PPC.EMB.apuinfo
                0x00000700       0x18 c:/users/shehan/documents/environments/spc5_env/toolchain/bin/../lib/gcc/powerpc-eabivle/4.9.4/../../../../powerpc-eabivle/lib/e200z2\libc.a(lib_a-reent.o)
 .PPC.EMB.apuinfo
                0x00000718       0x18 c:/users/shehan/documents/environments/spc5_env/toolchain/bin/../lib/gcc/powerpc-eabivle/4.9.4/e200z2\libgcc.a(e200crtresxgpr.o)

.comment        0x00000000       0x8e
 .comment       0x00000000       0x8e build/obj/spc5_lld.o
                                 0x8f (size before relaxing)
 .comment       0x0000008e       0x8f build/obj/spc5_edma.o
 .comment       0x0000008e       0x8f build/obj/can_lld.o
 .comment       0x0000008e       0x8f build/obj/saradc_lld.o
 .comment       0x0000008e       0x8f build/obj/pal.o
 .comment       0x0000008e       0x8f build/obj/clock.o
 .comment       0x0000008e       0x8f build/obj/irq.o
 .comment       0x0000008e       0x8f build/obj/eirq.o
 .comment       0x0000008e       0x8f build/obj/swirq.o
 .comment       0x0000008e       0x8f build/obj/osal.o
 .comment       0x0000008e       0x8f build/obj/systimer.o
 .comment       0x0000008e       0x8f build/obj/can_lld_cfg.o
 .comment       0x0000008e       0x8f build/obj/saradc_lld_cfg.o
 .comment       0x0000008e       0x8f build/obj/board.o
 .comment       0x0000008e       0x8f build/obj/irq_cfg.o
 .comment       0x0000008e       0x8f build/obj/eirq_cfg.o
 .comment       0x0000008e       0x8f build/obj/swirq_cfg.o
 .comment       0x0000008e       0x8f build/obj/components.o
 .comment       0x0000008e       0x8f build/obj/main.o

.gnu.attributes
                0x00000000       0x10
 .gnu.attributes
                0x00000000       0x10 build/obj/saradc_lld.o
 .gnu.attributes
                0x00000010       0x10 build/obj/main.o
 .gnu.attributes
                0x00000020       0x10 c:/users/shehan/documents/environments/spc5_env/toolchain/bin/../lib/gcc/powerpc-eabivle/4.9.4/e200z2\libgcc.a(_fixunssfsi.o)
 .gnu.attributes
                0x00000030       0x10 c:/users/shehan/documents/environments/spc5_env/toolchain/bin/../lib/gcc/powerpc-eabivle/4.9.4/e200z2\libgcc.a(_addsub_sf.o)
 .gnu.attributes
                0x00000040       0x10 c:/users/shehan/documents/environments/spc5_env/toolchain/bin/../lib/gcc/powerpc-eabivle/4.9.4/e200z2\libgcc.a(_mul_sf.o)
 .gnu.attributes
                0x00000050       0x10 c:/users/shehan/documents/environments/spc5_env/toolchain/bin/../lib/gcc/powerpc-eabivle/4.9.4/e200z2\libgcc.a(_div_sf.o)
 .gnu.attributes
                0x00000060       0x10 c:/users/shehan/documents/environments/spc5_env/toolchain/bin/../lib/gcc/powerpc-eabivle/4.9.4/e200z2\libgcc.a(_gt_sf.o)
 .gnu.attributes
                0x00000070       0x10 c:/users/shehan/documents/environments/spc5_env/toolchain/bin/../lib/gcc/powerpc-eabivle/4.9.4/e200z2\libgcc.a(_ge_sf.o)
 .gnu.attributes
                0x00000080       0x10 c:/users/shehan/documents/environments/spc5_env/toolchain/bin/../lib/gcc/powerpc-eabivle/4.9.4/e200z2\libgcc.a(_le_sf.o)
 .gnu.attributes
                0x00000090       0x10 c:/users/shehan/documents/environments/spc5_env/toolchain/bin/../lib/gcc/powerpc-eabivle/4.9.4/e200z2\libgcc.a(_si_to_sf.o)
 .gnu.attributes
                0x000000a0       0x10 c:/users/shehan/documents/environments/spc5_env/toolchain/bin/../lib/gcc/powerpc-eabivle/4.9.4/e200z2\libgcc.a(_sf_to_si.o)
 .gnu.attributes
                0x000000b0       0x10 c:/users/shehan/documents/environments/spc5_env/toolchain/bin/../lib/gcc/powerpc-eabivle/4.9.4/e200z2\libgcc.a(_sf_to_df.o)
 .gnu.attributes
                0x000000c0       0x10 c:/users/shehan/documents/environments/spc5_env/toolchain/bin/../lib/gcc/powerpc-eabivle/4.9.4/e200z2\libgcc.a(_usi_to_sf.o)
 .gnu.attributes
                0x000000d0       0x10 c:/users/shehan/documents/environments/spc5_env/toolchain/bin/../lib/gcc/powerpc-eabivle/4.9.4/e200z2\libgcc.a(_addsub_df.o)
 .gnu.attributes
                0x000000e0       0x10 c:/users/shehan/documents/environments/spc5_env/toolchain/bin/../lib/gcc/powerpc-eabivle/4.9.4/e200z2\libgcc.a(_mul_df.o)
 .gnu.attributes
                0x000000f0       0x10 c:/users/shehan/documents/environments/spc5_env/toolchain/bin/../lib/gcc/powerpc-eabivle/4.9.4/e200z2\libgcc.a(_make_df.o)
 .gnu.attributes
                0x00000100       0x10 c:/users/shehan/documents/environments/spc5_env/toolchain/bin/../lib/gcc/powerpc-eabivle/4.9.4/e200z2\libgcc.a(_df_to_sf.o)
 .gnu.attributes
                0x00000110       0x10 c:/users/shehan/documents/environments/spc5_env/toolchain/bin/../lib/gcc/powerpc-eabivle/4.9.4/e200z2\libgcc.a(_pack_sf.o)
 .gnu.attributes
                0x00000120       0x10 c:/users/shehan/documents/environments/spc5_env/toolchain/bin/../lib/gcc/powerpc-eabivle/4.9.4/e200z2\libgcc.a(_make_sf.o)
 .gnu.attributes
                0x00000130       0x10 c:/users/shehan/documents/environments/spc5_env/toolchain/bin/../lib/gcc/powerpc-eabivle/4.9.4/e200z2\libgcc.a(_pack_df.o)

.debug_info     0x00000000    0x39ddc
 .debug_info    0x00000000       0xd6 build/obj/spc5_lld.o
 .debug_info    0x000000d6     0x2887 build/obj/spc5_edma.o
 .debug_info    0x0000295d     0x4531 build/obj/can_lld.o
 .debug_info    0x00006e8e     0x991a build/obj/saradc_lld.o
 .debug_info    0x000107a8     0x137b build/obj/pal.o
 .debug_info    0x00011b23     0x7cc4 build/obj/clock.o
 .debug_info    0x000197e7      0x104 build/obj/irq.o
 .debug_info    0x000198eb     0x1383 build/obj/eirq.o
 .debug_info    0x0001ac6e      0x1a7 build/obj/swirq.o
 .debug_info    0x0001ae15      0x6a7 build/obj/osal.o
 .debug_info    0x0001b4bc      0x4f4 build/obj/systimer.o
 .debug_info    0x0001b9b0     0x37da build/obj/can_lld_cfg.o
 .debug_info    0x0001f18a     0x95e3 build/obj/saradc_lld_cfg.o
 .debug_info    0x0002876d      0x20a build/obj/board.o
 .debug_info    0x00028977       0x8c build/obj/irq_cfg.o
 .debug_info    0x00028a03      0x126 build/obj/eirq_cfg.o
 .debug_info    0x00028b29       0x8c build/obj/swirq_cfg.o
 .debug_info    0x00028bb5      0x10d build/obj/components.o
 .debug_info    0x00028cc2    0x1111a build/obj/main.o

.debug_abbrev   0x00000000     0x24d5
 .debug_abbrev  0x00000000       0x70 build/obj/spc5_lld.o
 .debug_abbrev  0x00000070      0x322 build/obj/spc5_edma.o
 .debug_abbrev  0x00000392      0x377 build/obj/can_lld.o
 .debug_abbrev  0x00000709      0x2be build/obj/saradc_lld.o
 .debug_abbrev  0x000009c7      0x1b9 build/obj/pal.o
 .debug_abbrev  0x00000b80      0x25e build/obj/clock.o
 .debug_abbrev  0x00000dde       0xaa build/obj/irq.o
 .debug_abbrev  0x00000e88      0x1cc build/obj/eirq.o
 .debug_abbrev  0x00001054       0x9f build/obj/swirq.o
 .debug_abbrev  0x000010f3      0x357 build/obj/osal.o
 .debug_abbrev  0x0000144a      0x14f build/obj/systimer.o
 .debug_abbrev  0x00001599      0x19c build/obj/can_lld_cfg.o
 .debug_abbrev  0x00001735      0x128 build/obj/saradc_lld_cfg.o
 .debug_abbrev  0x0000185d       0xcd build/obj/board.o
 .debug_abbrev  0x0000192a       0x44 build/obj/irq_cfg.o
 .debug_abbrev  0x0000196e       0x82 build/obj/eirq_cfg.o
 .debug_abbrev  0x000019f0       0x44 build/obj/swirq_cfg.o
 .debug_abbrev  0x00001a34       0x81 build/obj/components.o
 .debug_abbrev  0x00001ab5      0xa20 build/obj/main.o

.debug_loc      0x00000000     0x3823
 .debug_loc     0x00000000       0x2c build/obj/spc5_lld.o
 .debug_loc     0x0000002c      0x5b9 build/obj/spc5_edma.o
 .debug_loc     0x000005e5      0xfd7 build/obj/can_lld.o
 .debug_loc     0x000015bc      0x5ec build/obj/saradc_lld.o
 .debug_loc     0x00001ba8       0xbb build/obj/pal.o
 .debug_loc     0x00001c63      0x14d build/obj/clock.o
 .debug_loc     0x00001db0       0x2c build/obj/irq.o
 .debug_loc     0x00001ddc      0x3a5 build/obj/eirq.o
 .debug_loc     0x00002181       0xe9 build/obj/swirq.o
 .debug_loc     0x0000226a      0x22e build/obj/osal.o
 .debug_loc     0x00002498       0x58 build/obj/systimer.o
 .debug_loc     0x000024f0       0x2c build/obj/components.o
 .debug_loc     0x0000251c     0x1307 build/obj/main.o

.debug_aranges  0x00000000      0x600
 .debug_aranges
                0x00000000       0x20 build/obj/spc5_lld.o
 .debug_aranges
                0x00000020       0xb8 build/obj/spc5_edma.o
 .debug_aranges
                0x000000d8       0x70 build/obj/can_lld.o
 .debug_aranges
                0x00000148       0x50 build/obj/saradc_lld.o
 .debug_aranges
                0x00000198       0x38 build/obj/pal.o
 .debug_aranges
                0x000001d0       0x48 build/obj/clock.o
 .debug_aranges
                0x00000218       0x28 build/obj/irq.o
 .debug_aranges
                0x00000240       0x48 build/obj/eirq.o
 .debug_aranges
                0x00000288       0x40 build/obj/swirq.o
 .debug_aranges
                0x000002c8       0xa8 build/obj/osal.o
 .debug_aranges
                0x00000370       0x28 build/obj/systimer.o
 .debug_aranges
                0x00000398       0x18 build/obj/can_lld_cfg.o
 .debug_aranges
                0x000003b0       0x18 build/obj/saradc_lld_cfg.o
 .debug_aranges
                0x000003c8       0x20 build/obj/board.o
 .debug_aranges
                0x000003e8       0x20 build/obj/irq_cfg.o
 .debug_aranges
                0x00000408       0x18 build/obj/eirq_cfg.o
 .debug_aranges
                0x00000420       0x20 build/obj/swirq_cfg.o
 .debug_aranges
                0x00000440       0x20 build/obj/components.o
 .debug_aranges
                0x00000460      0x1a0 build/obj/main.o

.debug_ranges   0x00000000      0xba8
 .debug_ranges  0x00000000       0x10 build/obj/spc5_lld.o
 .debug_ranges  0x00000010       0xc8 build/obj/spc5_edma.o
 .debug_ranges  0x000000d8       0xe0 build/obj/can_lld.o
 .debug_ranges  0x000001b8       0xd8 build/obj/saradc_lld.o
 .debug_ranges  0x00000290       0x28 build/obj/pal.o
 .debug_ranges  0x000002b8       0xd0 build/obj/clock.o
 .debug_ranges  0x00000388       0x18 build/obj/irq.o
 .debug_ranges  0x000003a0       0xb8 build/obj/eirq.o
 .debug_ranges  0x00000458       0x30 build/obj/swirq.o
 .debug_ranges  0x00000488      0x1a0 build/obj/osal.o
 .debug_ranges  0x00000628       0x18 build/obj/systimer.o
 .debug_ranges  0x00000640       0x10 build/obj/board.o
 .debug_ranges  0x00000650       0x10 build/obj/irq_cfg.o
 .debug_ranges  0x00000660       0x10 build/obj/swirq_cfg.o
 .debug_ranges  0x00000670       0x10 build/obj/components.o
 .debug_ranges  0x00000680      0x528 build/obj/main.o

.debug_line     0x00000000     0x3d2f
 .debug_line    0x00000000       0xf2 build/obj/spc5_lld.o
 .debug_line    0x000000f2      0x57f build/obj/spc5_edma.o
 .debug_line    0x00000671      0x791 build/obj/can_lld.o
 .debug_line    0x00000e02      0x431 build/obj/saradc_lld.o
 .debug_line    0x00001233      0x27e build/obj/pal.o
 .debug_line    0x000014b1      0x374 build/obj/clock.o
 .debug_line    0x00001825      0x1d0 build/obj/irq.o
 .debug_line    0x000019f5      0x307 build/obj/eirq.o
 .debug_line    0x00001cfc      0x1b6 build/obj/swirq.o
 .debug_line    0x00001eb2      0x3dd build/obj/osal.o
 .debug_line    0x0000228f      0x1f5 build/obj/systimer.o
 .debug_line    0x00002484      0x1da build/obj/can_lld_cfg.o
 .debug_line    0x0000265e      0x1e0 build/obj/saradc_lld_cfg.o
 .debug_line    0x0000283e      0x194 build/obj/board.o
 .debug_line    0x000029d2       0x66 build/obj/irq_cfg.o
 .debug_line    0x00002a38      0x163 build/obj/eirq_cfg.o
 .debug_line    0x00002b9b       0x68 build/obj/swirq_cfg.o
 .debug_line    0x00002c03      0x1b4 build/obj/components.o
 .debug_line    0x00002db7      0xf78 build/obj/main.o

.debug_str      0x00000000     0x9cee
 .debug_str     0x00000000      0x26b build/obj/spc5_lld.o
                                0x29f (size before relaxing)
 .debug_str     0x0000026b      0xabe build/obj/spc5_edma.o
                                0xd29 (size before relaxing)
 .debug_str     0x00000d29      0xee4 build/obj/can_lld.o
                               0x120c (size before relaxing)
 .debug_str     0x00001c0d     0x4290 build/obj/saradc_lld.o
                               0x46ff (size before relaxing)
 .debug_str     0x00005e9d      0x45a build/obj/pal.o
                                0x7f6 (size before relaxing)
 .debug_str     0x000062f7     0x1ae3 build/obj/clock.o
                               0x1eb5 (size before relaxing)
 .debug_str     0x00007dda       0x4d build/obj/irq.o
                                0x2a3 (size before relaxing)
 .debug_str     0x00007e27       0xe3 build/obj/eirq.o
                                0x78e (size before relaxing)
 .debug_str     0x00007f0a       0x89 build/obj/swirq.o
                                0x2e5 (size before relaxing)
 .debug_str     0x00007f93      0x33c build/obj/osal.o
                                0x588 (size before relaxing)
 .debug_str     0x000082cf       0x79 build/obj/systimer.o
                                0x352 (size before relaxing)
 .debug_str     0x00008348       0x75 build/obj/can_lld_cfg.o
                               0x103c (size before relaxing)
 .debug_str     0x000083bd       0xbc build/obj/saradc_lld_cfg.o
                               0x4652 (size before relaxing)
 .debug_str     0x00008479       0x86 build/obj/board.o
                                0x340 (size before relaxing)
 .debug_str     0x000084ff       0x37 build/obj/irq_cfg.o
                                0x261 (size before relaxing)
 .debug_str     0x00008536       0x38 build/obj/eirq_cfg.o
                                0x2d3 (size before relaxing)
 .debug_str     0x0000856e       0x39 build/obj/swirq_cfg.o
                                0x266 (size before relaxing)
 .debug_str     0x000085a7       0x29 build/obj/components.o
                                0x286 (size before relaxing)
 .debug_str     0x000085d0     0x171e build/obj/main.o
                               0x6e5d (size before relaxing)

.debug_frame    0x00000000     0x1ab8
 .debug_frame   0x00000000       0x30 build/obj/spc5_lld.o
 .debug_frame   0x00000030      0x374 build/obj/spc5_edma.o
 .debug_frame   0x000003a4      0x208 build/obj/can_lld.o
 .debug_frame   0x000005ac      0x140 build/obj/saradc_lld.o
 .debug_frame   0x000006ec       0x64 build/obj/pal.o
 .debug_frame   0x00000750       0x90 build/obj/clock.o
 .debug_frame   0x000007e0       0x40 build/obj/irq.o
 .debug_frame   0x00000820      0x184 build/obj/eirq.o
 .debug_frame   0x000009a4       0x60 build/obj/swirq.o
 .debug_frame   0x00000a04      0x188 build/obj/osal.o
 .debug_frame   0x00000b8c       0x44 build/obj/systimer.o
 .debug_frame   0x00000bd0       0x20 build/obj/board.o
 .debug_frame   0x00000bf0       0x20 build/obj/irq_cfg.o
 .debug_frame   0x00000c10       0x20 build/obj/swirq_cfg.o
 .debug_frame   0x00000c30       0x30 build/obj/components.o
 .debug_frame   0x00000c60      0x5d8 build/obj/main.o
 .debug_frame   0x00001238       0x20 c:/users/shehan/documents/environments/spc5_env/toolchain/bin/../lib/gcc/powerpc-eabivle/4.9.4/../../../../powerpc-eabivle/lib/e200z2\libc.a(lib_a-errno.o)
 .debug_frame   0x00001258       0x20 c:/users/shehan/documents/environments/spc5_env/toolchain/bin/../lib/gcc/powerpc-eabivle/4.9.4/../../../../powerpc-eabivle/lib/e200z2\libc.a(lib_a-memset.o)
 .debug_frame   0x00001278       0x3c c:/users/shehan/documents/environments/spc5_env/toolchain/bin/../lib/gcc/powerpc-eabivle/4.9.4/e200z2\libgcc.a(_fixunssfsi.o)
 .debug_frame   0x000012b4       0x7c c:/users/shehan/documents/environments/spc5_env/toolchain/bin/../lib/gcc/powerpc-eabivle/4.9.4/e200z2\libgcc.a(_addsub_sf.o)
 .debug_frame   0x00001330       0x3c c:/users/shehan/documents/environments/spc5_env/toolchain/bin/../lib/gcc/powerpc-eabivle/4.9.4/e200z2\libgcc.a(_mul_sf.o)
 .debug_frame   0x0000136c       0x30 c:/users/shehan/documents/environments/spc5_env/toolchain/bin/../lib/gcc/powerpc-eabivle/4.9.4/e200z2\libgcc.a(_div_sf.o)
 .debug_frame   0x0000139c       0x38 c:/users/shehan/documents/environments/spc5_env/toolchain/bin/../lib/gcc/powerpc-eabivle/4.9.4/e200z2\libgcc.a(_gt_sf.o)
 .debug_frame   0x000013d4       0x38 c:/users/shehan/documents/environments/spc5_env/toolchain/bin/../lib/gcc/powerpc-eabivle/4.9.4/e200z2\libgcc.a(_ge_sf.o)
 .debug_frame   0x0000140c       0x38 c:/users/shehan/documents/environments/spc5_env/toolchain/bin/../lib/gcc/powerpc-eabivle/4.9.4/e200z2\libgcc.a(_le_sf.o)
 .debug_frame   0x00001444       0x30 c:/users/shehan/documents/environments/spc5_env/toolchain/bin/../lib/gcc/powerpc-eabivle/4.9.4/e200z2\libgcc.a(_si_to_sf.o)
 .debug_frame   0x00001474       0x40 c:/users/shehan/documents/environments/spc5_env/toolchain/bin/../lib/gcc/powerpc-eabivle/4.9.4/e200z2\libgcc.a(_sf_to_si.o)
 .debug_frame   0x000014b4       0x30 c:/users/shehan/documents/environments/spc5_env/toolchain/bin/../lib/gcc/powerpc-eabivle/4.9.4/e200z2\libgcc.a(_sf_to_df.o)
 .debug_frame   0x000014e4       0x44 c:/users/shehan/documents/environments/spc5_env/toolchain/bin/../lib/gcc/powerpc-eabivle/4.9.4/e200z2\libgcc.a(_usi_to_sf.o)
 .debug_frame   0x00001528       0x9c c:/users/shehan/documents/environments/spc5_env/toolchain/bin/../lib/gcc/powerpc-eabivle/4.9.4/e200z2\libgcc.a(_addsub_df.o)
 .debug_frame   0x000015c4       0x4c c:/users/shehan/documents/environments/spc5_env/toolchain/bin/../lib/gcc/powerpc-eabivle/4.9.4/e200z2\libgcc.a(_mul_df.o)
 .debug_frame   0x00001610       0x30 c:/users/shehan/documents/environments/spc5_env/toolchain/bin/../lib/gcc/powerpc-eabivle/4.9.4/e200z2\libgcc.a(_make_df.o)
 .debug_frame   0x00001640       0x30 c:/users/shehan/documents/environments/spc5_env/toolchain/bin/../lib/gcc/powerpc-eabivle/4.9.4/e200z2\libgcc.a(_df_to_sf.o)
 .debug_frame   0x00001670       0x20 c:/users/shehan/documents/environments/spc5_env/toolchain/bin/../lib/gcc/powerpc-eabivle/4.9.4/e200z2\libgcc.a(_pack_sf.o)
 .debug_frame   0x00001690       0x20 c:/users/shehan/documents/environments/spc5_env/toolchain/bin/../lib/gcc/powerpc-eabivle/4.9.4/e200z2\libgcc.a(_unpack_sf.o)
 .debug_frame   0x000016b0       0x20 c:/users/shehan/documents/environments/spc5_env/toolchain/bin/../lib/gcc/powerpc-eabivle/4.9.4/e200z2\libgcc.a(_fpcmp_parts_sf.o)
 .debug_frame   0x000016d0       0x30 c:/users/shehan/documents/environments/spc5_env/toolchain/bin/../lib/gcc/powerpc-eabivle/4.9.4/e200z2\libgcc.a(_make_sf.o)
 .debug_frame   0x00001700       0x48 c:/users/shehan/documents/environments/spc5_env/toolchain/bin/../lib/gcc/powerpc-eabivle/4.9.4/e200z2\libgcc.a(_pack_df.o)
 .debug_frame   0x00001748       0x20 c:/users/shehan/documents/environments/spc5_env/toolchain/bin/../lib/gcc/powerpc-eabivle/4.9.4/e200z2\libgcc.a(_unpack_df.o)
 .debug_frame   0x00001768       0x28 c:/users/shehan/documents/environments/spc5_env/toolchain/bin/../lib/gcc/powerpc-eabivle/4.9.4/../../../../powerpc-eabivle/lib/e200z2\libc.a(lib_a-abort.o)
 .debug_frame   0x00001790       0x30 c:/users/shehan/documents/environments/spc5_env/toolchain/bin/../lib/gcc/powerpc-eabivle/4.9.4/../../../../powerpc-eabivle/lib/e200z2\libc.a(lib_a-malloc.o)
 .debug_frame   0x000017c0       0x4c c:/users/shehan/documents/environments/spc5_env/toolchain/bin/../lib/gcc/powerpc-eabivle/4.9.4/../../../../powerpc-eabivle/lib/e200z2\libc.a(lib_a-mallocr.o)
 .debug_frame   0x0000180c       0x20 c:/users/shehan/documents/environments/spc5_env/toolchain/bin/../lib/gcc/powerpc-eabivle/4.9.4/../../../../powerpc-eabivle/lib/e200z2\libc.a(lib_a-memcpy.o)
 .debug_frame   0x0000182c       0x30 c:/users/shehan/documents/environments/spc5_env/toolchain/bin/../lib/gcc/powerpc-eabivle/4.9.4/../../../../powerpc-eabivle/lib/e200z2\libc.a(lib_a-mlock.o)
 .debug_frame   0x0000185c       0x30 c:/users/shehan/documents/environments/spc5_env/toolchain/bin/../lib/gcc/powerpc-eabivle/4.9.4/../../../../powerpc-eabivle/lib/e200z2\libc.a(lib_a-sbrkr.o)
 .debug_frame   0x0000188c       0xe0 c:/users/shehan/documents/environments/spc5_env/toolchain/bin/../lib/gcc/powerpc-eabivle/4.9.4/../../../../powerpc-eabivle/lib/e200z2\libc.a(lib_a-signal.o)
 .debug_frame   0x0000196c       0x40 c:/users/shehan/documents/environments/spc5_env/toolchain/bin/../lib/gcc/powerpc-eabivle/4.9.4/../../../../powerpc-eabivle/lib/e200z2\libc.a(lib_a-signalr.o)
 .debug_frame   0x000019ac       0x20 c:/users/shehan/documents/environments/spc5_env/toolchain/bin/../lib/gcc/powerpc-eabivle/4.9.4/../../../../powerpc-eabivle/lib/e200z2\libc.a(lib_a-strcmp.o)
 .debug_frame   0x000019cc       0x20 c:/users/shehan/documents/environments/spc5_env/toolchain/bin/../lib/gcc/powerpc-eabivle/4.9.4/../../../../powerpc-eabivle/lib/e200z2\libc.a(lib_a-strlen.o)
 .debug_frame   0x000019ec       0x68 c:/users/shehan/documents/environments/spc5_env/toolchain/bin/../lib/gcc/powerpc-eabivle/4.9.4/../../../../powerpc-eabivle/lib/e200z2\libc.a(lib_a-freer.o)
 .debug_frame   0x00001a54       0x64 c:/users/shehan/documents/environments/spc5_env/toolchain/bin/../lib/gcc/powerpc-eabivle/4.9.4/../../../../powerpc-eabivle/lib/e200z2\libc.a(lib_a-reent.o)

Cross Reference Table

Symbol                                            File
ADC_init                                          build/obj/main.o
CAND7                                             build/obj/can_lld.o
                                                  build/obj/main.o
CAN_init                                          build/obj/main.o
CAN_send                                          build/obj/main.o
Channel::activate()                               build/obj/main.o
Channel::channel_off_impl()                       build/obj/main.o
Channel::channel_on_impl()                        build/obj/main.o
Channel::diagnose_en_impl()                       build/obj/main.o
Channel::evaluate_fault()                         build/obj/main.o
Channel::get_current()                            build/obj/main.o
Channel::latch_reset_impl()                       build/obj/main.o
FD3_MSG1                                          build/obj/main.o
FD3_MSG2                                          build/obj/main.o
HeadLight_Module::activate()                      build/obj/main.o
Horn_Module::activate()                           build/obj/main.o
IVORS                                             build/obj/boot.o
L_handle_msg                                      build/obj/main.o
Left_handle_msg(CANRxFrame)                       build/obj/main.o
PDU_FAN_Module::activate()                        build/obj/main.o
PDU_getData_i                                     build/obj/main.o
PDU_getData_read(CANRxFrame)                      build/obj/main.o
PDU_setData_i                                     build/obj/main.o
R_handle_msg                                      build/obj/main.o
Right_handle_msg(CANRxFrame)                      build/obj/main.o
SARADC12DSV                                       build/obj/saradc_lld.o
                                                  build/obj/main.o
SPCGetSystemClock                                 build/obj/clock.o
SPCSetPeripheralClockMode                         build/obj/clock.o
                                                  build/obj/systimer.o
                                                  build/obj/pal.o
                                                  build/obj/saradc_lld.o
                                                  build/obj/can_lld.o
                                                  build/obj/spc5_edma.o
SPCSetRunMode                                     build/obj/clock.o
TurnSignal_Module::activate()                     build/obj/main.o
Wiper_Module::activate()                          build/obj/main.o
_IVOR0                                            build/obj/boot.o
_IVOR1                                            build/obj/boot.o
_IVOR10                                           build/obj/boot.o
_IVOR11                                           build/obj/boot.o
_IVOR12                                           build/obj/boot.o
_IVOR13                                           build/obj/boot.o
_IVOR14                                           build/obj/boot.o
_IVOR15                                           build/obj/boot.o
_IVOR2                                            build/obj/boot.o
_IVOR3                                            build/obj/boot.o
_IVOR4                                            build/obj/ivor.o
                                                  build/obj/boot.o
_IVOR5                                            build/obj/boot.o
_IVOR6                                            build/obj/boot.o
_IVOR7                                            build/obj/boot.o
_IVOR8                                            build/obj/boot.o
_IVOR9                                            build/obj/boot.o
_SDA2_BASE_                                       build/obj/boot.o
_SDA_BASE_                                        build/obj/boot.o
_Unwind_Backtrace                                 c:/users/shehan/documents/environments/spc5_env/toolchain/bin/../lib/gcc/powerpc-eabivle/4.9.4/e200z2\libgcc.a(unwind-dw2.o)
_Unwind_DeleteException                           c:/users/shehan/documents/environments/spc5_env/toolchain/bin/../lib/gcc/powerpc-eabivle/4.9.4/e200z2\libgcc.a(unwind-dw2.o)
                                                  c:/users/shehan/documents/environments/spc5_env/toolchain/bin/../lib/gcc/powerpc-eabivle/4.9.4/../../../../powerpc-eabivle/lib/e200z2\libstdc++.a(eh_catch.o)
_Unwind_FindEnclosingFunction                     c:/users/shehan/documents/environments/spc5_env/toolchain/bin/../lib/gcc/powerpc-eabivle/4.9.4/e200z2\libgcc.a(unwind-dw2.o)
_Unwind_Find_FDE                                  c:/users/shehan/documents/environments/spc5_env/toolchain/bin/../lib/gcc/powerpc-eabivle/4.9.4/e200z2\libgcc.a(unwind-dw2-fde.o)
                                                  c:/users/shehan/documents/environments/spc5_env/toolchain/bin/../lib/gcc/powerpc-eabivle/4.9.4/e200z2\libgcc.a(unwind-dw2.o)
_Unwind_ForcedUnwind                              c:/users/shehan/documents/environments/spc5_env/toolchain/bin/../lib/gcc/powerpc-eabivle/4.9.4/e200z2\libgcc.a(unwind-dw2.o)
_Unwind_GetCFA                                    c:/users/shehan/documents/environments/spc5_env/toolchain/bin/../lib/gcc/powerpc-eabivle/4.9.4/e200z2\libgcc.a(unwind-dw2.o)
_Unwind_GetDataRelBase                            c:/users/shehan/documents/environments/spc5_env/toolchain/bin/../lib/gcc/powerpc-eabivle/4.9.4/e200z2\libgcc.a(unwind-dw2.o)
                                                  c:/users/shehan/documents/environments/spc5_env/toolchain/bin/../lib/gcc/powerpc-eabivle/4.9.4/../../../../powerpc-eabivle/lib/e200z2\libstdc++.a(eh_personality.o)
_Unwind_GetGR                                     c:/users/shehan/documents/environments/spc5_env/toolchain/bin/../lib/gcc/powerpc-eabivle/4.9.4/e200z2\libgcc.a(unwind-dw2.o)
_Unwind_GetIP                                     c:/users/shehan/documents/environments/spc5_env/toolchain/bin/../lib/gcc/powerpc-eabivle/4.9.4/e200z2\libgcc.a(unwind-dw2.o)
_Unwind_GetIPInfo                                 c:/users/shehan/documents/environments/spc5_env/toolchain/bin/../lib/gcc/powerpc-eabivle/4.9.4/e200z2\libgcc.a(unwind-dw2.o)
                                                  c:/users/shehan/documents/environments/spc5_env/toolchain/bin/../lib/gcc/powerpc-eabivle/4.9.4/../../../../powerpc-eabivle/lib/e200z2\libstdc++.a(eh_personality.o)
_Unwind_GetLanguageSpecificData                   c:/users/shehan/documents/environments/spc5_env/toolchain/bin/../lib/gcc/powerpc-eabivle/4.9.4/e200z2\libgcc.a(unwind-dw2.o)
                                                  c:/users/shehan/documents/environments/spc5_env/toolchain/bin/../lib/gcc/powerpc-eabivle/4.9.4/../../../../powerpc-eabivle/lib/e200z2\libstdc++.a(eh_personality.o)
_Unwind_GetRegionStart                            c:/users/shehan/documents/environments/spc5_env/toolchain/bin/../lib/gcc/powerpc-eabivle/4.9.4/e200z2\libgcc.a(unwind-dw2.o)
                                                  c:/users/shehan/documents/environments/spc5_env/toolchain/bin/../lib/gcc/powerpc-eabivle/4.9.4/../../../../powerpc-eabivle/lib/e200z2\libstdc++.a(eh_personality.o)
_Unwind_GetTextRelBase                            c:/users/shehan/documents/environments/spc5_env/toolchain/bin/../lib/gcc/powerpc-eabivle/4.9.4/e200z2\libgcc.a(unwind-dw2.o)
                                                  c:/users/shehan/documents/environments/spc5_env/toolchain/bin/../lib/gcc/powerpc-eabivle/4.9.4/../../../../powerpc-eabivle/lib/e200z2\libstdc++.a(eh_personality.o)
_Unwind_RaiseException                            c:/users/shehan/documents/environments/spc5_env/toolchain/bin/../lib/gcc/powerpc-eabivle/4.9.4/e200z2\libgcc.a(unwind-dw2.o)
                                                  c:/users/shehan/documents/environments/spc5_env/toolchain/bin/../lib/gcc/powerpc-eabivle/4.9.4/../../../../powerpc-eabivle/lib/e200z2\libstdc++.a(eh_throw.o)
_Unwind_Resume                                    c:/users/shehan/documents/environments/spc5_env/toolchain/bin/../lib/gcc/powerpc-eabivle/4.9.4/e200z2\libgcc.a(unwind-dw2.o)
                                                  c:/users/shehan/documents/environments/spc5_env/toolchain/bin/../lib/gcc/powerpc-eabivle/4.9.4/../../../../powerpc-eabivle/lib/e200z2\libstdc++.a(eh_personality.o)
                                                  c:/users/shehan/documents/environments/spc5_env/toolchain/bin/../lib/gcc/powerpc-eabivle/4.9.4/../../../../powerpc-eabivle/lib/e200z2\libstdc++.a(eh_terminate.o)
_Unwind_Resume_or_Rethrow                         c:/users/shehan/documents/environments/spc5_env/toolchain/bin/../lib/gcc/powerpc-eabivle/4.9.4/e200z2\libgcc.a(unwind-dw2.o)
                                                  c:/users/shehan/documents/environments/spc5_env/toolchain/bin/../lib/gcc/powerpc-eabivle/4.9.4/../../../../powerpc-eabivle/lib/e200z2\libstdc++.a(eh_throw.o)
_Unwind_SetGR                                     c:/users/shehan/documents/environments/spc5_env/toolchain/bin/../lib/gcc/powerpc-eabivle/4.9.4/e200z2\libgcc.a(unwind-dw2.o)
                                                  c:/users/shehan/documents/environments/spc5_env/toolchain/bin/../lib/gcc/powerpc-eabivle/4.9.4/../../../../powerpc-eabivle/lib/e200z2\libstdc++.a(eh_personality.o)
_Unwind_SetIP                                     c:/users/shehan/documents/environments/spc5_env/toolchain/bin/../lib/gcc/powerpc-eabivle/4.9.4/e200z2\libgcc.a(unwind-dw2.o)
                                                  c:/users/shehan/documents/environments/spc5_env/toolchain/bin/../lib/gcc/powerpc-eabivle/4.9.4/../../../../powerpc-eabivle/lib/e200z2\libstdc++.a(eh_personality.o)
__adddf3                                          c:/users/shehan/documents/environments/spc5_env/toolchain/bin/../lib/gcc/powerpc-eabivle/4.9.4/e200z2\libgcc.a(_addsub_df.o)
__addsf3                                          c:/users/shehan/documents/environments/spc5_env/toolchain/bin/../lib/gcc/powerpc-eabivle/4.9.4/e200z2\libgcc.a(_addsub_sf.o)
__bss_end__                                       build/obj/crt0.o
__bss_start__                                     build/obj/crt0.o
__cxa_allocate_dependent_exception                c:/users/shehan/documents/environments/spc5_env/toolchain/bin/../lib/gcc/powerpc-eabivle/4.9.4/../../../../powerpc-eabivle/lib/e200z2\libstdc++.a(eh_alloc.o)
__cxa_allocate_exception                          c:/users/shehan/documents/environments/spc5_env/toolchain/bin/../lib/gcc/powerpc-eabivle/4.9.4/../../../../powerpc-eabivle/lib/e200z2\libstdc++.a(eh_alloc.o)
                                                  c:/users/shehan/documents/environments/spc5_env/toolchain/bin/../lib/gcc/powerpc-eabivle/4.9.4/../../../../powerpc-eabivle/lib/e200z2\libstdc++.a(eh_personality.o)
                                                  c:/users/shehan/documents/environments/spc5_env/toolchain/bin/../lib/gcc/powerpc-eabivle/4.9.4/../../../../powerpc-eabivle/lib/e200z2\libstdc++.a(new_op.o)
__cxa_begin_catch                                 c:/users/shehan/documents/environments/spc5_env/toolchain/bin/../lib/gcc/powerpc-eabivle/4.9.4/../../../../powerpc-eabivle/lib/e200z2\libstdc++.a(eh_catch.o)
                                                  c:/users/shehan/documents/environments/spc5_env/toolchain/bin/../lib/gcc/powerpc-eabivle/4.9.4/../../../../powerpc-eabivle/lib/e200z2\libstdc++.a(eh_call.o)
                                                  c:/users/shehan/documents/environments/spc5_env/toolchain/bin/../lib/gcc/powerpc-eabivle/4.9.4/../../../../powerpc-eabivle/lib/e200z2\libstdc++.a(eh_personality.o)
                                                  c:/users/shehan/documents/environments/spc5_env/toolchain/bin/../lib/gcc/powerpc-eabivle/4.9.4/../../../../powerpc-eabivle/lib/e200z2\libstdc++.a(eh_terminate.o)
                                                  c:/users/shehan/documents/environments/spc5_env/toolchain/bin/../lib/gcc/powerpc-eabivle/4.9.4/../../../../powerpc-eabivle/lib/e200z2\libstdc++.a(eh_throw.o)
__cxa_call_terminate                              c:/users/shehan/documents/environments/spc5_env/toolchain/bin/../lib/gcc/powerpc-eabivle/4.9.4/../../../../powerpc-eabivle/lib/e200z2\libstdc++.a(eh_call.o)
                                                  c:/users/shehan/documents/environments/spc5_env/toolchain/bin/../lib/gcc/powerpc-eabivle/4.9.4/../../../../powerpc-eabivle/lib/e200z2\libstdc++.a(eh_personality.o)
__cxa_call_unexpected                             c:/users/shehan/documents/environments/spc5_env/toolchain/bin/../lib/gcc/powerpc-eabivle/4.9.4/../../../../powerpc-eabivle/lib/e200z2\libstdc++.a(eh_personality.o)
                                                  c:/users/shehan/documents/environments/spc5_env/toolchain/bin/../lib/gcc/powerpc-eabivle/4.9.4/../../../../powerpc-eabivle/lib/e200z2\libstdc++.a(eh_terminate.o)
__cxa_deleted_virtual                             c:/users/shehan/documents/environments/spc5_env/toolchain/bin/../lib/gcc/powerpc-eabivle/4.9.4/../../../../powerpc-eabivle/lib/e200z2\libstdc++.a(pure.o)
__cxa_end_catch                                   c:/users/shehan/documents/environments/spc5_env/toolchain/bin/../lib/gcc/powerpc-eabivle/4.9.4/../../../../powerpc-eabivle/lib/e200z2\libstdc++.a(eh_catch.o)
                                                  c:/users/shehan/documents/environments/spc5_env/toolchain/bin/../lib/gcc/powerpc-eabivle/4.9.4/../../../../powerpc-eabivle/lib/e200z2\libstdc++.a(eh_personality.o)
                                                  c:/users/shehan/documents/environments/spc5_env/toolchain/bin/../lib/gcc/powerpc-eabivle/4.9.4/../../../../powerpc-eabivle/lib/e200z2\libstdc++.a(eh_terminate.o)
__cxa_free_dependent_exception                    c:/users/shehan/documents/environments/spc5_env/toolchain/bin/../lib/gcc/powerpc-eabivle/4.9.4/../../../../powerpc-eabivle/lib/e200z2\libstdc++.a(eh_alloc.o)
__cxa_free_exception                              c:/users/shehan/documents/environments/spc5_env/toolchain/bin/../lib/gcc/powerpc-eabivle/4.9.4/../../../../powerpc-eabivle/lib/e200z2\libstdc++.a(eh_alloc.o)
                                                  c:/users/shehan/documents/environments/spc5_env/toolchain/bin/../lib/gcc/powerpc-eabivle/4.9.4/../../../../powerpc-eabivle/lib/e200z2\libstdc++.a(eh_throw.o)
__cxa_get_exception_ptr                           c:/users/shehan/documents/environments/spc5_env/toolchain/bin/../lib/gcc/powerpc-eabivle/4.9.4/../../../../powerpc-eabivle/lib/e200z2\libstdc++.a(eh_catch.o)
__cxa_get_globals                                 c:/users/shehan/documents/environments/spc5_env/toolchain/bin/../lib/gcc/powerpc-eabivle/4.9.4/../../../../powerpc-eabivle/lib/e200z2\libstdc++.a(eh_globals.o)
                                                  c:/users/shehan/documents/environments/spc5_env/toolchain/bin/../lib/gcc/powerpc-eabivle/4.9.4/../../../../powerpc-eabivle/lib/e200z2\libstdc++.a(eh_catch.o)
                                                  c:/users/shehan/documents/environments/spc5_env/toolchain/bin/../lib/gcc/powerpc-eabivle/4.9.4/../../../../powerpc-eabivle/lib/e200z2\libstdc++.a(eh_throw.o)
__cxa_get_globals_fast                            c:/users/shehan/documents/environments/spc5_env/toolchain/bin/../lib/gcc/powerpc-eabivle/4.9.4/../../../../powerpc-eabivle/lib/e200z2\libstdc++.a(eh_globals.o)
                                                  c:/users/shehan/documents/environments/spc5_env/toolchain/bin/../lib/gcc/powerpc-eabivle/4.9.4/../../../../powerpc-eabivle/lib/e200z2\libstdc++.a(eh_catch.o)
                                                  c:/users/shehan/documents/environments/spc5_env/toolchain/bin/../lib/gcc/powerpc-eabivle/4.9.4/../../../../powerpc-eabivle/lib/e200z2\libstdc++.a(eh_personality.o)
__cxa_pure_virtual                                c:/users/shehan/documents/environments/spc5_env/toolchain/bin/../lib/gcc/powerpc-eabivle/4.9.4/../../../../powerpc-eabivle/lib/e200z2\libstdc++.a(pure.o)
                                                  c:/users/shehan/documents/environments/spc5_env/toolchain/bin/../lib/gcc/powerpc-eabivle/4.9.4/../../../../powerpc-eabivle/lib/e200z2\libstdc++.a(eh_exception.o)
__cxa_rethrow                                     c:/users/shehan/documents/environments/spc5_env/toolchain/bin/../lib/gcc/powerpc-eabivle/4.9.4/../../../../powerpc-eabivle/lib/e200z2\libstdc++.a(eh_throw.o)
                                                  c:/users/shehan/documents/environments/spc5_env/toolchain/bin/../lib/gcc/powerpc-eabivle/4.9.4/../../../../powerpc-eabivle/lib/e200z2\libstdc++.a(eh_personality.o)
__cxa_throw                                       c:/users/shehan/documents/environments/spc5_env/toolchain/bin/../lib/gcc/powerpc-eabivle/4.9.4/../../../../powerpc-eabivle/lib/e200z2\libstdc++.a(eh_throw.o)
                                                  c:/users/shehan/documents/environments/spc5_env/toolchain/bin/../lib/gcc/powerpc-eabivle/4.9.4/../../../../powerpc-eabivle/lib/e200z2\libstdc++.a(eh_personality.o)
                                                  c:/users/shehan/documents/environments/spc5_env/toolchain/bin/../lib/gcc/powerpc-eabivle/4.9.4/../../../../powerpc-eabivle/lib/e200z2\libstdc++.a(new_op.o)
__cxxabiv1::__class_type_info::__do_catch(std::type_info const*, void**, unsigned int) const c:/users/shehan/documents/environments/spc5_env/toolchain/bin/../lib/gcc/powerpc-eabivle/4.9.4/../../../../powerpc-eabivle/lib/e200z2\libstdc++.a(class_type_info.o)
                                                  c:/users/shehan/documents/environments/spc5_env/toolchain/bin/../lib/gcc/powerpc-eabivle/4.9.4/../../../../powerpc-eabivle/lib/e200z2\libstdc++.a(si_class_type_info.o)
__cxxabiv1::__class_type_info::__do_dyncast(int, __cxxabiv1::__class_type_info::__sub_kind, __cxxabiv1::__class_type_info const*, void const*, __cxxabiv1::__class_type_info const*, void const*, __cxxabiv1::__class_type_info::__dyncast_result&) const c:/users/shehan/documents/environments/spc5_env/toolchain/bin/../lib/gcc/powerpc-eabivle/4.9.4/../../../../powerpc-eabivle/lib/e200z2\libstdc++.a(class_type_info.o)
__cxxabiv1::__class_type_info::__do_find_public_src(int, void const*, __cxxabiv1::__class_type_info const*, void const*) const c:/users/shehan/documents/environments/spc5_env/toolchain/bin/../lib/gcc/powerpc-eabivle/4.9.4/../../../../powerpc-eabivle/lib/e200z2\libstdc++.a(class_type_info.o)
__cxxabiv1::__class_type_info::__do_upcast(__cxxabiv1::__class_type_info const*, void const*, __cxxabiv1::__class_type_info::__upcast_result&) const c:/users/shehan/documents/environments/spc5_env/toolchain/bin/../lib/gcc/powerpc-eabivle/4.9.4/../../../../powerpc-eabivle/lib/e200z2\libstdc++.a(class_type_info.o)
                                                  c:/users/shehan/documents/environments/spc5_env/toolchain/bin/../lib/gcc/powerpc-eabivle/4.9.4/../../../../powerpc-eabivle/lib/e200z2\libstdc++.a(si_class_type_info.o)
__cxxabiv1::__class_type_info::__do_upcast(__cxxabiv1::__class_type_info const*, void**) const c:/users/shehan/documents/environments/spc5_env/toolchain/bin/../lib/gcc/powerpc-eabivle/4.9.4/../../../../powerpc-eabivle/lib/e200z2\libstdc++.a(class_type_info.o)
                                                  c:/users/shehan/documents/environments/spc5_env/toolchain/bin/../lib/gcc/powerpc-eabivle/4.9.4/../../../../powerpc-eabivle/lib/e200z2\libstdc++.a(si_class_type_info.o)
__cxxabiv1::__class_type_info::~__class_type_info() c:/users/shehan/documents/environments/spc5_env/toolchain/bin/../lib/gcc/powerpc-eabivle/4.9.4/../../../../powerpc-eabivle/lib/e200z2\libstdc++.a(class_type_info.o)
__cxxabiv1::__class_type_info::~__class_type_info() c:/users/shehan/documents/environments/spc5_env/toolchain/bin/../lib/gcc/powerpc-eabivle/4.9.4/../../../../powerpc-eabivle/lib/e200z2\libstdc++.a(class_type_info.o)
                                                  c:/users/shehan/documents/environments/spc5_env/toolchain/bin/../lib/gcc/powerpc-eabivle/4.9.4/../../../../powerpc-eabivle/lib/e200z2\libstdc++.a(si_class_type_info.o)
__cxxabiv1::__class_type_info::~__class_type_info() c:/users/shehan/documents/environments/spc5_env/toolchain/bin/../lib/gcc/powerpc-eabivle/4.9.4/../../../../powerpc-eabivle/lib/e200z2\libstdc++.a(class_type_info.o)
__cxxabiv1::__forced_unwind::~__forced_unwind()   c:/users/shehan/documents/environments/spc5_env/toolchain/bin/../lib/gcc/powerpc-eabivle/4.9.4/../../../../powerpc-eabivle/lib/e200z2\libstdc++.a(eh_exception.o)
__cxxabiv1::__forced_unwind::~__forced_unwind()   c:/users/shehan/documents/environments/spc5_env/toolchain/bin/../lib/gcc/powerpc-eabivle/4.9.4/../../../../powerpc-eabivle/lib/e200z2\libstdc++.a(eh_exception.o)
__cxxabiv1::__forced_unwind::~__forced_unwind()   c:/users/shehan/documents/environments/spc5_env/toolchain/bin/../lib/gcc/powerpc-eabivle/4.9.4/../../../../powerpc-eabivle/lib/e200z2\libstdc++.a(eh_exception.o)
__cxxabiv1::__foreign_exception::~__foreign_exception() c:/users/shehan/documents/environments/spc5_env/toolchain/bin/../lib/gcc/powerpc-eabivle/4.9.4/../../../../powerpc-eabivle/lib/e200z2\libstdc++.a(eh_exception.o)
__cxxabiv1::__foreign_exception::~__foreign_exception() c:/users/shehan/documents/environments/spc5_env/toolchain/bin/../lib/gcc/powerpc-eabivle/4.9.4/../../../../powerpc-eabivle/lib/e200z2\libstdc++.a(eh_exception.o)
__cxxabiv1::__foreign_exception::~__foreign_exception() c:/users/shehan/documents/environments/spc5_env/toolchain/bin/../lib/gcc/powerpc-eabivle/4.9.4/../../../../powerpc-eabivle/lib/e200z2\libstdc++.a(eh_exception.o)
__cxxabiv1::__si_class_type_info::__do_dyncast(int, __cxxabiv1::__class_type_info::__sub_kind, __cxxabiv1::__class_type_info const*, void const*, __cxxabiv1::__class_type_info const*, void const*, __cxxabiv1::__class_type_info::__dyncast_result&) const c:/users/shehan/documents/environments/spc5_env/toolchain/bin/../lib/gcc/powerpc-eabivle/4.9.4/../../../../powerpc-eabivle/lib/e200z2\libstdc++.a(si_class_type_info.o)
__cxxabiv1::__si_class_type_info::__do_find_public_src(int, void const*, __cxxabiv1::__class_type_info const*, void const*) const c:/users/shehan/documents/environments/spc5_env/toolchain/bin/../lib/gcc/powerpc-eabivle/4.9.4/../../../../powerpc-eabivle/lib/e200z2\libstdc++.a(si_class_type_info.o)
__cxxabiv1::__si_class_type_info::__do_upcast(__cxxabiv1::__class_type_info const*, void const*, __cxxabiv1::__class_type_info::__upcast_result&) const c:/users/shehan/documents/environments/spc5_env/toolchain/bin/../lib/gcc/powerpc-eabivle/4.9.4/../../../../powerpc-eabivle/lib/e200z2\libstdc++.a(si_class_type_info.o)
__cxxabiv1::__si_class_type_info::~__si_class_type_info() c:/users/shehan/documents/environments/spc5_env/toolchain/bin/../lib/gcc/powerpc-eabivle/4.9.4/../../../../powerpc-eabivle/lib/e200z2\libstdc++.a(si_class_type_info.o)
__cxxabiv1::__si_class_type_info::~__si_class_type_info() c:/users/shehan/documents/environments/spc5_env/toolchain/bin/../lib/gcc/powerpc-eabivle/4.9.4/../../../../powerpc-eabivle/lib/e200z2\libstdc++.a(si_class_type_info.o)
__cxxabiv1::__si_class_type_info::~__si_class_type_info() c:/users/shehan/documents/environments/spc5_env/toolchain/bin/../lib/gcc/powerpc-eabivle/4.9.4/../../../../powerpc-eabivle/lib/e200z2\libstdc++.a(si_class_type_info.o)
__cxxabiv1::__terminate(void (*)())               c:/users/shehan/documents/environments/spc5_env/toolchain/bin/../lib/gcc/powerpc-eabivle/4.9.4/../../../../powerpc-eabivle/lib/e200z2\libstdc++.a(eh_terminate.o)
                                                  c:/users/shehan/documents/environments/spc5_env/toolchain/bin/../lib/gcc/powerpc-eabivle/4.9.4/../../../../powerpc-eabivle/lib/e200z2\libstdc++.a(eh_call.o)
                                                  c:/users/shehan/documents/environments/spc5_env/toolchain/bin/../lib/gcc/powerpc-eabivle/4.9.4/../../../../powerpc-eabivle/lib/e200z2\libstdc++.a(eh_personality.o)
                                                  c:/users/shehan/documents/environments/spc5_env/toolchain/bin/../lib/gcc/powerpc-eabivle/4.9.4/../../../../powerpc-eabivle/lib/e200z2\libstdc++.a(eh_throw.o)
__cxxabiv1::__terminate_handler                   c:/users/shehan/documents/environments/spc5_env/toolchain/bin/../lib/gcc/powerpc-eabivle/4.9.4/../../../../powerpc-eabivle/lib/e200z2\libstdc++.a(eh_term_handler.o)
                                                  c:/users/shehan/documents/environments/spc5_env/toolchain/bin/../lib/gcc/powerpc-eabivle/4.9.4/../../../../powerpc-eabivle/lib/e200z2\libstdc++.a(eh_terminate.o)
__cxxabiv1::__unexpected(void (*)())              c:/users/shehan/documents/environments/spc5_env/toolchain/bin/../lib/gcc/powerpc-eabivle/4.9.4/../../../../powerpc-eabivle/lib/e200z2\libstdc++.a(eh_terminate.o)
                                                  c:/users/shehan/documents/environments/spc5_env/toolchain/bin/../lib/gcc/powerpc-eabivle/4.9.4/../../../../powerpc-eabivle/lib/e200z2\libstdc++.a(eh_personality.o)
__cxxabiv1::__unexpected_handler                  c:/users/shehan/documents/environments/spc5_env/toolchain/bin/../lib/gcc/powerpc-eabivle/4.9.4/../../../../powerpc-eabivle/lib/e200z2\libstdc++.a(eh_unex_handler.o)
                                                  c:/users/shehan/documents/environments/spc5_env/toolchain/bin/../lib/gcc/powerpc-eabivle/4.9.4/../../../../powerpc-eabivle/lib/e200z2\libstdc++.a(eh_terminate.o)
__data_end__                                      build/obj/crt0.o
__data_start__                                    build/obj/crt0.o
__deregister_frame                                c:/users/shehan/documents/environments/spc5_env/toolchain/bin/../lib/gcc/powerpc-eabivle/4.9.4/e200z2\libgcc.a(unwind-dw2-fde.o)
__deregister_frame_info                           c:/users/shehan/documents/environments/spc5_env/toolchain/bin/../lib/gcc/powerpc-eabivle/4.9.4/e200z2\libgcc.a(unwind-dw2-fde.o)
__deregister_frame_info_bases                     c:/users/shehan/documents/environments/spc5_env/toolchain/bin/../lib/gcc/powerpc-eabivle/4.9.4/e200z2\libgcc.a(unwind-dw2-fde.o)
__divsf3                                          c:/users/shehan/documents/environments/spc5_env/toolchain/bin/../lib/gcc/powerpc-eabivle/4.9.4/e200z2\libgcc.a(_div_sf.o)
                                                  build/obj/saradc_lld.o
__eabi                                            build/obj/crt0.o
                                                  build/obj/main.o
__early_init                                      build/obj/clock.o
                                                  build/obj/crt0.o
__errno                                           c:/users/shehan/documents/environments/spc5_env/toolchain/bin/../lib/gcc/powerpc-eabivle/4.9.4/../../../../powerpc-eabivle/lib/e200z2\libc.a(lib_a-errno.o)
                                                  build/obj/main.o
__extendsfdf2                                     c:/users/shehan/documents/environments/spc5_env/toolchain/bin/../lib/gcc/powerpc-eabivle/4.9.4/e200z2\libgcc.a(_sf_to_df.o)
                                                  build/obj/main.o
__fixsfsi                                         c:/users/shehan/documents/environments/spc5_env/toolchain/bin/../lib/gcc/powerpc-eabivle/4.9.4/e200z2\libgcc.a(_sf_to_si.o)
                                                  c:/users/shehan/documents/environments/spc5_env/toolchain/bin/../lib/gcc/powerpc-eabivle/4.9.4/e200z2\libgcc.a(_fixunssfsi.o)
__fixunssfsi                                      c:/users/shehan/documents/environments/spc5_env/toolchain/bin/../lib/gcc/powerpc-eabivle/4.9.4/e200z2\libgcc.a(_fixunssfsi.o)
                                                  build/obj/saradc_lld.o
__floatsisf                                       c:/users/shehan/documents/environments/spc5_env/toolchain/bin/../lib/gcc/powerpc-eabivle/4.9.4/e200z2\libgcc.a(_si_to_sf.o)
                                                  build/obj/main.o
__floatunsisf                                     c:/users/shehan/documents/environments/spc5_env/toolchain/bin/../lib/gcc/powerpc-eabivle/4.9.4/e200z2\libgcc.a(_usi_to_sf.o)
                                                  build/obj/main.o
__fpcmp_parts_f                                   c:/users/shehan/documents/environments/spc5_env/toolchain/bin/../lib/gcc/powerpc-eabivle/4.9.4/e200z2\libgcc.a(_fpcmp_parts_sf.o)
                                                  c:/users/shehan/documents/environments/spc5_env/toolchain/bin/../lib/gcc/powerpc-eabivle/4.9.4/e200z2\libgcc.a(_le_sf.o)
                                                  c:/users/shehan/documents/environments/spc5_env/toolchain/bin/../lib/gcc/powerpc-eabivle/4.9.4/e200z2\libgcc.a(_ge_sf.o)
                                                  c:/users/shehan/documents/environments/spc5_env/toolchain/bin/../lib/gcc/powerpc-eabivle/4.9.4/e200z2\libgcc.a(_gt_sf.o)
__frame_state_for                                 c:/users/shehan/documents/environments/spc5_env/toolchain/bin/../lib/gcc/powerpc-eabivle/4.9.4/e200z2\libgcc.a(unwind-dw2.o)
__gesf2                                           c:/users/shehan/documents/environments/spc5_env/toolchain/bin/../lib/gcc/powerpc-eabivle/4.9.4/e200z2\libgcc.a(_ge_sf.o)
                                                  c:/users/shehan/documents/environments/spc5_env/toolchain/bin/../lib/gcc/powerpc-eabivle/4.9.4/e200z2\libgcc.a(_fixunssfsi.o)
                                                  build/obj/main.o
__gtsf2                                           c:/users/shehan/documents/environments/spc5_env/toolchain/bin/../lib/gcc/powerpc-eabivle/4.9.4/e200z2\libgcc.a(_gt_sf.o)
                                                  build/obj/main.o
__gxx_personality_v0                              c:/users/shehan/documents/environments/spc5_env/toolchain/bin/../lib/gcc/powerpc-eabivle/4.9.4/../../../../powerpc-eabivle/lib/e200z2\libstdc++.a(eh_personality.o)
                                                  c:/users/shehan/documents/environments/spc5_env/toolchain/bin/../lib/gcc/powerpc-eabivle/4.9.4/../../../../powerpc-eabivle/lib/e200z2\libstdc++.a(eh_terminate.o)
__heap_base__                                     build/obj/main.o
__heap_end__                                      build/obj/main.o
__ivpr_base__                                     build/obj/boot.o
__late_init                                       build/obj/crt0.o
__lesf2                                           c:/users/shehan/documents/environments/spc5_env/toolchain/bin/../lib/gcc/powerpc-eabivle/4.9.4/e200z2\libgcc.a(_le_sf.o)
                                                  build/obj/saradc_lld.o
__make_dp                                         c:/users/shehan/documents/environments/spc5_env/toolchain/bin/../lib/gcc/powerpc-eabivle/4.9.4/e200z2\libgcc.a(_make_df.o)
                                                  c:/users/shehan/documents/environments/spc5_env/toolchain/bin/../lib/gcc/powerpc-eabivle/4.9.4/e200z2\libgcc.a(_sf_to_df.o)
__make_fp                                         c:/users/shehan/documents/environments/spc5_env/toolchain/bin/../lib/gcc/powerpc-eabivle/4.9.4/e200z2\libgcc.a(_make_sf.o)
                                                  c:/users/shehan/documents/environments/spc5_env/toolchain/bin/../lib/gcc/powerpc-eabivle/4.9.4/e200z2\libgcc.a(_df_to_sf.o)
__malloc_av_                                      c:/users/shehan/documents/environments/spc5_env/toolchain/bin/../lib/gcc/powerpc-eabivle/4.9.4/../../../../powerpc-eabivle/lib/e200z2\libc.a(lib_a-mallocr.o)
                                                  c:/users/shehan/documents/environments/spc5_env/toolchain/bin/../lib/gcc/powerpc-eabivle/4.9.4/../../../../powerpc-eabivle/lib/e200z2\libc.a(lib_a-freer.o)
__malloc_current_mallinfo                         c:/users/shehan/documents/environments/spc5_env/toolchain/bin/../lib/gcc/powerpc-eabivle/4.9.4/../../../../powerpc-eabivle/lib/e200z2\libc.a(lib_a-mallocr.o)
                                                  c:/users/shehan/documents/environments/spc5_env/toolchain/bin/../lib/gcc/powerpc-eabivle/4.9.4/../../../../powerpc-eabivle/lib/e200z2\libc.a(lib_a-freer.o)
__malloc_lock                                     c:/users/shehan/documents/environments/spc5_env/toolchain/bin/../lib/gcc/powerpc-eabivle/4.9.4/../../../../powerpc-eabivle/lib/e200z2\libc.a(lib_a-mlock.o)
                                                  c:/users/shehan/documents/environments/spc5_env/toolchain/bin/../lib/gcc/powerpc-eabivle/4.9.4/../../../../powerpc-eabivle/lib/e200z2\libc.a(lib_a-freer.o)
                                                  c:/users/shehan/documents/environments/spc5_env/toolchain/bin/../lib/gcc/powerpc-eabivle/4.9.4/../../../../powerpc-eabivle/lib/e200z2\libc.a(lib_a-mallocr.o)
__malloc_max_sbrked_mem                           c:/users/shehan/documents/environments/spc5_env/toolchain/bin/../lib/gcc/powerpc-eabivle/4.9.4/../../../../powerpc-eabivle/lib/e200z2\libc.a(lib_a-mallocr.o)
__malloc_max_total_mem                            c:/users/shehan/documents/environments/spc5_env/toolchain/bin/../lib/gcc/powerpc-eabivle/4.9.4/../../../../powerpc-eabivle/lib/e200z2\libc.a(lib_a-mallocr.o)
__malloc_sbrk_base                                c:/users/shehan/documents/environments/spc5_env/toolchain/bin/../lib/gcc/powerpc-eabivle/4.9.4/../../../../powerpc-eabivle/lib/e200z2\libc.a(lib_a-mallocr.o)
                                                  c:/users/shehan/documents/environments/spc5_env/toolchain/bin/../lib/gcc/powerpc-eabivle/4.9.4/../../../../powerpc-eabivle/lib/e200z2\libc.a(lib_a-freer.o)
__malloc_top_pad                                  c:/users/shehan/documents/environments/spc5_env/toolchain/bin/../lib/gcc/powerpc-eabivle/4.9.4/../../../../powerpc-eabivle/lib/e200z2\libc.a(lib_a-mallocr.o)
                                                  c:/users/shehan/documents/environments/spc5_env/toolchain/bin/../lib/gcc/powerpc-eabivle/4.9.4/../../../../powerpc-eabivle/lib/e200z2\libc.a(lib_a-freer.o)
__malloc_trim_threshold                           c:/users/shehan/documents/environments/spc5_env/toolchain/bin/../lib/gcc/powerpc-eabivle/4.9.4/../../../../powerpc-eabivle/lib/e200z2\libc.a(lib_a-mallocr.o)
                                                  c:/users/shehan/documents/environments/spc5_env/toolchain/bin/../lib/gcc/powerpc-eabivle/4.9.4/../../../../powerpc-eabivle/lib/e200z2\libc.a(lib_a-freer.o)
__malloc_unlock                                   c:/users/shehan/documents/environments/spc5_env/toolchain/bin/../lib/gcc/powerpc-eabivle/4.9.4/../../../../powerpc-eabivle/lib/e200z2\libc.a(lib_a-mlock.o)
                                                  c:/users/shehan/documents/environments/spc5_env/toolchain/bin/../lib/gcc/powerpc-eabivle/4.9.4/../../../../powerpc-eabivle/lib/e200z2\libc.a(lib_a-freer.o)
                                                  c:/users/shehan/documents/environments/spc5_env/toolchain/bin/../lib/gcc/powerpc-eabivle/4.9.4/../../../../powerpc-eabivle/lib/e200z2\libc.a(lib_a-mallocr.o)
__muldf3                                          c:/users/shehan/documents/environments/spc5_env/toolchain/bin/../lib/gcc/powerpc-eabivle/4.9.4/e200z2\libgcc.a(_mul_df.o)
                                                  build/obj/main.o
__mulsf3                                          c:/users/shehan/documents/environments/spc5_env/toolchain/bin/../lib/gcc/powerpc-eabivle/4.9.4/e200z2\libgcc.a(_mul_sf.o)
                                                  build/obj/saradc_lld.o
__pack_d                                          c:/users/shehan/documents/environments/spc5_env/toolchain/bin/../lib/gcc/powerpc-eabivle/4.9.4/e200z2\libgcc.a(_pack_df.o)
                                                  c:/users/shehan/documents/environments/spc5_env/toolchain/bin/../lib/gcc/powerpc-eabivle/4.9.4/e200z2\libgcc.a(_make_df.o)
                                                  c:/users/shehan/documents/environments/spc5_env/toolchain/bin/../lib/gcc/powerpc-eabivle/4.9.4/e200z2\libgcc.a(_mul_df.o)
                                                  c:/users/shehan/documents/environments/spc5_env/toolchain/bin/../lib/gcc/powerpc-eabivle/4.9.4/e200z2\libgcc.a(_addsub_df.o)
__pack_f                                          c:/users/shehan/documents/environments/spc5_env/toolchain/bin/../lib/gcc/powerpc-eabivle/4.9.4/e200z2\libgcc.a(_pack_sf.o)
                                                  c:/users/shehan/documents/environments/spc5_env/toolchain/bin/../lib/gcc/powerpc-eabivle/4.9.4/e200z2\libgcc.a(_make_sf.o)
                                                  c:/users/shehan/documents/environments/spc5_env/toolchain/bin/../lib/gcc/powerpc-eabivle/4.9.4/e200z2\libgcc.a(_usi_to_sf.o)
                                                  c:/users/shehan/documents/environments/spc5_env/toolchain/bin/../lib/gcc/powerpc-eabivle/4.9.4/e200z2\libgcc.a(_si_to_sf.o)
                                                  c:/users/shehan/documents/environments/spc5_env/toolchain/bin/../lib/gcc/powerpc-eabivle/4.9.4/e200z2\libgcc.a(_div_sf.o)
                                                  c:/users/shehan/documents/environments/spc5_env/toolchain/bin/../lib/gcc/powerpc-eabivle/4.9.4/e200z2\libgcc.a(_mul_sf.o)
                                                  c:/users/shehan/documents/environments/spc5_env/toolchain/bin/../lib/gcc/powerpc-eabivle/4.9.4/e200z2\libgcc.a(_addsub_sf.o)
__process_stack_end__                             build/obj/crt0.o
__ram_end__                                       build/obj/boot.o
__ram_start__                                     build/obj/boot.o
__register_frame                                  c:/users/shehan/documents/environments/spc5_env/toolchain/bin/../lib/gcc/powerpc-eabivle/4.9.4/e200z2\libgcc.a(unwind-dw2-fde.o)
__register_frame_info                             c:/users/shehan/documents/environments/spc5_env/toolchain/bin/../lib/gcc/powerpc-eabivle/4.9.4/e200z2\libgcc.a(unwind-dw2-fde.o)
__register_frame_info_bases                       c:/users/shehan/documents/environments/spc5_env/toolchain/bin/../lib/gcc/powerpc-eabivle/4.9.4/e200z2\libgcc.a(unwind-dw2-fde.o)
__register_frame_info_table                       c:/users/shehan/documents/environments/spc5_env/toolchain/bin/../lib/gcc/powerpc-eabivle/4.9.4/e200z2\libgcc.a(unwind-dw2-fde.o)
__register_frame_info_table_bases                 c:/users/shehan/documents/environments/spc5_env/toolchain/bin/../lib/gcc/powerpc-eabivle/4.9.4/e200z2\libgcc.a(unwind-dw2-fde.o)
__register_frame_table                            c:/users/shehan/documents/environments/spc5_env/toolchain/bin/../lib/gcc/powerpc-eabivle/4.9.4/e200z2\libgcc.a(unwind-dw2-fde.o)
__romdata_start__                                 build/obj/crt0.o
__sdata2_start__                                  build/obj/crt0.o
__sdata_start__                                   build/obj/crt0.o
__sigtramp                                        c:/users/shehan/documents/environments/spc5_env/toolchain/bin/../lib/gcc/powerpc-eabivle/4.9.4/../../../../powerpc-eabivle/lib/e200z2\libc.a(lib_a-signal.o)
__sigtramp_r                                      c:/users/shehan/documents/environments/spc5_env/toolchain/bin/../lib/gcc/powerpc-eabivle/4.9.4/../../../../powerpc-eabivle/lib/e200z2\libc.a(lib_a-signal.o)
__subdf3                                          c:/users/shehan/documents/environments/spc5_env/toolchain/bin/../lib/gcc/powerpc-eabivle/4.9.4/e200z2\libgcc.a(_addsub_df.o)
                                                  build/obj/main.o
__subsf3                                          c:/users/shehan/documents/environments/spc5_env/toolchain/bin/../lib/gcc/powerpc-eabivle/4.9.4/e200z2\libgcc.a(_addsub_sf.o)
                                                  c:/users/shehan/documents/environments/spc5_env/toolchain/bin/../lib/gcc/powerpc-eabivle/4.9.4/e200z2\libgcc.a(_fixunssfsi.o)
__thenan_df                                       c:/users/shehan/documents/environments/spc5_env/toolchain/bin/../lib/gcc/powerpc-eabivle/4.9.4/e200z2\libgcc.a(_thenan_df.o)
                                                  c:/users/shehan/documents/environments/spc5_env/toolchain/bin/../lib/gcc/powerpc-eabivle/4.9.4/e200z2\libgcc.a(_mul_df.o)
                                                  c:/users/shehan/documents/environments/spc5_env/toolchain/bin/../lib/gcc/powerpc-eabivle/4.9.4/e200z2\libgcc.a(_addsub_df.o)
__thenan_sf                                       c:/users/shehan/documents/environments/spc5_env/toolchain/bin/../lib/gcc/powerpc-eabivle/4.9.4/e200z2\libgcc.a(_thenan_sf.o)
                                                  c:/users/shehan/documents/environments/spc5_env/toolchain/bin/../lib/gcc/powerpc-eabivle/4.9.4/e200z2\libgcc.a(_div_sf.o)
                                                  c:/users/shehan/documents/environments/spc5_env/toolchain/bin/../lib/gcc/powerpc-eabivle/4.9.4/e200z2\libgcc.a(_mul_sf.o)
                                                  c:/users/shehan/documents/environments/spc5_env/toolchain/bin/../lib/gcc/powerpc-eabivle/4.9.4/e200z2\libgcc.a(_addsub_sf.o)
__truncdfsf2                                      c:/users/shehan/documents/environments/spc5_env/toolchain/bin/../lib/gcc/powerpc-eabivle/4.9.4/e200z2\libgcc.a(_df_to_sf.o)
                                                  build/obj/main.o
__unpack_d                                        c:/users/shehan/documents/environments/spc5_env/toolchain/bin/../lib/gcc/powerpc-eabivle/4.9.4/e200z2\libgcc.a(_unpack_df.o)
                                                  c:/users/shehan/documents/environments/spc5_env/toolchain/bin/../lib/gcc/powerpc-eabivle/4.9.4/e200z2\libgcc.a(_df_to_sf.o)
                                                  c:/users/shehan/documents/environments/spc5_env/toolchain/bin/../lib/gcc/powerpc-eabivle/4.9.4/e200z2\libgcc.a(_mul_df.o)
                                                  c:/users/shehan/documents/environments/spc5_env/toolchain/bin/../lib/gcc/powerpc-eabivle/4.9.4/e200z2\libgcc.a(_addsub_df.o)
__unpack_f                                        c:/users/shehan/documents/environments/spc5_env/toolchain/bin/../lib/gcc/powerpc-eabivle/4.9.4/e200z2\libgcc.a(_unpack_sf.o)
                                                  c:/users/shehan/documents/environments/spc5_env/toolchain/bin/../lib/gcc/powerpc-eabivle/4.9.4/e200z2\libgcc.a(_sf_to_df.o)
                                                  c:/users/shehan/documents/environments/spc5_env/toolchain/bin/../lib/gcc/powerpc-eabivle/4.9.4/e200z2\libgcc.a(_sf_to_si.o)
                                                  c:/users/shehan/documents/environments/spc5_env/toolchain/bin/../lib/gcc/powerpc-eabivle/4.9.4/e200z2\libgcc.a(_le_sf.o)
                                                  c:/users/shehan/documents/environments/spc5_env/toolchain/bin/../lib/gcc/powerpc-eabivle/4.9.4/e200z2\libgcc.a(_ge_sf.o)
                                                  c:/users/shehan/documents/environments/spc5_env/toolchain/bin/../lib/gcc/powerpc-eabivle/4.9.4/e200z2\libgcc.a(_gt_sf.o)
                                                  c:/users/shehan/documents/environments/spc5_env/toolchain/bin/../lib/gcc/powerpc-eabivle/4.9.4/e200z2\libgcc.a(_div_sf.o)
                                                  c:/users/shehan/documents/environments/spc5_env/toolchain/bin/../lib/gcc/powerpc-eabivle/4.9.4/e200z2\libgcc.a(_mul_sf.o)
                                                  c:/users/shehan/documents/environments/spc5_env/toolchain/bin/../lib/gcc/powerpc-eabivle/4.9.4/e200z2\libgcc.a(_addsub_sf.o)
_boot_address                                     build/obj/crt0.o
                                                  build/obj/boot.o
_exit                                             build/obj/main.o
                                                  c:/users/shehan/documents/environments/spc5_env/toolchain/bin/../lib/gcc/powerpc-eabivle/4.9.4/../../../../powerpc-eabivle/lib/e200z2\libc.a(lib_a-abort.o)
_free_r                                           c:/users/shehan/documents/environments/spc5_env/toolchain/bin/../lib/gcc/powerpc-eabivle/4.9.4/../../../../powerpc-eabivle/lib/e200z2\libc.a(lib_a-freer.o)
                                                  c:/users/shehan/documents/environments/spc5_env/toolchain/bin/../lib/gcc/powerpc-eabivle/4.9.4/../../../../powerpc-eabivle/lib/e200z2\libc.a(lib_a-reent.o)
                                                  c:/users/shehan/documents/environments/spc5_env/toolchain/bin/../lib/gcc/powerpc-eabivle/4.9.4/../../../../powerpc-eabivle/lib/e200z2\libc.a(lib_a-mallocr.o)
                                                  c:/users/shehan/documents/environments/spc5_env/toolchain/bin/../lib/gcc/powerpc-eabivle/4.9.4/../../../../powerpc-eabivle/lib/e200z2\libc.a(lib_a-malloc.o)
_getpid_r                                         c:/users/shehan/documents/environments/spc5_env/toolchain/bin/../lib/gcc/powerpc-eabivle/4.9.4/../../../../powerpc-eabivle/lib/e200z2\libc.a(lib_a-signalr.o)
                                                  c:/users/shehan/documents/environments/spc5_env/toolchain/bin/../lib/gcc/powerpc-eabivle/4.9.4/../../../../powerpc-eabivle/lib/e200z2\libc.a(lib_a-signal.o)
_global_impure_ptr                                c:/users/shehan/documents/environments/spc5_env/toolchain/bin/../lib/gcc/powerpc-eabivle/4.9.4/../../../../powerpc-eabivle/lib/e200z2\libc.a(lib_a-impure.o)
_impure_ptr                                       c:/users/shehan/documents/environments/spc5_env/toolchain/bin/../lib/gcc/powerpc-eabivle/4.9.4/../../../../powerpc-eabivle/lib/e200z2\libc.a(lib_a-impure.o)
                                                  c:/users/shehan/documents/environments/spc5_env/toolchain/bin/../lib/gcc/powerpc-eabivle/4.9.4/../../../../powerpc-eabivle/lib/e200z2\libc.a(lib_a-reent.o)
                                                  c:/users/shehan/documents/environments/spc5_env/toolchain/bin/../lib/gcc/powerpc-eabivle/4.9.4/../../../../powerpc-eabivle/lib/e200z2\libc.a(lib_a-signal.o)
                                                  c:/users/shehan/documents/environments/spc5_env/toolchain/bin/../lib/gcc/powerpc-eabivle/4.9.4/../../../../powerpc-eabivle/lib/e200z2\libc.a(lib_a-malloc.o)
                                                  c:/users/shehan/documents/environments/spc5_env/toolchain/bin/../lib/gcc/powerpc-eabivle/4.9.4/../../../../powerpc-eabivle/lib/e200z2\libc.a(lib_a-errno.o)
_init_signal                                      c:/users/shehan/documents/environments/spc5_env/toolchain/bin/../lib/gcc/powerpc-eabivle/4.9.4/../../../../powerpc-eabivle/lib/e200z2\libc.a(lib_a-signal.o)
_init_signal_r                                    c:/users/shehan/documents/environments/spc5_env/toolchain/bin/../lib/gcc/powerpc-eabivle/4.9.4/../../../../powerpc-eabivle/lib/e200z2\libc.a(lib_a-signal.o)
_kill_r                                           c:/users/shehan/documents/environments/spc5_env/toolchain/bin/../lib/gcc/powerpc-eabivle/4.9.4/../../../../powerpc-eabivle/lib/e200z2\libc.a(lib_a-signalr.o)
                                                  c:/users/shehan/documents/environments/spc5_env/toolchain/bin/../lib/gcc/powerpc-eabivle/4.9.4/../../../../powerpc-eabivle/lib/e200z2\libc.a(lib_a-signal.o)
_main_exit_handler                                build/obj/crt0.o
_malloc_r                                         c:/users/shehan/documents/environments/spc5_env/toolchain/bin/../lib/gcc/powerpc-eabivle/4.9.4/../../../../powerpc-eabivle/lib/e200z2\libc.a(lib_a-mallocr.o)
                                                  c:/users/shehan/documents/environments/spc5_env/toolchain/bin/../lib/gcc/powerpc-eabivle/4.9.4/../../../../powerpc-eabivle/lib/e200z2\libc.a(lib_a-signal.o)
                                                  c:/users/shehan/documents/environments/spc5_env/toolchain/bin/../lib/gcc/powerpc-eabivle/4.9.4/../../../../powerpc-eabivle/lib/e200z2\libc.a(lib_a-malloc.o)
_malloc_trim_r                                    c:/users/shehan/documents/environments/spc5_env/toolchain/bin/../lib/gcc/powerpc-eabivle/4.9.4/../../../../powerpc-eabivle/lib/e200z2\libc.a(lib_a-freer.o)
_pal_readgroup                                    build/obj/pal.o
_pal_setgroupmode                                 build/obj/pal.o
_pal_writegroup                                   build/obj/pal.o
_raise_r                                          c:/users/shehan/documents/environments/spc5_env/toolchain/bin/../lib/gcc/powerpc-eabivle/4.9.4/../../../../powerpc-eabivle/lib/e200z2\libc.a(lib_a-signal.o)
_reclaim_reent                                    c:/users/shehan/documents/environments/spc5_env/toolchain/bin/../lib/gcc/powerpc-eabivle/4.9.4/../../../../powerpc-eabivle/lib/e200z2\libc.a(lib_a-reent.o)
_reset_address                                    build/obj/boot.o
_restgpr_14_x                                     c:/users/shehan/documents/environments/spc5_env/toolchain/bin/../lib/gcc/powerpc-eabivle/4.9.4/e200z2\libgcc.a(e200crtresxgpr.o)
_restgpr_15_x                                     c:/users/shehan/documents/environments/spc5_env/toolchain/bin/../lib/gcc/powerpc-eabivle/4.9.4/e200z2\libgcc.a(e200crtresxgpr.o)
_restgpr_16_x                                     c:/users/shehan/documents/environments/spc5_env/toolchain/bin/../lib/gcc/powerpc-eabivle/4.9.4/e200z2\libgcc.a(e200crtresxgpr.o)
_restgpr_17_x                                     c:/users/shehan/documents/environments/spc5_env/toolchain/bin/../lib/gcc/powerpc-eabivle/4.9.4/e200z2\libgcc.a(e200crtresxgpr.o)
_restgpr_18_x                                     c:/users/shehan/documents/environments/spc5_env/toolchain/bin/../lib/gcc/powerpc-eabivle/4.9.4/e200z2\libgcc.a(e200crtresxgpr.o)
_restgpr_19_x                                     c:/users/shehan/documents/environments/spc5_env/toolchain/bin/../lib/gcc/powerpc-eabivle/4.9.4/e200z2\libgcc.a(e200crtresxgpr.o)
_restgpr_20_x                                     c:/users/shehan/documents/environments/spc5_env/toolchain/bin/../lib/gcc/powerpc-eabivle/4.9.4/e200z2\libgcc.a(e200crtresxgpr.o)
_restgpr_21_x                                     c:/users/shehan/documents/environments/spc5_env/toolchain/bin/../lib/gcc/powerpc-eabivle/4.9.4/e200z2\libgcc.a(e200crtresxgpr.o)
_restgpr_22_x                                     c:/users/shehan/documents/environments/spc5_env/toolchain/bin/../lib/gcc/powerpc-eabivle/4.9.4/e200z2\libgcc.a(e200crtresxgpr.o)
                                                  c:/users/shehan/documents/environments/spc5_env/toolchain/bin/../lib/gcc/powerpc-eabivle/4.9.4/../../../../powerpc-eabivle/lib/e200z2\libc.a(lib_a-mallocr.o)
_restgpr_23_x                                     c:/users/shehan/documents/environments/spc5_env/toolchain/bin/../lib/gcc/powerpc-eabivle/4.9.4/e200z2\libgcc.a(e200crtresxgpr.o)
_restgpr_24_x                                     c:/users/shehan/documents/environments/spc5_env/toolchain/bin/../lib/gcc/powerpc-eabivle/4.9.4/e200z2\libgcc.a(e200crtresxgpr.o)
_restgpr_25_x                                     c:/users/shehan/documents/environments/spc5_env/toolchain/bin/../lib/gcc/powerpc-eabivle/4.9.4/e200z2\libgcc.a(e200crtresxgpr.o)
_restgpr_26_x                                     c:/users/shehan/documents/environments/spc5_env/toolchain/bin/../lib/gcc/powerpc-eabivle/4.9.4/e200z2\libgcc.a(e200crtresxgpr.o)
_restgpr_27_x                                     c:/users/shehan/documents/environments/spc5_env/toolchain/bin/../lib/gcc/powerpc-eabivle/4.9.4/e200z2\libgcc.a(e200crtresxgpr.o)
_restgpr_28_x                                     c:/users/shehan/documents/environments/spc5_env/toolchain/bin/../lib/gcc/powerpc-eabivle/4.9.4/e200z2\libgcc.a(e200crtresxgpr.o)
                                                  c:/users/shehan/documents/environments/spc5_env/toolchain/bin/../lib/gcc/powerpc-eabivle/4.9.4/../../../../powerpc-eabivle/lib/e200z2\libc.a(lib_a-freer.o)
_restgpr_29_x                                     c:/users/shehan/documents/environments/spc5_env/toolchain/bin/../lib/gcc/powerpc-eabivle/4.9.4/e200z2\libgcc.a(e200crtresxgpr.o)
                                                  c:/users/shehan/documents/environments/spc5_env/toolchain/bin/../lib/gcc/powerpc-eabivle/4.9.4/../../../../powerpc-eabivle/lib/e200z2\libc.a(lib_a-reent.o)
                                                  c:/users/shehan/documents/environments/spc5_env/toolchain/bin/../lib/gcc/powerpc-eabivle/4.9.4/../../../../powerpc-eabivle/lib/e200z2\libc.a(lib_a-signal.o)
_restgpr_30_x                                     c:/users/shehan/documents/environments/spc5_env/toolchain/bin/../lib/gcc/powerpc-eabivle/4.9.4/e200z2\libgcc.a(e200crtresxgpr.o)
                                                  c:/users/shehan/documents/environments/spc5_env/toolchain/bin/../lib/gcc/powerpc-eabivle/4.9.4/../../../../powerpc-eabivle/lib/e200z2\libc.a(lib_a-freer.o)
                                                  c:/users/shehan/documents/environments/spc5_env/toolchain/bin/../lib/gcc/powerpc-eabivle/4.9.4/../../../../powerpc-eabivle/lib/e200z2\libc.a(lib_a-signalr.o)
                                                  c:/users/shehan/documents/environments/spc5_env/toolchain/bin/../lib/gcc/powerpc-eabivle/4.9.4/../../../../powerpc-eabivle/lib/e200z2\libc.a(lib_a-signal.o)
                                                  c:/users/shehan/documents/environments/spc5_env/toolchain/bin/../lib/gcc/powerpc-eabivle/4.9.4/../../../../powerpc-eabivle/lib/e200z2\libc.a(lib_a-sbrkr.o)
_restgpr_31_x                                     c:/users/shehan/documents/environments/spc5_env/toolchain/bin/../lib/gcc/powerpc-eabivle/4.9.4/e200z2\libgcc.a(e200crtresxgpr.o)
                                                  c:/users/shehan/documents/environments/spc5_env/toolchain/bin/../lib/gcc/powerpc-eabivle/4.9.4/../../../../powerpc-eabivle/lib/e200z2\libc.a(lib_a-signal.o)
_sbrk_r                                           c:/users/shehan/documents/environments/spc5_env/toolchain/bin/../lib/gcc/powerpc-eabivle/4.9.4/../../../../powerpc-eabivle/lib/e200z2\libc.a(lib_a-sbrkr.o)
                                                  c:/users/shehan/documents/environments/spc5_env/toolchain/bin/../lib/gcc/powerpc-eabivle/4.9.4/../../../../powerpc-eabivle/lib/e200z2\libc.a(lib_a-freer.o)
                                                  c:/users/shehan/documents/environments/spc5_env/toolchain/bin/../lib/gcc/powerpc-eabivle/4.9.4/../../../../powerpc-eabivle/lib/e200z2\libc.a(lib_a-mallocr.o)
_signal_r                                         c:/users/shehan/documents/environments/spc5_env/toolchain/bin/../lib/gcc/powerpc-eabivle/4.9.4/../../../../powerpc-eabivle/lib/e200z2\libc.a(lib_a-signal.o)
_unhandled_exception                              build/obj/boot.o
_unhandled_irq                                    build/obj/vectors.o
_vectors                                          build/obj/vectors.o
                                                  build/obj/irq.o
abort                                             c:/users/shehan/documents/environments/spc5_env/toolchain/bin/../lib/gcc/powerpc-eabivle/4.9.4/../../../../powerpc-eabivle/lib/e200z2\libc.a(lib_a-abort.o)
                                                  c:/users/shehan/documents/environments/spc5_env/toolchain/bin/../lib/gcc/powerpc-eabivle/4.9.4/e200z2\libgcc.a(unwind-dw2-fde.o)
                                                  c:/users/shehan/documents/environments/spc5_env/toolchain/bin/../lib/gcc/powerpc-eabivle/4.9.4/e200z2\libgcc.a(unwind-dw2.o)
                                                  c:/users/shehan/documents/environments/spc5_env/toolchain/bin/../lib/gcc/powerpc-eabivle/4.9.4/../../../../powerpc-eabivle/lib/e200z2\libstdc++.a(eh_term_handler.o)
                                                  c:/users/shehan/documents/environments/spc5_env/toolchain/bin/../lib/gcc/powerpc-eabivle/4.9.4/../../../../powerpc-eabivle/lib/e200z2\libstdc++.a(eh_personality.o)
                                                  c:/users/shehan/documents/environments/spc5_env/toolchain/bin/../lib/gcc/powerpc-eabivle/4.9.4/../../../../powerpc-eabivle/lib/e200z2\libstdc++.a(eh_terminate.o)
adc_cb                                            build/obj/main.o
adc_value                                         build/obj/main.o
anp                                               build/obj/main.o
bms_fan                                           build/obj/main.o
bms_rx                                            build/obj/main.o
boardInit                                         build/obj/board.o
                                                  build/obj/components.o
button_id                                         build/obj/main.o
button_state(buttonInput_t*)                      build/obj/main.o
buttons                                           build/obj/main.o
can_config_mcanconf                               build/obj/can_lld_cfg.o
can_config_mcanconf_ext                           build/obj/can_lld_cfg.o
                                                  build/obj/main.o
can_decode                                        build/obj/main.o
can_lld_getDLC                                    build/obj/can_lld.o
can_lld_getframesize                              build/obj/can_lld.o
can_lld_init                                      build/obj/can_lld.o
                                                  build/obj/spc5_lld.o
can_lld_readBuffer                                build/obj/can_lld.o
can_lld_receive                                   build/obj/can_lld.o
can_lld_start                                     build/obj/can_lld.o
                                                  build/obj/main.o
can_lld_stop                                      build/obj/can_lld.o
can_lld_transmit                                  build/obj/can_lld.o
                                                  build/obj/main.o
can_lld_writeTxBuffer                             build/obj/can_lld.o
can_message                                       build/obj/main.o
channels                                          build/obj/main.o
cleanup_glue                                      c:/users/shehan/documents/environments/spc5_env/toolchain/bin/../lib/gcc/powerpc-eabivle/4.9.4/../../../../powerpc-eabivle/lib/e200z2\libc.a(lib_a-reent.o)
clockInit                                         build/obj/clock.o
                                                  build/obj/components.o
componentsInit                                    build/obj/components.o
                                                  build/obj/main.o
create_devices()                                  build/obj/main.o
create_modules()                                  build/obj/main.o
ctrlr_fan                                         build/obj/main.o
debug                                             build/obj/main.o
debug_ctrl_temp                                   build/obj/main.o
debug_hbeam                                       build/obj/main.o
debug_lpress                                      build/obj/main.o
debug_mtr_temp                                    build/obj/main.o
debug_pass                                        build/obj/main.o
debug_spress                                      build/obj/main.o
devices                                           build/obj/main.o
edmaChannelAllocate                               build/obj/spc5_edma.o
edmaChannelRelease                                build/obj/spc5_edma.o
edmaInit                                          build/obj/spc5_edma.o
                                                  build/obj/spc5_lld.o
eirqInit                                          build/obj/eirq.o
                                                  build/obj/components.o
eirqconf                                          build/obj/eirq_cfg.o
                                                  build/obj/eirq.o
errno                                             c:/users/shehan/documents/environments/spc5_env/toolchain/bin/../lib/gcc/powerpc-eabivle/4.9.4/../../../../powerpc-eabivle/lib/e200z2\libc.a(lib_a-reent.o)
                                                  c:/users/shehan/documents/environments/spc5_env/toolchain/bin/../lib/gcc/powerpc-eabivle/4.9.4/../../../../powerpc-eabivle/lib/e200z2\libc.a(lib_a-signalr.o)
                                                  c:/users/shehan/documents/environments/spc5_env/toolchain/bin/../lib/gcc/powerpc-eabivle/4.9.4/../../../../powerpc-eabivle/lib/e200z2\libc.a(lib_a-sbrkr.o)
evaluate_long_press(buttonInput_t*)               build/obj/main.o
evaluate_short_press(buttonInput_t*)              build/obj/main.o
fan_state                                         build/obj/main.o
fan_unit                                          build/obj/main.o
free                                              c:/users/shehan/documents/environments/spc5_env/toolchain/bin/../lib/gcc/powerpc-eabivle/4.9.4/../../../../powerpc-eabivle/lib/e200z2\libc.a(lib_a-malloc.o)
                                                  c:/users/shehan/documents/environments/spc5_env/toolchain/bin/../lib/gcc/powerpc-eabivle/4.9.4/e200z2\libgcc.a(unwind-dw2-fde.o)
                                                  c:/users/shehan/documents/environments/spc5_env/toolchain/bin/../lib/gcc/powerpc-eabivle/4.9.4/../../../../powerpc-eabivle/lib/e200z2\libstdc++.a(del_op.o)
                                                  c:/users/shehan/documents/environments/spc5_env/toolchain/bin/../lib/gcc/powerpc-eabivle/4.9.4/../../../../powerpc-eabivle/lib/e200z2\libstdc++.a(eh_alloc.o)
get_FD3MSG1(CANRxFrame)                           build/obj/main.o
get_FD3MSG2(CANRxFrame)                           build/obj/main.o
get_bms_fan_state()                               build/obj/main.o
get_motor_temp()                                  build/obj/main.o
getpid                                            build/obj/main.o
                                                  c:/users/shehan/documents/environments/spc5_env/toolchain/bin/../lib/gcc/powerpc-eabivle/4.9.4/../../../../powerpc-eabivle/lib/e200z2\libc.a(lib_a-signalr.o)
global_adc                                        build/obj/main.o
hbeam_btn                                         build/obj/main.o
hbeam_state                                       build/obj/main.o
headlight_unit                                    build/obj/main.o
hl                                                build/obj/main.o
horn_unit                                         build/obj/main.o
initialize_channels_from_config(pinconfigType*, Channel*) build/obj/main.o
inputs                                            build/obj/main.o
irqInit                                           build/obj/irq.o
                                                  build/obj/components.o
irqSysHalt                                        build/obj/irq.o
                                                  build/obj/clock.o
                                                  build/obj/spc5_edma.o
irq_cfg_init                                      build/obj/irq_cfg.o
                                                  build/obj/irq.o
kill                                              build/obj/main.o
                                                  c:/users/shehan/documents/environments/spc5_env/toolchain/bin/../lib/gcc/powerpc-eabivle/4.9.4/../../../../powerpc-eabivle/lib/e200z2\libc.a(lib_a-signalr.o)
largememcpy                                       c:/users/shehan/documents/environments/spc5_env/toolchain/bin/../lib/gcc/powerpc-eabivle/4.9.4/../../../../powerpc-eabivle/lib/e200z2\libc.a(lib_a-memcpy.o)
latch_Device::activate()                          build/obj/main.o
latch_Device::control_signal(bool)                build/obj/main.o
latch_Device::evaluate_press()                    build/obj/main.o
main                                              build/obj/main.o
                                                  build/obj/crt0.o
malloc                                            c:/users/shehan/documents/environments/spc5_env/toolchain/bin/../lib/gcc/powerpc-eabivle/4.9.4/../../../../powerpc-eabivle/lib/e200z2\libc.a(lib_a-malloc.o)
                                                  c:/users/shehan/documents/environments/spc5_env/toolchain/bin/../lib/gcc/powerpc-eabivle/4.9.4/e200z2\libgcc.a(unwind-dw2-fde.o)
                                                  c:/users/shehan/documents/environments/spc5_env/toolchain/bin/../lib/gcc/powerpc-eabivle/4.9.4/../../../../powerpc-eabivle/lib/e200z2\libstdc++.a(eh_alloc.o)
                                                  c:/users/shehan/documents/environments/spc5_env/toolchain/bin/../lib/gcc/powerpc-eabivle/4.9.4/../../../../powerpc-eabivle/lib/e200z2\libstdc++.a(new_op.o)
manage_eirq_interrupt                             build/obj/eirq.o
mcanconf_ext_rxcb                                 build/obj/main.o
                                                  build/obj/can_lld_cfg.o
mcanconf_rxcb                                     build/obj/can_lld_cfg.o
memcpy                                            c:/users/shehan/documents/environments/spc5_env/toolchain/bin/../lib/gcc/powerpc-eabivle/4.9.4/../../../../powerpc-eabivle/lib/e200z2\libc.a(lib_a-memcpy.o)
                                                  c:/users/shehan/documents/environments/spc5_env/toolchain/bin/../lib/gcc/powerpc-eabivle/4.9.4/e200z2\libgcc.a(unwind-dw2.o)
memset                                            c:/users/shehan/documents/environments/spc5_env/toolchain/bin/../lib/gcc/powerpc-eabivle/4.9.4/../../../../powerpc-eabivle/lib/e200z2\libc.a(lib_a-memset.o)
                                                  c:/users/shehan/documents/environments/spc5_env/toolchain/bin/../lib/gcc/powerpc-eabivle/4.9.4/e200z2\libgcc.a(unwind-dw2.o)
                                                  c:/users/shehan/documents/environments/spc5_env/toolchain/bin/../lib/gcc/powerpc-eabivle/4.9.4/../../../../powerpc-eabivle/lib/e200z2\libstdc++.a(eh_alloc.o)
                                                  build/obj/osal.o
momentary_Device::activate()                      build/obj/main.o
momentary_Device::control_signal(bool)            build/obj/main.o
momentary_Device::evaluate_press()                build/obj/main.o
motor_fan                                         build/obj/main.o
onboardLED                                        build/obj/main.o
operator delete(void*)                            c:/users/shehan/documents/environments/spc5_env/toolchain/bin/../lib/gcc/powerpc-eabivle/4.9.4/../../../../powerpc-eabivle/lib/e200z2\libstdc++.a(del_op.o)
                                                  c:/users/shehan/documents/environments/spc5_env/toolchain/bin/../lib/gcc/powerpc-eabivle/4.9.4/../../../../powerpc-eabivle/lib/e200z2\libstdc++.a(tinfo.o)
                                                  c:/users/shehan/documents/environments/spc5_env/toolchain/bin/../lib/gcc/powerpc-eabivle/4.9.4/../../../../powerpc-eabivle/lib/e200z2\libstdc++.a(si_class_type_info.o)
                                                  c:/users/shehan/documents/environments/spc5_env/toolchain/bin/../lib/gcc/powerpc-eabivle/4.9.4/../../../../powerpc-eabivle/lib/e200z2\libstdc++.a(class_type_info.o)
                                                  c:/users/shehan/documents/environments/spc5_env/toolchain/bin/../lib/gcc/powerpc-eabivle/4.9.4/../../../../powerpc-eabivle/lib/e200z2\libstdc++.a(eh_exception.o)
                                                  c:/users/shehan/documents/environments/spc5_env/toolchain/bin/../lib/gcc/powerpc-eabivle/4.9.4/../../../../powerpc-eabivle/lib/e200z2\libstdc++.a(bad_alloc.o)
operator new(unsigned int)                        c:/users/shehan/documents/environments/spc5_env/toolchain/bin/../lib/gcc/powerpc-eabivle/4.9.4/../../../../powerpc-eabivle/lib/e200z2\libstdc++.a(new_op.o)
                                                  build/obj/main.o
osalEnterCritical                                 build/obj/osal.o
osalEnterCriticalFromISR                          build/obj/osal.o
osalExitCritical                                  build/obj/osal.o
osalExitCriticalFromISR                           build/obj/osal.o
osalInit                                          build/obj/osal.o
                                                  build/obj/components.o
osalSysTimeReset                                  build/obj/osal.o
osalSysTimeSetup                                  build/obj/osal.o
osalThreadDelayMicroseconds                       build/obj/osal.o
                                                  build/obj/main.o
osalThreadDelayMilliseconds                       build/obj/osal.o
osalThreadDelaySeconds                            build/obj/osal.o
osalThreadGetMicroseconds                         build/obj/osal.o
                                                  build/obj/main.o
osalThreadGetMilliseconds                         build/obj/osal.o
                                                  build/obj/main.o
osalThreadGetSeconds                              build/obj/osal.o
pal_init                                          build/obj/pal.o
                                                  build/obj/board.o
pinconfig                                         build/obj/main.o
pseudo_delay(unsigned long)                       build/obj/main.o
pseudo_delay(unsigned long, unsigned long&)       build/obj/main.o
raise                                             c:/users/shehan/documents/environments/spc5_env/toolchain/bin/../lib/gcc/powerpc-eabivle/4.9.4/../../../../powerpc-eabivle/lib/e200z2\libc.a(lib_a-signal.o)
                                                  c:/users/shehan/documents/environments/spc5_env/toolchain/bin/../lib/gcc/powerpc-eabivle/4.9.4/../../../../powerpc-eabivle/lib/e200z2\libc.a(lib_a-abort.o)
saradc_config_saradcconf                          build/obj/saradc_lld_cfg.o
                                                  build/obj/main.o
saradc_config_saradcconf_oneshot                  build/obj/saradc_lld_cfg.o
saradc_lld_init                                   build/obj/saradc_lld.o
                                                  build/obj/spc5_lld.o
saradc_lld_readchannel                            build/obj/saradc_lld.o
                                                  build/obj/main.o
saradc_lld_start                                  build/obj/saradc_lld.o
                                                  build/obj/main.o
saradc_lld_start_conversion                       build/obj/saradc_lld.o
                                                  build/obj/main.o
saradc_lld_stop                                   build/obj/saradc_lld.o
saradc_lld_stop_conversion                        build/obj/saradc_lld.o
saradcconf_conv_cb                                build/obj/main.o
                                                  build/obj/saradc_lld_cfg.o
sbrk                                              build/obj/main.o
                                                  c:/users/shehan/documents/environments/spc5_env/toolchain/bin/../lib/gcc/powerpc-eabivle/4.9.4/../../../../powerpc-eabivle/lib/e200z2\libc.a(lib_a-sbrkr.o)
signal                                            c:/users/shehan/documents/environments/spc5_env/toolchain/bin/../lib/gcc/powerpc-eabivle/4.9.4/../../../../powerpc-eabivle/lib/e200z2\libc.a(lib_a-signal.o)
spc5LLDInit                                       build/obj/spc5_lld.o
                                                  build/obj/components.o
spc_clock_init                                    build/obj/clock.o
std::bad_alloc::what() const                      c:/users/shehan/documents/environments/spc5_env/toolchain/bin/../lib/gcc/powerpc-eabivle/4.9.4/../../../../powerpc-eabivle/lib/e200z2\libstdc++.a(bad_alloc.o)
std::bad_alloc::~bad_alloc()                      c:/users/shehan/documents/environments/spc5_env/toolchain/bin/../lib/gcc/powerpc-eabivle/4.9.4/../../../../powerpc-eabivle/lib/e200z2\libstdc++.a(bad_alloc.o)
std::bad_alloc::~bad_alloc()                      c:/users/shehan/documents/environments/spc5_env/toolchain/bin/../lib/gcc/powerpc-eabivle/4.9.4/../../../../powerpc-eabivle/lib/e200z2\libstdc++.a(bad_alloc.o)
                                                  c:/users/shehan/documents/environments/spc5_env/toolchain/bin/../lib/gcc/powerpc-eabivle/4.9.4/../../../../powerpc-eabivle/lib/e200z2\libstdc++.a(new_op.o)
std::bad_alloc::~bad_alloc()                      c:/users/shehan/documents/environments/spc5_env/toolchain/bin/../lib/gcc/powerpc-eabivle/4.9.4/../../../../powerpc-eabivle/lib/e200z2\libstdc++.a(bad_alloc.o)
std::bad_exception::what() const                  c:/users/shehan/documents/environments/spc5_env/toolchain/bin/../lib/gcc/powerpc-eabivle/4.9.4/../../../../powerpc-eabivle/lib/e200z2\libstdc++.a(eh_exception.o)
std::bad_exception::~bad_exception()              c:/users/shehan/documents/environments/spc5_env/toolchain/bin/../lib/gcc/powerpc-eabivle/4.9.4/../../../../powerpc-eabivle/lib/e200z2\libstdc++.a(eh_exception.o)
std::bad_exception::~bad_exception()              c:/users/shehan/documents/environments/spc5_env/toolchain/bin/../lib/gcc/powerpc-eabivle/4.9.4/../../../../powerpc-eabivle/lib/e200z2\libstdc++.a(eh_exception.o)
std::bad_exception::~bad_exception()              c:/users/shehan/documents/environments/spc5_env/toolchain/bin/../lib/gcc/powerpc-eabivle/4.9.4/../../../../powerpc-eabivle/lib/e200z2\libstdc++.a(eh_exception.o)
                                                  c:/users/shehan/documents/environments/spc5_env/toolchain/bin/../lib/gcc/powerpc-eabivle/4.9.4/../../../../powerpc-eabivle/lib/e200z2\libstdc++.a(eh_personality.o)
std::exception::what() const                      c:/users/shehan/documents/environments/spc5_env/toolchain/bin/../lib/gcc/powerpc-eabivle/4.9.4/../../../../powerpc-eabivle/lib/e200z2\libstdc++.a(eh_exception.o)
std::exception::~exception()                      c:/users/shehan/documents/environments/spc5_env/toolchain/bin/../lib/gcc/powerpc-eabivle/4.9.4/../../../../powerpc-eabivle/lib/e200z2\libstdc++.a(eh_exception.o)
                                                  c:/users/shehan/documents/environments/spc5_env/toolchain/bin/../lib/gcc/powerpc-eabivle/4.9.4/../../../../powerpc-eabivle/lib/e200z2\libstdc++.a(bad_alloc.o)
std::exception::~exception()                      c:/users/shehan/documents/environments/spc5_env/toolchain/bin/../lib/gcc/powerpc-eabivle/4.9.4/../../../../powerpc-eabivle/lib/e200z2\libstdc++.a(eh_exception.o)
std::exception::~exception()                      c:/users/shehan/documents/environments/spc5_env/toolchain/bin/../lib/gcc/powerpc-eabivle/4.9.4/../../../../powerpc-eabivle/lib/e200z2\libstdc++.a(eh_exception.o)
std::get_new_handler()                            c:/users/shehan/documents/environments/spc5_env/toolchain/bin/../lib/gcc/powerpc-eabivle/4.9.4/../../../../powerpc-eabivle/lib/e200z2\libstdc++.a(new_handler.o)
                                                  c:/users/shehan/documents/environments/spc5_env/toolchain/bin/../lib/gcc/powerpc-eabivle/4.9.4/../../../../powerpc-eabivle/lib/e200z2\libstdc++.a(new_op.o)
std::get_terminate()                              c:/users/shehan/documents/environments/spc5_env/toolchain/bin/../lib/gcc/powerpc-eabivle/4.9.4/../../../../powerpc-eabivle/lib/e200z2\libstdc++.a(eh_terminate.o)
                                                  c:/users/shehan/documents/environments/spc5_env/toolchain/bin/../lib/gcc/powerpc-eabivle/4.9.4/../../../../powerpc-eabivle/lib/e200z2\libstdc++.a(eh_throw.o)
std::get_unexpected()                             c:/users/shehan/documents/environments/spc5_env/toolchain/bin/../lib/gcc/powerpc-eabivle/4.9.4/../../../../powerpc-eabivle/lib/e200z2\libstdc++.a(eh_terminate.o)
                                                  c:/users/shehan/documents/environments/spc5_env/toolchain/bin/../lib/gcc/powerpc-eabivle/4.9.4/../../../../powerpc-eabivle/lib/e200z2\libstdc++.a(eh_throw.o)
std::nothrow                                      c:/users/shehan/documents/environments/spc5_env/toolchain/bin/../lib/gcc/powerpc-eabivle/4.9.4/../../../../powerpc-eabivle/lib/e200z2\libstdc++.a(new_handler.o)
std::set_new_handler(void (*)())                  c:/users/shehan/documents/environments/spc5_env/toolchain/bin/../lib/gcc/powerpc-eabivle/4.9.4/../../../../powerpc-eabivle/lib/e200z2\libstdc++.a(new_handler.o)
std::set_terminate(void (*)())                    c:/users/shehan/documents/environments/spc5_env/toolchain/bin/../lib/gcc/powerpc-eabivle/4.9.4/../../../../powerpc-eabivle/lib/e200z2\libstdc++.a(eh_terminate.o)
std::set_unexpected(void (*)())                   c:/users/shehan/documents/environments/spc5_env/toolchain/bin/../lib/gcc/powerpc-eabivle/4.9.4/../../../../powerpc-eabivle/lib/e200z2\libstdc++.a(eh_terminate.o)
std::terminate()                                  c:/users/shehan/documents/environments/spc5_env/toolchain/bin/../lib/gcc/powerpc-eabivle/4.9.4/../../../../powerpc-eabivle/lib/e200z2\libstdc++.a(eh_terminate.o)
                                                  c:/users/shehan/documents/environments/spc5_env/toolchain/bin/../lib/gcc/powerpc-eabivle/4.9.4/../../../../powerpc-eabivle/lib/e200z2\libstdc++.a(eh_call.o)
                                                  c:/users/shehan/documents/environments/spc5_env/toolchain/bin/../lib/gcc/powerpc-eabivle/4.9.4/../../../../powerpc-eabivle/lib/e200z2\libstdc++.a(eh_catch.o)
                                                  c:/users/shehan/documents/environments/spc5_env/toolchain/bin/../lib/gcc/powerpc-eabivle/4.9.4/../../../../powerpc-eabivle/lib/e200z2\libstdc++.a(eh_unex_handler.o)
                                                  c:/users/shehan/documents/environments/spc5_env/toolchain/bin/../lib/gcc/powerpc-eabivle/4.9.4/../../../../powerpc-eabivle/lib/e200z2\libstdc++.a(eh_personality.o)
                                                  c:/users/shehan/documents/environments/spc5_env/toolchain/bin/../lib/gcc/powerpc-eabivle/4.9.4/../../../../powerpc-eabivle/lib/e200z2\libstdc++.a(eh_throw.o)
                                                  c:/users/shehan/documents/environments/spc5_env/toolchain/bin/../lib/gcc/powerpc-eabivle/4.9.4/../../../../powerpc-eabivle/lib/e200z2\libstdc++.a(pure.o)
                                                  c:/users/shehan/documents/environments/spc5_env/toolchain/bin/../lib/gcc/powerpc-eabivle/4.9.4/../../../../powerpc-eabivle/lib/e200z2\libstdc++.a(eh_alloc.o)
std::type_info::__do_catch(std::type_info const*, void**, unsigned int) const c:/users/shehan/documents/environments/spc5_env/toolchain/bin/../lib/gcc/powerpc-eabivle/4.9.4/../../../../powerpc-eabivle/lib/e200z2\libstdc++.a(tinfo.o)
std::type_info::__do_upcast(__cxxabiv1::__class_type_info const*, void**) const c:/users/shehan/documents/environments/spc5_env/toolchain/bin/../lib/gcc/powerpc-eabivle/4.9.4/../../../../powerpc-eabivle/lib/e200z2\libstdc++.a(tinfo.o)
std::type_info::__is_function_p() const           c:/users/shehan/documents/environments/spc5_env/toolchain/bin/../lib/gcc/powerpc-eabivle/4.9.4/../../../../powerpc-eabivle/lib/e200z2\libstdc++.a(tinfo.o)
                                                  c:/users/shehan/documents/environments/spc5_env/toolchain/bin/../lib/gcc/powerpc-eabivle/4.9.4/../../../../powerpc-eabivle/lib/e200z2\libstdc++.a(si_class_type_info.o)
                                                  c:/users/shehan/documents/environments/spc5_env/toolchain/bin/../lib/gcc/powerpc-eabivle/4.9.4/../../../../powerpc-eabivle/lib/e200z2\libstdc++.a(class_type_info.o)
std::type_info::__is_pointer_p() const            c:/users/shehan/documents/environments/spc5_env/toolchain/bin/../lib/gcc/powerpc-eabivle/4.9.4/../../../../powerpc-eabivle/lib/e200z2\libstdc++.a(tinfo.o)
                                                  c:/users/shehan/documents/environments/spc5_env/toolchain/bin/../lib/gcc/powerpc-eabivle/4.9.4/../../../../powerpc-eabivle/lib/e200z2\libstdc++.a(si_class_type_info.o)
                                                  c:/users/shehan/documents/environments/spc5_env/toolchain/bin/../lib/gcc/powerpc-eabivle/4.9.4/../../../../powerpc-eabivle/lib/e200z2\libstdc++.a(class_type_info.o)
std::type_info::~type_info()                      c:/users/shehan/documents/environments/spc5_env/toolchain/bin/../lib/gcc/powerpc-eabivle/4.9.4/../../../../powerpc-eabivle/lib/e200z2\libstdc++.a(tinfo.o)
std::type_info::~type_info()                      c:/users/shehan/documents/environments/spc5_env/toolchain/bin/../lib/gcc/powerpc-eabivle/4.9.4/../../../../powerpc-eabivle/lib/e200z2\libstdc++.a(tinfo.o)
std::type_info::~type_info()                      c:/users/shehan/documents/environments/spc5_env/toolchain/bin/../lib/gcc/powerpc-eabivle/4.9.4/../../../../powerpc-eabivle/lib/e200z2\libstdc++.a(tinfo.o)
                                                  c:/users/shehan/documents/environments/spc5_env/toolchain/bin/../lib/gcc/powerpc-eabivle/4.9.4/../../../../powerpc-eabivle/lib/e200z2\libstdc++.a(class_type_info.o)
std::uncaught_exception()                         c:/users/shehan/documents/environments/spc5_env/toolchain/bin/../lib/gcc/powerpc-eabivle/4.9.4/../../../../powerpc-eabivle/lib/e200z2\libstdc++.a(eh_catch.o)
std::unexpected()                                 c:/users/shehan/documents/environments/spc5_env/toolchain/bin/../lib/gcc/powerpc-eabivle/4.9.4/../../../../powerpc-eabivle/lib/e200z2\libstdc++.a(eh_terminate.o)
                                                  c:/users/shehan/documents/environments/spc5_env/toolchain/bin/../lib/gcc/powerpc-eabivle/4.9.4/../../../../powerpc-eabivle/lib/e200z2\libstdc++.a(eh_personality.o)
strcmp                                            c:/users/shehan/documents/environments/spc5_env/toolchain/bin/../lib/gcc/powerpc-eabivle/4.9.4/../../../../powerpc-eabivle/lib/e200z2\libc.a(lib_a-strcmp.o)
                                                  c:/users/shehan/documents/environments/spc5_env/toolchain/bin/../lib/gcc/powerpc-eabivle/4.9.4/../../../../powerpc-eabivle/lib/e200z2\libstdc++.a(tinfo.o)
                                                  c:/users/shehan/documents/environments/spc5_env/toolchain/bin/../lib/gcc/powerpc-eabivle/4.9.4/../../../../powerpc-eabivle/lib/e200z2\libstdc++.a(si_class_type_info.o)
                                                  c:/users/shehan/documents/environments/spc5_env/toolchain/bin/../lib/gcc/powerpc-eabivle/4.9.4/../../../../powerpc-eabivle/lib/e200z2\libstdc++.a(class_type_info.o)
strlen                                            c:/users/shehan/documents/environments/spc5_env/toolchain/bin/../lib/gcc/powerpc-eabivle/4.9.4/../../../../powerpc-eabivle/lib/e200z2\libc.a(lib_a-strlen.o)
                                                  c:/users/shehan/documents/environments/spc5_env/toolchain/bin/../lib/gcc/powerpc-eabivle/4.9.4/e200z2\libgcc.a(unwind-dw2-fde.o)
                                                  c:/users/shehan/documents/environments/spc5_env/toolchain/bin/../lib/gcc/powerpc-eabivle/4.9.4/e200z2\libgcc.a(unwind-dw2.o)
swirqInit                                         build/obj/swirq.o
swirq_clear                                       build/obj/swirq.o
swirq_disable                                     build/obj/swirq.o
swirq_enable                                      build/obj/swirq.o
swirq_init_prio                                   build/obj/swirq_cfg.o
                                                  build/obj/swirq.o
swirq_set                                         build/obj/swirq.o
switcharm                                         build/obj/main.o
sysTimeReset                                      build/obj/systimer.o
                                                  build/obj/osal.o
sysTimeSetup                                      build/obj/systimer.o
                                                  build/obj/osal.o
temp                                              build/obj/main.o
tf                                                build/obj/main.o
timedebug                                         build/obj/main.o
toggle_Device::activate()                         build/obj/main.o
toggle_Device::control_signal(bool)               build/obj/main.o
toggle_Device::evaluate_press()                   build/obj/main.o
turnsignal_unit                                   build/obj/main.o
txf                                               build/obj/main.o
typeinfo for __cxxabiv1::__class_type_info        c:/users/shehan/documents/environments/spc5_env/toolchain/bin/../lib/gcc/powerpc-eabivle/4.9.4/../../../../powerpc-eabivle/lib/e200z2\libstdc++.a(class_type_info.o)
                                                  c:/users/shehan/documents/environments/spc5_env/toolchain/bin/../lib/gcc/powerpc-eabivle/4.9.4/../../../../powerpc-eabivle/lib/e200z2\libstdc++.a(si_class_type_info.o)
typeinfo for __cxxabiv1::__forced_unwind          c:/users/shehan/documents/environments/spc5_env/toolchain/bin/../lib/gcc/powerpc-eabivle/4.9.4/../../../../powerpc-eabivle/lib/e200z2\libstdc++.a(eh_exception.o)
                                                  c:/users/shehan/documents/environments/spc5_env/toolchain/bin/../lib/gcc/powerpc-eabivle/4.9.4/../../../../powerpc-eabivle/lib/e200z2\libstdc++.a(eh_personality.o)
typeinfo for __cxxabiv1::__foreign_exception      c:/users/shehan/documents/environments/spc5_env/toolchain/bin/../lib/gcc/powerpc-eabivle/4.9.4/../../../../powerpc-eabivle/lib/e200z2\libstdc++.a(eh_exception.o)
                                                  c:/users/shehan/documents/environments/spc5_env/toolchain/bin/../lib/gcc/powerpc-eabivle/4.9.4/../../../../powerpc-eabivle/lib/e200z2\libstdc++.a(eh_personality.o)
typeinfo for __cxxabiv1::__si_class_type_info     c:/users/shehan/documents/environments/spc5_env/toolchain/bin/../lib/gcc/powerpc-eabivle/4.9.4/../../../../powerpc-eabivle/lib/e200z2\libstdc++.a(si_class_type_info.o)
typeinfo for std::bad_alloc                       c:/users/shehan/documents/environments/spc5_env/toolchain/bin/../lib/gcc/powerpc-eabivle/4.9.4/../../../../powerpc-eabivle/lib/e200z2\libstdc++.a(bad_alloc.o)
                                                  c:/users/shehan/documents/environments/spc5_env/toolchain/bin/../lib/gcc/powerpc-eabivle/4.9.4/../../../../powerpc-eabivle/lib/e200z2\libstdc++.a(new_op.o)
typeinfo for std::bad_exception                   c:/users/shehan/documents/environments/spc5_env/toolchain/bin/../lib/gcc/powerpc-eabivle/4.9.4/../../../../powerpc-eabivle/lib/e200z2\libstdc++.a(eh_exception.o)
                                                  c:/users/shehan/documents/environments/spc5_env/toolchain/bin/../lib/gcc/powerpc-eabivle/4.9.4/../../../../powerpc-eabivle/lib/e200z2\libstdc++.a(eh_personality.o)
typeinfo for std::exception                       c:/users/shehan/documents/environments/spc5_env/toolchain/bin/../lib/gcc/powerpc-eabivle/4.9.4/../../../../powerpc-eabivle/lib/e200z2\libstdc++.a(eh_exception.o)
                                                  c:/users/shehan/documents/environments/spc5_env/toolchain/bin/../lib/gcc/powerpc-eabivle/4.9.4/../../../../powerpc-eabivle/lib/e200z2\libstdc++.a(bad_alloc.o)
typeinfo for std::type_info                       c:/users/shehan/documents/environments/spc5_env/toolchain/bin/../lib/gcc/powerpc-eabivle/4.9.4/../../../../powerpc-eabivle/lib/e200z2\libstdc++.a(tinfo.o)
                                                  c:/users/shehan/documents/environments/spc5_env/toolchain/bin/../lib/gcc/powerpc-eabivle/4.9.4/../../../../powerpc-eabivle/lib/e200z2\libstdc++.a(class_type_info.o)
typeinfo name for __cxxabiv1::__class_type_info   c:/users/shehan/documents/environments/spc5_env/toolchain/bin/../lib/gcc/powerpc-eabivle/4.9.4/../../../../powerpc-eabivle/lib/e200z2\libstdc++.a(class_type_info.o)
typeinfo name for __cxxabiv1::__forced_unwind     c:/users/shehan/documents/environments/spc5_env/toolchain/bin/../lib/gcc/powerpc-eabivle/4.9.4/../../../../powerpc-eabivle/lib/e200z2\libstdc++.a(eh_exception.o)
typeinfo name for __cxxabiv1::__foreign_exception c:/users/shehan/documents/environments/spc5_env/toolchain/bin/../lib/gcc/powerpc-eabivle/4.9.4/../../../../powerpc-eabivle/lib/e200z2\libstdc++.a(eh_exception.o)
typeinfo name for __cxxabiv1::__si_class_type_info c:/users/shehan/documents/environments/spc5_env/toolchain/bin/../lib/gcc/powerpc-eabivle/4.9.4/../../../../powerpc-eabivle/lib/e200z2\libstdc++.a(si_class_type_info.o)
typeinfo name for std::bad_alloc                  c:/users/shehan/documents/environments/spc5_env/toolchain/bin/../lib/gcc/powerpc-eabivle/4.9.4/../../../../powerpc-eabivle/lib/e200z2\libstdc++.a(bad_alloc.o)
typeinfo name for std::bad_exception              c:/users/shehan/documents/environments/spc5_env/toolchain/bin/../lib/gcc/powerpc-eabivle/4.9.4/../../../../powerpc-eabivle/lib/e200z2\libstdc++.a(eh_exception.o)
typeinfo name for std::exception                  c:/users/shehan/documents/environments/spc5_env/toolchain/bin/../lib/gcc/powerpc-eabivle/4.9.4/../../../../powerpc-eabivle/lib/e200z2\libstdc++.a(eh_exception.o)
typeinfo name for std::type_info                  c:/users/shehan/documents/environments/spc5_env/toolchain/bin/../lib/gcc/powerpc-eabivle/4.9.4/../../../../powerpc-eabivle/lib/e200z2\libstdc++.a(tinfo.o)
vector0                                           build/obj/vectors.o
vector1                                           build/obj/vectors.o
vector10                                          build/obj/vectors.o
vector100                                         build/obj/vectors.o
vector1000                                        build/obj/vectors.o
vector1001                                        build/obj/vectors.o
vector1002                                        build/obj/vectors.o
vector1003                                        build/obj/vectors.o
vector1004                                        build/obj/vectors.o
vector1005                                        build/obj/vectors.o
vector1006                                        build/obj/vectors.o
vector1007                                        build/obj/vectors.o
vector1008                                        build/obj/vectors.o
vector1009                                        build/obj/vectors.o
vector101                                         build/obj/vectors.o
vector1010                                        build/obj/vectors.o
vector1011                                        build/obj/vectors.o
vector1012                                        build/obj/vectors.o
vector1013                                        build/obj/vectors.o
vector1014                                        build/obj/vectors.o
vector1015                                        build/obj/vectors.o
vector1016                                        build/obj/vectors.o
vector1017                                        build/obj/vectors.o
vector1018                                        build/obj/vectors.o
vector1019                                        build/obj/vectors.o
vector102                                         build/obj/vectors.o
vector1020                                        build/obj/vectors.o
vector1021                                        build/obj/vectors.o
vector1022                                        build/obj/vectors.o
vector1023                                        build/obj/vectors.o
vector103                                         build/obj/vectors.o
vector104                                         build/obj/vectors.o
vector105                                         build/obj/vectors.o
vector106                                         build/obj/vectors.o
vector107                                         build/obj/vectors.o
vector108                                         build/obj/vectors.o
vector109                                         build/obj/vectors.o
vector11                                          build/obj/vectors.o
vector110                                         build/obj/vectors.o
vector111                                         build/obj/vectors.o
vector112                                         build/obj/vectors.o
vector113                                         build/obj/vectors.o
vector114                                         build/obj/vectors.o
vector115                                         build/obj/vectors.o
vector116                                         build/obj/vectors.o
vector117                                         build/obj/vectors.o
vector118                                         build/obj/vectors.o
vector119                                         build/obj/vectors.o
vector12                                          build/obj/vectors.o
vector120                                         build/obj/vectors.o
vector121                                         build/obj/vectors.o
vector122                                         build/obj/vectors.o
vector123                                         build/obj/vectors.o
vector124                                         build/obj/vectors.o
vector125                                         build/obj/vectors.o
vector126                                         build/obj/vectors.o
vector127                                         build/obj/vectors.o
vector128                                         build/obj/vectors.o
vector129                                         build/obj/vectors.o
vector13                                          build/obj/vectors.o
vector130                                         build/obj/vectors.o
vector131                                         build/obj/vectors.o
vector132                                         build/obj/vectors.o
vector133                                         build/obj/vectors.o
vector134                                         build/obj/vectors.o
vector135                                         build/obj/vectors.o
vector136                                         build/obj/vectors.o
vector137                                         build/obj/vectors.o
vector138                                         build/obj/vectors.o
vector139                                         build/obj/vectors.o
vector14                                          build/obj/vectors.o
vector140                                         build/obj/vectors.o
vector141                                         build/obj/vectors.o
vector142                                         build/obj/vectors.o
vector143                                         build/obj/vectors.o
vector144                                         build/obj/vectors.o
vector145                                         build/obj/vectors.o
vector146                                         build/obj/vectors.o
vector147                                         build/obj/vectors.o
vector148                                         build/obj/vectors.o
vector149                                         build/obj/vectors.o
vector15                                          build/obj/vectors.o
vector150                                         build/obj/vectors.o
vector151                                         build/obj/vectors.o
vector152                                         build/obj/vectors.o
vector153                                         build/obj/vectors.o
vector154                                         build/obj/vectors.o
vector155                                         build/obj/vectors.o
vector156                                         build/obj/vectors.o
vector157                                         build/obj/vectors.o
vector158                                         build/obj/vectors.o
vector159                                         build/obj/vectors.o
vector16                                          build/obj/vectors.o
vector160                                         build/obj/vectors.o
vector161                                         build/obj/vectors.o
vector162                                         build/obj/vectors.o
vector163                                         build/obj/vectors.o
vector164                                         build/obj/vectors.o
vector165                                         build/obj/vectors.o
vector166                                         build/obj/vectors.o
vector167                                         build/obj/vectors.o
vector168                                         build/obj/vectors.o
vector169                                         build/obj/vectors.o
vector17                                          build/obj/vectors.o
vector170                                         build/obj/vectors.o
vector171                                         build/obj/vectors.o
vector172                                         build/obj/vectors.o
vector173                                         build/obj/vectors.o
vector174                                         build/obj/vectors.o
vector175                                         build/obj/vectors.o
vector176                                         build/obj/vectors.o
vector177                                         build/obj/vectors.o
vector178                                         build/obj/vectors.o
vector179                                         build/obj/vectors.o
vector18                                          build/obj/vectors.o
vector180                                         build/obj/vectors.o
vector181                                         build/obj/vectors.o
vector182                                         build/obj/vectors.o
vector183                                         build/obj/vectors.o
vector184                                         build/obj/vectors.o
vector185                                         build/obj/vectors.o
vector186                                         build/obj/vectors.o
vector187                                         build/obj/vectors.o
vector188                                         build/obj/vectors.o
vector189                                         build/obj/vectors.o
vector19                                          build/obj/vectors.o
vector190                                         build/obj/vectors.o
vector191                                         build/obj/vectors.o
vector192                                         build/obj/vectors.o
vector193                                         build/obj/vectors.o
vector194                                         build/obj/vectors.o
vector195                                         build/obj/vectors.o
vector196                                         build/obj/vectors.o
vector197                                         build/obj/vectors.o
vector198                                         build/obj/vectors.o
vector199                                         build/obj/vectors.o
vector2                                           build/obj/vectors.o
vector20                                          build/obj/vectors.o
vector200                                         build/obj/vectors.o
vector201                                         build/obj/vectors.o
vector202                                         build/obj/vectors.o
vector203                                         build/obj/vectors.o
vector204                                         build/obj/vectors.o
vector205                                         build/obj/vectors.o
vector206                                         build/obj/vectors.o
vector207                                         build/obj/vectors.o
vector208                                         build/obj/vectors.o
vector209                                         build/obj/vectors.o
vector21                                          build/obj/vectors.o
vector210                                         build/obj/vectors.o
vector211                                         build/obj/vectors.o
vector212                                         build/obj/vectors.o
vector213                                         build/obj/vectors.o
vector214                                         build/obj/vectors.o
vector215                                         build/obj/vectors.o
vector216                                         build/obj/vectors.o
vector217                                         build/obj/vectors.o
vector218                                         build/obj/vectors.o
vector219                                         build/obj/vectors.o
vector22                                          build/obj/vectors.o
vector220                                         build/obj/vectors.o
vector221                                         build/obj/vectors.o
vector222                                         build/obj/vectors.o
vector223                                         build/obj/vectors.o
vector224                                         build/obj/vectors.o
vector225                                         build/obj/vectors.o
vector226                                         build/obj/osal.o
                                                  build/obj/vectors.o
vector227                                         build/obj/vectors.o
vector228                                         build/obj/vectors.o
vector229                                         build/obj/vectors.o
vector23                                          build/obj/vectors.o
vector230                                         build/obj/vectors.o
vector231                                         build/obj/vectors.o
vector232                                         build/obj/vectors.o
vector233                                         build/obj/vectors.o
vector234                                         build/obj/vectors.o
vector235                                         build/obj/vectors.o
vector236                                         build/obj/vectors.o
vector237                                         build/obj/vectors.o
vector238                                         build/obj/vectors.o
vector239                                         build/obj/vectors.o
vector24                                          build/obj/vectors.o
vector240                                         build/obj/vectors.o
vector241                                         build/obj/vectors.o
vector242                                         build/obj/vectors.o
vector243                                         build/obj/eirq.o
                                                  build/obj/vectors.o
vector244                                         build/obj/eirq.o
                                                  build/obj/vectors.o
vector245                                         build/obj/eirq.o
                                                  build/obj/vectors.o
vector246                                         build/obj/eirq.o
                                                  build/obj/vectors.o
vector247                                         build/obj/vectors.o
vector248                                         build/obj/vectors.o
vector249                                         build/obj/vectors.o
vector25                                          build/obj/vectors.o
vector250                                         build/obj/vectors.o
vector251                                         build/obj/vectors.o
vector252                                         build/obj/vectors.o
vector253                                         build/obj/vectors.o
vector254                                         build/obj/vectors.o
vector255                                         build/obj/vectors.o
vector256                                         build/obj/vectors.o
vector257                                         build/obj/vectors.o
vector258                                         build/obj/vectors.o
vector259                                         build/obj/vectors.o
vector26                                          build/obj/vectors.o
vector260                                         build/obj/vectors.o
vector261                                         build/obj/vectors.o
vector262                                         build/obj/vectors.o
vector263                                         build/obj/vectors.o
vector264                                         build/obj/vectors.o
vector265                                         build/obj/vectors.o
vector266                                         build/obj/vectors.o
vector267                                         build/obj/vectors.o
vector268                                         build/obj/vectors.o
vector269                                         build/obj/vectors.o
vector27                                          build/obj/vectors.o
vector270                                         build/obj/vectors.o
vector271                                         build/obj/vectors.o
vector272                                         build/obj/vectors.o
vector273                                         build/obj/vectors.o
vector274                                         build/obj/vectors.o
vector275                                         build/obj/vectors.o
vector276                                         build/obj/vectors.o
vector277                                         build/obj/vectors.o
vector278                                         build/obj/vectors.o
vector279                                         build/obj/vectors.o
vector28                                          build/obj/vectors.o
vector280                                         build/obj/vectors.o
vector281                                         build/obj/vectors.o
vector282                                         build/obj/vectors.o
vector283                                         build/obj/vectors.o
vector284                                         build/obj/vectors.o
vector285                                         build/obj/vectors.o
vector286                                         build/obj/vectors.o
vector287                                         build/obj/vectors.o
vector288                                         build/obj/vectors.o
vector289                                         build/obj/vectors.o
vector29                                          build/obj/vectors.o
vector290                                         build/obj/vectors.o
vector291                                         build/obj/vectors.o
vector292                                         build/obj/vectors.o
vector293                                         build/obj/vectors.o
vector294                                         build/obj/vectors.o
vector295                                         build/obj/vectors.o
vector296                                         build/obj/vectors.o
vector297                                         build/obj/vectors.o
vector298                                         build/obj/vectors.o
vector299                                         build/obj/vectors.o
vector3                                           build/obj/vectors.o
vector30                                          build/obj/vectors.o
vector300                                         build/obj/vectors.o
vector301                                         build/obj/vectors.o
vector302                                         build/obj/vectors.o
vector303                                         build/obj/vectors.o
vector304                                         build/obj/vectors.o
vector305                                         build/obj/vectors.o
vector306                                         build/obj/vectors.o
vector307                                         build/obj/vectors.o
vector308                                         build/obj/vectors.o
vector309                                         build/obj/vectors.o
vector31                                          build/obj/vectors.o
vector310                                         build/obj/vectors.o
vector311                                         build/obj/vectors.o
vector312                                         build/obj/vectors.o
vector313                                         build/obj/vectors.o
vector314                                         build/obj/vectors.o
vector315                                         build/obj/vectors.o
vector316                                         build/obj/vectors.o
vector317                                         build/obj/vectors.o
vector318                                         build/obj/vectors.o
vector319                                         build/obj/vectors.o
vector32                                          build/obj/vectors.o
vector320                                         build/obj/vectors.o
vector321                                         build/obj/vectors.o
vector322                                         build/obj/vectors.o
vector323                                         build/obj/vectors.o
vector324                                         build/obj/vectors.o
vector325                                         build/obj/vectors.o
vector326                                         build/obj/vectors.o
vector327                                         build/obj/vectors.o
vector328                                         build/obj/vectors.o
vector329                                         build/obj/vectors.o
vector33                                          build/obj/vectors.o
vector330                                         build/obj/vectors.o
vector331                                         build/obj/vectors.o
vector332                                         build/obj/vectors.o
vector333                                         build/obj/vectors.o
vector334                                         build/obj/vectors.o
vector335                                         build/obj/vectors.o
vector336                                         build/obj/vectors.o
vector337                                         build/obj/vectors.o
vector338                                         build/obj/vectors.o
vector339                                         build/obj/vectors.o
vector34                                          build/obj/vectors.o
vector340                                         build/obj/vectors.o
vector341                                         build/obj/vectors.o
vector342                                         build/obj/vectors.o
vector343                                         build/obj/vectors.o
vector344                                         build/obj/vectors.o
vector345                                         build/obj/vectors.o
vector346                                         build/obj/vectors.o
vector347                                         build/obj/vectors.o
vector348                                         build/obj/vectors.o
vector349                                         build/obj/vectors.o
vector35                                          build/obj/vectors.o
vector350                                         build/obj/vectors.o
vector351                                         build/obj/vectors.o
vector352                                         build/obj/vectors.o
vector353                                         build/obj/vectors.o
vector354                                         build/obj/vectors.o
vector355                                         build/obj/vectors.o
vector356                                         build/obj/vectors.o
vector357                                         build/obj/vectors.o
vector358                                         build/obj/vectors.o
vector359                                         build/obj/vectors.o
vector36                                          build/obj/vectors.o
vector360                                         build/obj/vectors.o
vector361                                         build/obj/vectors.o
vector362                                         build/obj/vectors.o
vector363                                         build/obj/vectors.o
vector364                                         build/obj/vectors.o
vector365                                         build/obj/vectors.o
vector366                                         build/obj/vectors.o
vector367                                         build/obj/vectors.o
vector368                                         build/obj/vectors.o
vector369                                         build/obj/vectors.o
vector37                                          build/obj/vectors.o
vector370                                         build/obj/vectors.o
vector371                                         build/obj/vectors.o
vector372                                         build/obj/vectors.o
vector373                                         build/obj/vectors.o
vector374                                         build/obj/vectors.o
vector375                                         build/obj/vectors.o
vector376                                         build/obj/vectors.o
vector377                                         build/obj/vectors.o
vector378                                         build/obj/vectors.o
vector379                                         build/obj/vectors.o
vector38                                          build/obj/vectors.o
vector380                                         build/obj/vectors.o
vector381                                         build/obj/vectors.o
vector382                                         build/obj/vectors.o
vector383                                         build/obj/vectors.o
vector384                                         build/obj/vectors.o
vector385                                         build/obj/vectors.o
vector386                                         build/obj/vectors.o
vector387                                         build/obj/vectors.o
vector388                                         build/obj/vectors.o
vector389                                         build/obj/vectors.o
vector39                                          build/obj/vectors.o
vector390                                         build/obj/vectors.o
vector391                                         build/obj/vectors.o
vector392                                         build/obj/vectors.o
vector393                                         build/obj/vectors.o
vector394                                         build/obj/vectors.o
vector395                                         build/obj/vectors.o
vector396                                         build/obj/vectors.o
vector397                                         build/obj/vectors.o
vector398                                         build/obj/vectors.o
vector399                                         build/obj/vectors.o
vector4                                           build/obj/vectors.o
vector40                                          build/obj/vectors.o
vector400                                         build/obj/vectors.o
vector401                                         build/obj/vectors.o
vector402                                         build/obj/vectors.o
vector403                                         build/obj/vectors.o
vector404                                         build/obj/vectors.o
vector405                                         build/obj/vectors.o
vector406                                         build/obj/vectors.o
vector407                                         build/obj/vectors.o
vector408                                         build/obj/vectors.o
vector409                                         build/obj/vectors.o
vector41                                          build/obj/vectors.o
vector410                                         build/obj/vectors.o
vector411                                         build/obj/vectors.o
vector412                                         build/obj/vectors.o
vector413                                         build/obj/vectors.o
vector414                                         build/obj/vectors.o
vector415                                         build/obj/vectors.o
vector416                                         build/obj/vectors.o
vector417                                         build/obj/vectors.o
vector418                                         build/obj/vectors.o
vector419                                         build/obj/vectors.o
vector42                                          build/obj/vectors.o
vector420                                         build/obj/vectors.o
vector421                                         build/obj/vectors.o
vector422                                         build/obj/vectors.o
vector423                                         build/obj/vectors.o
vector424                                         build/obj/vectors.o
vector425                                         build/obj/vectors.o
vector426                                         build/obj/vectors.o
vector427                                         build/obj/vectors.o
vector428                                         build/obj/vectors.o
vector429                                         build/obj/vectors.o
vector43                                          build/obj/vectors.o
vector430                                         build/obj/vectors.o
vector431                                         build/obj/vectors.o
vector432                                         build/obj/vectors.o
vector433                                         build/obj/vectors.o
vector434                                         build/obj/vectors.o
vector435                                         build/obj/vectors.o
vector436                                         build/obj/vectors.o
vector437                                         build/obj/vectors.o
vector438                                         build/obj/vectors.o
vector439                                         build/obj/vectors.o
vector44                                          build/obj/vectors.o
vector440                                         build/obj/vectors.o
vector441                                         build/obj/vectors.o
vector442                                         build/obj/vectors.o
vector443                                         build/obj/vectors.o
vector444                                         build/obj/vectors.o
vector445                                         build/obj/vectors.o
vector446                                         build/obj/vectors.o
vector447                                         build/obj/vectors.o
vector448                                         build/obj/vectors.o
vector449                                         build/obj/vectors.o
vector45                                          build/obj/vectors.o
vector450                                         build/obj/vectors.o
vector451                                         build/obj/vectors.o
vector452                                         build/obj/vectors.o
vector453                                         build/obj/vectors.o
vector454                                         build/obj/vectors.o
vector455                                         build/obj/vectors.o
vector456                                         build/obj/vectors.o
vector457                                         build/obj/vectors.o
vector458                                         build/obj/vectors.o
vector459                                         build/obj/vectors.o
vector46                                          build/obj/vectors.o
vector460                                         build/obj/vectors.o
vector461                                         build/obj/vectors.o
vector462                                         build/obj/vectors.o
vector463                                         build/obj/vectors.o
vector464                                         build/obj/vectors.o
vector465                                         build/obj/vectors.o
vector466                                         build/obj/vectors.o
vector467                                         build/obj/vectors.o
vector468                                         build/obj/vectors.o
vector469                                         build/obj/vectors.o
vector47                                          build/obj/vectors.o
vector470                                         build/obj/vectors.o
vector471                                         build/obj/vectors.o
vector472                                         build/obj/vectors.o
vector473                                         build/obj/vectors.o
vector474                                         build/obj/vectors.o
vector475                                         build/obj/vectors.o
vector476                                         build/obj/vectors.o
vector477                                         build/obj/vectors.o
vector478                                         build/obj/vectors.o
vector479                                         build/obj/vectors.o
vector48                                          build/obj/vectors.o
vector480                                         build/obj/vectors.o
vector481                                         build/obj/vectors.o
vector482                                         build/obj/vectors.o
vector483                                         build/obj/vectors.o
vector484                                         build/obj/vectors.o
vector485                                         build/obj/vectors.o
vector486                                         build/obj/vectors.o
vector487                                         build/obj/vectors.o
vector488                                         build/obj/vectors.o
vector489                                         build/obj/vectors.o
vector49                                          build/obj/vectors.o
vector490                                         build/obj/vectors.o
vector491                                         build/obj/vectors.o
vector492                                         build/obj/vectors.o
vector493                                         build/obj/vectors.o
vector494                                         build/obj/vectors.o
vector495                                         build/obj/vectors.o
vector496                                         build/obj/vectors.o
vector497                                         build/obj/vectors.o
vector498                                         build/obj/vectors.o
vector499                                         build/obj/vectors.o
vector5                                           build/obj/vectors.o
vector50                                          build/obj/vectors.o
vector500                                         build/obj/vectors.o
vector501                                         build/obj/vectors.o
vector502                                         build/obj/vectors.o
vector503                                         build/obj/vectors.o
vector504                                         build/obj/vectors.o
vector505                                         build/obj/vectors.o
vector506                                         build/obj/vectors.o
vector507                                         build/obj/vectors.o
vector508                                         build/obj/vectors.o
vector509                                         build/obj/vectors.o
vector51                                          build/obj/vectors.o
vector510                                         build/obj/vectors.o
vector511                                         build/obj/vectors.o
vector512                                         build/obj/vectors.o
vector513                                         build/obj/vectors.o
vector514                                         build/obj/vectors.o
vector515                                         build/obj/vectors.o
vector516                                         build/obj/vectors.o
vector517                                         build/obj/vectors.o
vector518                                         build/obj/vectors.o
vector519                                         build/obj/vectors.o
vector52                                          build/obj/spc5_edma.o
                                                  build/obj/vectors.o
vector520                                         build/obj/vectors.o
vector521                                         build/obj/vectors.o
vector522                                         build/obj/vectors.o
vector523                                         build/obj/vectors.o
vector524                                         build/obj/vectors.o
vector525                                         build/obj/vectors.o
vector526                                         build/obj/vectors.o
vector527                                         build/obj/vectors.o
vector528                                         build/obj/vectors.o
vector529                                         build/obj/vectors.o
vector53                                          build/obj/spc5_edma.o
                                                  build/obj/vectors.o
vector530                                         build/obj/vectors.o
vector531                                         build/obj/vectors.o
vector532                                         build/obj/vectors.o
vector533                                         build/obj/vectors.o
vector534                                         build/obj/vectors.o
vector535                                         build/obj/vectors.o
vector536                                         build/obj/vectors.o
vector537                                         build/obj/vectors.o
vector538                                         build/obj/vectors.o
vector539                                         build/obj/vectors.o
vector54                                          build/obj/spc5_edma.o
                                                  build/obj/vectors.o
vector540                                         build/obj/vectors.o
vector541                                         build/obj/vectors.o
vector542                                         build/obj/vectors.o
vector543                                         build/obj/saradc_lld.o
                                                  build/obj/vectors.o
vector544                                         build/obj/vectors.o
vector545                                         build/obj/vectors.o
vector546                                         build/obj/vectors.o
vector547                                         build/obj/vectors.o
vector548                                         build/obj/vectors.o
vector549                                         build/obj/vectors.o
vector55                                          build/obj/spc5_edma.o
                                                  build/obj/vectors.o
vector550                                         build/obj/vectors.o
vector551                                         build/obj/vectors.o
vector552                                         build/obj/vectors.o
vector553                                         build/obj/vectors.o
vector554                                         build/obj/vectors.o
vector555                                         build/obj/vectors.o
vector556                                         build/obj/vectors.o
vector557                                         build/obj/vectors.o
vector558                                         build/obj/vectors.o
vector559                                         build/obj/vectors.o
vector56                                          build/obj/spc5_edma.o
                                                  build/obj/vectors.o
vector560                                         build/obj/vectors.o
vector561                                         build/obj/vectors.o
vector562                                         build/obj/vectors.o
vector563                                         build/obj/vectors.o
vector564                                         build/obj/vectors.o
vector565                                         build/obj/vectors.o
vector566                                         build/obj/vectors.o
vector567                                         build/obj/vectors.o
vector568                                         build/obj/vectors.o
vector569                                         build/obj/vectors.o
vector57                                          build/obj/spc5_edma.o
                                                  build/obj/vectors.o
vector570                                         build/obj/vectors.o
vector571                                         build/obj/vectors.o
vector572                                         build/obj/vectors.o
vector573                                         build/obj/vectors.o
vector574                                         build/obj/vectors.o
vector575                                         build/obj/vectors.o
vector576                                         build/obj/vectors.o
vector577                                         build/obj/vectors.o
vector578                                         build/obj/vectors.o
vector579                                         build/obj/vectors.o
vector58                                          build/obj/spc5_edma.o
                                                  build/obj/vectors.o
vector580                                         build/obj/vectors.o
vector581                                         build/obj/vectors.o
vector582                                         build/obj/vectors.o
vector583                                         build/obj/vectors.o
vector584                                         build/obj/vectors.o
vector585                                         build/obj/vectors.o
vector586                                         build/obj/vectors.o
vector587                                         build/obj/vectors.o
vector588                                         build/obj/vectors.o
vector589                                         build/obj/vectors.o
vector59                                          build/obj/spc5_edma.o
                                                  build/obj/vectors.o
vector590                                         build/obj/vectors.o
vector591                                         build/obj/vectors.o
vector592                                         build/obj/vectors.o
vector593                                         build/obj/vectors.o
vector594                                         build/obj/vectors.o
vector595                                         build/obj/vectors.o
vector596                                         build/obj/vectors.o
vector597                                         build/obj/vectors.o
vector598                                         build/obj/vectors.o
vector599                                         build/obj/vectors.o
vector6                                           build/obj/vectors.o
vector60                                          build/obj/spc5_edma.o
                                                  build/obj/vectors.o
vector600                                         build/obj/vectors.o
vector601                                         build/obj/vectors.o
vector602                                         build/obj/vectors.o
vector603                                         build/obj/vectors.o
vector604                                         build/obj/vectors.o
vector605                                         build/obj/vectors.o
vector606                                         build/obj/vectors.o
vector607                                         build/obj/vectors.o
vector608                                         build/obj/vectors.o
vector609                                         build/obj/vectors.o
vector61                                          build/obj/spc5_edma.o
                                                  build/obj/vectors.o
vector610                                         build/obj/vectors.o
vector611                                         build/obj/vectors.o
vector612                                         build/obj/vectors.o
vector613                                         build/obj/vectors.o
vector614                                         build/obj/vectors.o
vector615                                         build/obj/vectors.o
vector616                                         build/obj/vectors.o
vector617                                         build/obj/vectors.o
vector618                                         build/obj/vectors.o
vector619                                         build/obj/vectors.o
vector62                                          build/obj/spc5_edma.o
                                                  build/obj/vectors.o
vector620                                         build/obj/vectors.o
vector621                                         build/obj/vectors.o
vector622                                         build/obj/vectors.o
vector623                                         build/obj/vectors.o
vector624                                         build/obj/vectors.o
vector625                                         build/obj/vectors.o
vector626                                         build/obj/vectors.o
vector627                                         build/obj/vectors.o
vector628                                         build/obj/vectors.o
vector629                                         build/obj/vectors.o
vector63                                          build/obj/spc5_edma.o
                                                  build/obj/vectors.o
vector630                                         build/obj/vectors.o
vector631                                         build/obj/vectors.o
vector632                                         build/obj/vectors.o
vector633                                         build/obj/vectors.o
vector634                                         build/obj/vectors.o
vector635                                         build/obj/vectors.o
vector636                                         build/obj/vectors.o
vector637                                         build/obj/vectors.o
vector638                                         build/obj/vectors.o
vector639                                         build/obj/vectors.o
vector64                                          build/obj/spc5_edma.o
                                                  build/obj/vectors.o
vector640                                         build/obj/vectors.o
vector641                                         build/obj/vectors.o
vector642                                         build/obj/vectors.o
vector643                                         build/obj/vectors.o
vector644                                         build/obj/vectors.o
vector645                                         build/obj/vectors.o
vector646                                         build/obj/vectors.o
vector647                                         build/obj/vectors.o
vector648                                         build/obj/vectors.o
vector649                                         build/obj/vectors.o
vector65                                          build/obj/spc5_edma.o
                                                  build/obj/vectors.o
vector650                                         build/obj/vectors.o
vector651                                         build/obj/vectors.o
vector652                                         build/obj/vectors.o
vector653                                         build/obj/vectors.o
vector654                                         build/obj/vectors.o
vector655                                         build/obj/vectors.o
vector656                                         build/obj/vectors.o
vector657                                         build/obj/vectors.o
vector658                                         build/obj/vectors.o
vector659                                         build/obj/vectors.o
vector66                                          build/obj/spc5_edma.o
                                                  build/obj/vectors.o
vector660                                         build/obj/vectors.o
vector661                                         build/obj/vectors.o
vector662                                         build/obj/vectors.o
vector663                                         build/obj/vectors.o
vector664                                         build/obj/vectors.o
vector665                                         build/obj/vectors.o
vector666                                         build/obj/vectors.o
vector667                                         build/obj/vectors.o
vector668                                         build/obj/vectors.o
vector669                                         build/obj/vectors.o
vector67                                          build/obj/spc5_edma.o
                                                  build/obj/vectors.o
vector670                                         build/obj/vectors.o
vector671                                         build/obj/vectors.o
vector672                                         build/obj/vectors.o
vector673                                         build/obj/vectors.o
vector674                                         build/obj/vectors.o
vector675                                         build/obj/vectors.o
vector676                                         build/obj/vectors.o
vector677                                         build/obj/vectors.o
vector678                                         build/obj/vectors.o
vector679                                         build/obj/vectors.o
vector68                                          build/obj/spc5_edma.o
                                                  build/obj/vectors.o
vector680                                         build/obj/vectors.o
vector681                                         build/obj/vectors.o
vector682                                         build/obj/vectors.o
vector683                                         build/obj/vectors.o
vector684                                         build/obj/vectors.o
vector685                                         build/obj/vectors.o
vector686                                         build/obj/vectors.o
vector687                                         build/obj/vectors.o
vector688                                         build/obj/vectors.o
vector689                                         build/obj/vectors.o
vector69                                          build/obj/vectors.o
vector690                                         build/obj/vectors.o
vector691                                         build/obj/vectors.o
vector692                                         build/obj/vectors.o
vector693                                         build/obj/vectors.o
vector694                                         build/obj/can_lld.o
                                                  build/obj/vectors.o
vector695                                         build/obj/can_lld.o
                                                  build/obj/vectors.o
vector696                                         build/obj/vectors.o
vector697                                         build/obj/vectors.o
vector698                                         build/obj/vectors.o
vector699                                         build/obj/vectors.o
vector7                                           build/obj/vectors.o
vector70                                          build/obj/vectors.o
vector700                                         build/obj/vectors.o
vector701                                         build/obj/vectors.o
vector702                                         build/obj/vectors.o
vector703                                         build/obj/vectors.o
vector704                                         build/obj/vectors.o
vector705                                         build/obj/vectors.o
vector706                                         build/obj/vectors.o
vector707                                         build/obj/vectors.o
vector708                                         build/obj/vectors.o
vector709                                         build/obj/vectors.o
vector71                                          build/obj/vectors.o
vector710                                         build/obj/vectors.o
vector711                                         build/obj/vectors.o
vector712                                         build/obj/vectors.o
vector713                                         build/obj/vectors.o
vector714                                         build/obj/vectors.o
vector715                                         build/obj/vectors.o
vector716                                         build/obj/vectors.o
vector717                                         build/obj/vectors.o
vector718                                         build/obj/vectors.o
vector719                                         build/obj/vectors.o
vector72                                          build/obj/vectors.o
vector720                                         build/obj/vectors.o
vector721                                         build/obj/vectors.o
vector722                                         build/obj/vectors.o
vector723                                         build/obj/vectors.o
vector724                                         build/obj/vectors.o
vector725                                         build/obj/vectors.o
vector726                                         build/obj/vectors.o
vector727                                         build/obj/vectors.o
vector728                                         build/obj/vectors.o
vector729                                         build/obj/vectors.o
vector73                                          build/obj/vectors.o
vector730                                         build/obj/vectors.o
vector731                                         build/obj/vectors.o
vector732                                         build/obj/vectors.o
vector733                                         build/obj/vectors.o
vector734                                         build/obj/vectors.o
vector735                                         build/obj/vectors.o
vector736                                         build/obj/vectors.o
vector737                                         build/obj/vectors.o
vector738                                         build/obj/vectors.o
vector739                                         build/obj/vectors.o
vector74                                          build/obj/vectors.o
vector740                                         build/obj/vectors.o
vector741                                         build/obj/vectors.o
vector742                                         build/obj/vectors.o
vector743                                         build/obj/vectors.o
vector744                                         build/obj/vectors.o
vector745                                         build/obj/vectors.o
vector746                                         build/obj/vectors.o
vector747                                         build/obj/vectors.o
vector748                                         build/obj/vectors.o
vector749                                         build/obj/vectors.o
vector75                                          build/obj/vectors.o
vector750                                         build/obj/vectors.o
vector751                                         build/obj/vectors.o
vector752                                         build/obj/vectors.o
vector753                                         build/obj/vectors.o
vector754                                         build/obj/vectors.o
vector755                                         build/obj/vectors.o
vector756                                         build/obj/vectors.o
vector757                                         build/obj/vectors.o
vector758                                         build/obj/vectors.o
vector759                                         build/obj/vectors.o
vector76                                          build/obj/vectors.o
vector760                                         build/obj/vectors.o
vector761                                         build/obj/vectors.o
vector762                                         build/obj/vectors.o
vector763                                         build/obj/vectors.o
vector764                                         build/obj/vectors.o
vector765                                         build/obj/vectors.o
vector766                                         build/obj/vectors.o
vector767                                         build/obj/vectors.o
vector768                                         build/obj/vectors.o
vector769                                         build/obj/vectors.o
vector77                                          build/obj/vectors.o
vector770                                         build/obj/vectors.o
vector771                                         build/obj/vectors.o
vector772                                         build/obj/vectors.o
vector773                                         build/obj/vectors.o
vector774                                         build/obj/vectors.o
vector775                                         build/obj/vectors.o
vector776                                         build/obj/vectors.o
vector777                                         build/obj/vectors.o
vector778                                         build/obj/vectors.o
vector779                                         build/obj/vectors.o
vector78                                          build/obj/vectors.o
vector780                                         build/obj/vectors.o
vector781                                         build/obj/vectors.o
vector782                                         build/obj/vectors.o
vector783                                         build/obj/vectors.o
vector784                                         build/obj/vectors.o
vector785                                         build/obj/vectors.o
vector786                                         build/obj/vectors.o
vector787                                         build/obj/vectors.o
vector788                                         build/obj/vectors.o
vector789                                         build/obj/vectors.o
vector79                                          build/obj/vectors.o
vector790                                         build/obj/vectors.o
vector791                                         build/obj/vectors.o
vector792                                         build/obj/vectors.o
vector793                                         build/obj/vectors.o
vector794                                         build/obj/vectors.o
vector795                                         build/obj/vectors.o
vector796                                         build/obj/vectors.o
vector797                                         build/obj/vectors.o
vector798                                         build/obj/vectors.o
vector799                                         build/obj/vectors.o
vector8                                           build/obj/vectors.o
vector80                                          build/obj/vectors.o
vector800                                         build/obj/vectors.o
vector801                                         build/obj/vectors.o
vector802                                         build/obj/vectors.o
vector803                                         build/obj/vectors.o
vector804                                         build/obj/vectors.o
vector805                                         build/obj/vectors.o
vector806                                         build/obj/vectors.o
vector807                                         build/obj/vectors.o
vector808                                         build/obj/vectors.o
vector809                                         build/obj/vectors.o
vector81                                          build/obj/vectors.o
vector810                                         build/obj/vectors.o
vector811                                         build/obj/vectors.o
vector812                                         build/obj/vectors.o
vector813                                         build/obj/vectors.o
vector814                                         build/obj/vectors.o
vector815                                         build/obj/vectors.o
vector816                                         build/obj/vectors.o
vector817                                         build/obj/vectors.o
vector818                                         build/obj/vectors.o
vector819                                         build/obj/vectors.o
vector82                                          build/obj/vectors.o
vector820                                         build/obj/vectors.o
vector821                                         build/obj/vectors.o
vector822                                         build/obj/vectors.o
vector823                                         build/obj/vectors.o
vector824                                         build/obj/vectors.o
vector825                                         build/obj/vectors.o
vector826                                         build/obj/vectors.o
vector827                                         build/obj/vectors.o
vector828                                         build/obj/vectors.o
vector829                                         build/obj/vectors.o
vector83                                          build/obj/vectors.o
vector830                                         build/obj/vectors.o
vector831                                         build/obj/vectors.o
vector832                                         build/obj/vectors.o
vector833                                         build/obj/vectors.o
vector834                                         build/obj/vectors.o
vector835                                         build/obj/vectors.o
vector836                                         build/obj/vectors.o
vector837                                         build/obj/vectors.o
vector838                                         build/obj/vectors.o
vector839                                         build/obj/vectors.o
vector84                                          build/obj/vectors.o
vector840                                         build/obj/vectors.o
vector841                                         build/obj/vectors.o
vector842                                         build/obj/vectors.o
vector843                                         build/obj/vectors.o
vector844                                         build/obj/vectors.o
vector845                                         build/obj/vectors.o
vector846                                         build/obj/vectors.o
vector847                                         build/obj/vectors.o
vector848                                         build/obj/vectors.o
vector849                                         build/obj/vectors.o
vector85                                          build/obj/vectors.o
vector850                                         build/obj/vectors.o
vector851                                         build/obj/vectors.o
vector852                                         build/obj/vectors.o
vector853                                         build/obj/vectors.o
vector854                                         build/obj/vectors.o
vector855                                         build/obj/vectors.o
vector856                                         build/obj/vectors.o
vector857                                         build/obj/vectors.o
vector858                                         build/obj/vectors.o
vector859                                         build/obj/vectors.o
vector86                                          build/obj/vectors.o
vector860                                         build/obj/vectors.o
vector861                                         build/obj/vectors.o
vector862                                         build/obj/vectors.o
vector863                                         build/obj/vectors.o
vector864                                         build/obj/vectors.o
vector865                                         build/obj/vectors.o
vector866                                         build/obj/vectors.o
vector867                                         build/obj/vectors.o
vector868                                         build/obj/vectors.o
vector869                                         build/obj/vectors.o
vector87                                          build/obj/vectors.o
vector870                                         build/obj/vectors.o
vector871                                         build/obj/vectors.o
vector872                                         build/obj/vectors.o
vector873                                         build/obj/vectors.o
vector874                                         build/obj/vectors.o
vector875                                         build/obj/vectors.o
vector876                                         build/obj/vectors.o
vector877                                         build/obj/vectors.o
vector878                                         build/obj/vectors.o
vector879                                         build/obj/vectors.o
vector88                                          build/obj/vectors.o
vector880                                         build/obj/vectors.o
vector881                                         build/obj/vectors.o
vector882                                         build/obj/vectors.o
vector883                                         build/obj/vectors.o
vector884                                         build/obj/vectors.o
vector885                                         build/obj/vectors.o
vector886                                         build/obj/vectors.o
vector887                                         build/obj/vectors.o
vector888                                         build/obj/vectors.o
vector889                                         build/obj/vectors.o
vector89                                          build/obj/vectors.o
vector890                                         build/obj/vectors.o
vector891                                         build/obj/vectors.o
vector892                                         build/obj/vectors.o
vector893                                         build/obj/vectors.o
vector894                                         build/obj/vectors.o
vector895                                         build/obj/vectors.o
vector896                                         build/obj/vectors.o
vector897                                         build/obj/vectors.o
vector898                                         build/obj/vectors.o
vector899                                         build/obj/vectors.o
vector9                                           build/obj/vectors.o
vector90                                          build/obj/vectors.o
vector900                                         build/obj/vectors.o
vector901                                         build/obj/vectors.o
vector902                                         build/obj/vectors.o
vector903                                         build/obj/vectors.o
vector904                                         build/obj/vectors.o
vector905                                         build/obj/vectors.o
vector906                                         build/obj/vectors.o
vector907                                         build/obj/vectors.o
vector908                                         build/obj/vectors.o
vector909                                         build/obj/vectors.o
vector91                                          build/obj/vectors.o
vector910                                         build/obj/vectors.o
vector911                                         build/obj/vectors.o
vector912                                         build/obj/vectors.o
vector913                                         build/obj/vectors.o
vector914                                         build/obj/vectors.o
vector915                                         build/obj/vectors.o
vector916                                         build/obj/vectors.o
vector917                                         build/obj/vectors.o
vector918                                         build/obj/vectors.o
vector919                                         build/obj/vectors.o
vector92                                          build/obj/vectors.o
vector920                                         build/obj/vectors.o
vector921                                         build/obj/vectors.o
vector922                                         build/obj/vectors.o
vector923                                         build/obj/vectors.o
vector924                                         build/obj/vectors.o
vector925                                         build/obj/vectors.o
vector926                                         build/obj/vectors.o
vector927                                         build/obj/vectors.o
vector928                                         build/obj/vectors.o
vector929                                         build/obj/vectors.o
vector93                                          build/obj/vectors.o
vector930                                         build/obj/vectors.o
vector931                                         build/obj/vectors.o
vector932                                         build/obj/vectors.o
vector933                                         build/obj/vectors.o
vector934                                         build/obj/vectors.o
vector935                                         build/obj/vectors.o
vector936                                         build/obj/vectors.o
vector937                                         build/obj/vectors.o
vector938                                         build/obj/vectors.o
vector939                                         build/obj/vectors.o
vector94                                          build/obj/vectors.o
vector940                                         build/obj/vectors.o
vector941                                         build/obj/vectors.o
vector942                                         build/obj/vectors.o
vector943                                         build/obj/vectors.o
vector944                                         build/obj/vectors.o
vector945                                         build/obj/vectors.o
vector946                                         build/obj/vectors.o
vector947                                         build/obj/vectors.o
vector948                                         build/obj/vectors.o
vector949                                         build/obj/vectors.o
vector95                                          build/obj/vectors.o
vector950                                         build/obj/vectors.o
vector951                                         build/obj/vectors.o
vector952                                         build/obj/vectors.o
vector953                                         build/obj/vectors.o
vector954                                         build/obj/vectors.o
vector955                                         build/obj/vectors.o
vector956                                         build/obj/vectors.o
vector957                                         build/obj/vectors.o
vector958                                         build/obj/vectors.o
vector959                                         build/obj/vectors.o
vector96                                          build/obj/vectors.o
vector960                                         build/obj/vectors.o
vector961                                         build/obj/vectors.o
vector962                                         build/obj/vectors.o
vector963                                         build/obj/vectors.o
vector964                                         build/obj/vectors.o
vector965                                         build/obj/vectors.o
vector966                                         build/obj/vectors.o
vector967                                         build/obj/vectors.o
vector968                                         build/obj/vectors.o
vector969                                         build/obj/vectors.o
vector97                                          build/obj/vectors.o
vector970                                         build/obj/vectors.o
vector971                                         build/obj/vectors.o
vector972                                         build/obj/vectors.o
vector973                                         build/obj/vectors.o
vector974                                         build/obj/vectors.o
vector975                                         build/obj/vectors.o
vector976                                         build/obj/vectors.o
vector977                                         build/obj/vectors.o
vector978                                         build/obj/vectors.o
vector979                                         build/obj/vectors.o
vector98                                          build/obj/vectors.o
vector980                                         build/obj/vectors.o
vector981                                         build/obj/vectors.o
vector982                                         build/obj/vectors.o
vector983                                         build/obj/vectors.o
vector984                                         build/obj/vectors.o
vector985                                         build/obj/vectors.o
vector986                                         build/obj/vectors.o
vector987                                         build/obj/vectors.o
vector988                                         build/obj/vectors.o
vector989                                         build/obj/vectors.o
vector99                                          build/obj/vectors.o
vector990                                         build/obj/vectors.o
vector991                                         build/obj/vectors.o
vector992                                         build/obj/vectors.o
vector993                                         build/obj/vectors.o
vector994                                         build/obj/vectors.o
vector995                                         build/obj/vectors.o
vector996                                         build/obj/vectors.o
vector997                                         build/obj/vectors.o
vector998                                         build/obj/vectors.o
vector999                                         build/obj/vectors.o
vtable for HeadLight_Module                       build/obj/main.o
vtable for Horn_Module                            build/obj/main.o
vtable for PDU_FAN_Module                         build/obj/main.o
vtable for TurnSignal_Module                      build/obj/main.o
vtable for Wiper_Module                           build/obj/main.o
vtable for __cxxabiv1::__class_type_info          c:/users/shehan/documents/environments/spc5_env/toolchain/bin/../lib/gcc/powerpc-eabivle/4.9.4/../../../../powerpc-eabivle/lib/e200z2\libstdc++.a(class_type_info.o)
                                                  c:/users/shehan/documents/environments/spc5_env/toolchain/bin/../lib/gcc/powerpc-eabivle/4.9.4/../../../../powerpc-eabivle/lib/e200z2\libstdc++.a(tinfo.o)
                                                  c:/users/shehan/documents/environments/spc5_env/toolchain/bin/../lib/gcc/powerpc-eabivle/4.9.4/../../../../powerpc-eabivle/lib/e200z2\libstdc++.a(eh_exception.o)
vtable for __cxxabiv1::__forced_unwind            c:/users/shehan/documents/environments/spc5_env/toolchain/bin/../lib/gcc/powerpc-eabivle/4.9.4/../../../../powerpc-eabivle/lib/e200z2\libstdc++.a(eh_exception.o)
vtable for __cxxabiv1::__foreign_exception        c:/users/shehan/documents/environments/spc5_env/toolchain/bin/../lib/gcc/powerpc-eabivle/4.9.4/../../../../powerpc-eabivle/lib/e200z2\libstdc++.a(eh_exception.o)
vtable for __cxxabiv1::__si_class_type_info       c:/users/shehan/documents/environments/spc5_env/toolchain/bin/../lib/gcc/powerpc-eabivle/4.9.4/../../../../powerpc-eabivle/lib/e200z2\libstdc++.a(si_class_type_info.o)
                                                  c:/users/shehan/documents/environments/spc5_env/toolchain/bin/../lib/gcc/powerpc-eabivle/4.9.4/../../../../powerpc-eabivle/lib/e200z2\libstdc++.a(class_type_info.o)
                                                  c:/users/shehan/documents/environments/spc5_env/toolchain/bin/../lib/gcc/powerpc-eabivle/4.9.4/../../../../powerpc-eabivle/lib/e200z2\libstdc++.a(eh_exception.o)
                                                  c:/users/shehan/documents/environments/spc5_env/toolchain/bin/../lib/gcc/powerpc-eabivle/4.9.4/../../../../powerpc-eabivle/lib/e200z2\libstdc++.a(bad_alloc.o)
vtable for latch_Device                           build/obj/main.o
vtable for momentary_Device                       build/obj/main.o
vtable for std::bad_alloc                         c:/users/shehan/documents/environments/spc5_env/toolchain/bin/../lib/gcc/powerpc-eabivle/4.9.4/../../../../powerpc-eabivle/lib/e200z2\libstdc++.a(bad_alloc.o)
                                                  c:/users/shehan/documents/environments/spc5_env/toolchain/bin/../lib/gcc/powerpc-eabivle/4.9.4/../../../../powerpc-eabivle/lib/e200z2\libstdc++.a(new_op.o)
vtable for std::bad_exception                     c:/users/shehan/documents/environments/spc5_env/toolchain/bin/../lib/gcc/powerpc-eabivle/4.9.4/../../../../powerpc-eabivle/lib/e200z2\libstdc++.a(eh_exception.o)
                                                  c:/users/shehan/documents/environments/spc5_env/toolchain/bin/../lib/gcc/powerpc-eabivle/4.9.4/../../../../powerpc-eabivle/lib/e200z2\libstdc++.a(eh_personality.o)
vtable for std::exception                         c:/users/shehan/documents/environments/spc5_env/toolchain/bin/../lib/gcc/powerpc-eabivle/4.9.4/../../../../powerpc-eabivle/lib/e200z2\libstdc++.a(eh_exception.o)
vtable for std::type_info                         c:/users/shehan/documents/environments/spc5_env/toolchain/bin/../lib/gcc/powerpc-eabivle/4.9.4/../../../../powerpc-eabivle/lib/e200z2\libstdc++.a(tinfo.o)
vtable for toggle_Device                          build/obj/main.o
